ARM GAS  C:\cygwin\tmp\ccULqaik.s 			page 1


   1              		.syntax unified
   2              		.cpu cortex-m4
   3              		.fpu softvfp
   4              		.eabi_attribute 20, 1	@ Tag_ABI_FP_denormal
   5              		.eabi_attribute 21, 1	@ Tag_ABI_FP_exceptions
   6              		.eabi_attribute 23, 3	@ Tag_ABI_FP_number_model
   7              		.eabi_attribute 24, 1	@ Tag_ABI_align8_needed
   8              		.eabi_attribute 25, 1	@ Tag_ABI_align8_preserved
   9              		.eabi_attribute 26, 1	@ Tag_ABI_enum_size
  10              		.eabi_attribute 30, 4	@ Tag_ABI_optimization_goals
  11              		.eabi_attribute 34, 1	@ Tag_CPU_unaligned_access
  12              		.eabi_attribute 18, 4	@ Tag_ABI_PCS_wchar_t
  13              		.file	"main.c"
  14              	@ GNU C (GNU Tools for ARM Embedded Processors) version 4.9.3 20141119 (release) [ARM/embedded-4_9-
  15              	@	compiled by GNU C version 4.7.4, GMP version 4.3.2, MPFR version 2.4.2, MPC version 0.8.1
  16              	@ GGC heuristics: --param ggc-min-expand=100 --param ggc-min-heapsize=131072
  17              	@ options passed:  -I . -I Inc
  18              	@ -I ../STM32Cube_FW_F4_V1.4.0/Drivers/CMSIS/Include
  19              	@ -I ../STM32Cube_FW_F4_V1.4.0/Drivers/CMSIS/Device/ST/STM32F4xx/Include
  20              	@ -I ../STM32Cube_FW_F4_V1.4.0/Drivers/STM32F4xx_HAL_Driver/Inc
  21              	@ -I ../STM32Cube_FW_F4_V1.4.0/Drivers/CMSIS/Include -imultilib armv7e-m
  22              	@ -iprefix c:\program files\gcc-arm-none-eabi-4_9-2014\bin\../lib/gcc/arm-none-eabi/4.9.3/
  23              	@ -isysroot c:\program files\gcc-arm-none-eabi-4_9-2014\bin\../arm-none-eabi
  24              	@ -MD out/main.d -MF out/main.d -MP -MQ out/main.o -D__USES_INITFINI__
  25              	@ -D USE_HAL_DRIVER -D STM32F4XX -D HSE_VALUE=8000000
  26              	@ -D __STARTUP_CLEAR_BSS -D STM32F411RE -D USE_FULL_ASSERT -D __FPU_USED
  27              	@ Src/main.c -mcpu=cortex-m4 -mthumb -auxbase-strip out/main.o -g -ggdb3
  28              	@ -Os -Os -Wall -Wstrict-prototypes -Wextra -std=gnu90 -ffunction-sections
  29              	@ -fdata-sections -fverbose-asm
  30              	@ options enabled:  -faggressive-loop-optimizations -fauto-inc-dec
  31              	@ -fbranch-count-reg -fcaller-saves -fcombine-stack-adjustments -fcommon
  32              	@ -fcompare-elim -fcprop-registers -fcrossjumping -fcse-follow-jumps
  33              	@ -fdata-sections -fdefer-pop -fdelete-null-pointer-checks -fdevirtualize
  34              	@ -fdevirtualize-speculatively -fdwarf2-cfi-asm -fearly-inlining
  35              	@ -feliminate-unused-debug-types -fexpensive-optimizations
  36              	@ -fforward-propagate -ffunction-cse -ffunction-sections -fgcse -fgcse-lm
  37              	@ -fgnu-runtime -fgnu-unique -fguess-branch-probability
  38              	@ -fhoist-adjacent-loads -fident -fif-conversion -fif-conversion2
  39              	@ -findirect-inlining -finline -finline-atomics -finline-functions
  40              	@ -finline-functions-called-once -finline-small-functions -fipa-cp
  41              	@ -fipa-profile -fipa-pure-const -fipa-reference -fipa-sra
  42              	@ -fira-hoist-pressure -fira-share-save-slots -fira-share-spill-slots
  43              	@ -fisolate-erroneous-paths-dereference -fivopts -fkeep-static-consts
  44              	@ -fleading-underscore -fmath-errno -fmerge-constants -fmerge-debug-strings
  45              	@ -fomit-frame-pointer -foptimize-sibling-calls -fpartial-inlining
  46              	@ -fpeephole -fpeephole2 -fprefetch-loop-arrays -freg-struct-return
  47              	@ -freorder-blocks -freorder-functions -frerun-cse-after-loop
  48              	@ -fsched-critical-path-heuristic -fsched-dep-count-heuristic
  49              	@ -fsched-group-heuristic -fsched-interblock -fsched-last-insn-heuristic
  50              	@ -fsched-pressure -fsched-rank-heuristic -fsched-spec
  51              	@ -fsched-spec-insn-heuristic -fsched-stalled-insns-dep -fschedule-insns2
  52              	@ -fsection-anchors -fshow-column -fsigned-zeros -fsplit-ivs-in-unroller
  53              	@ -fsplit-wide-types -fstrict-aliasing -fstrict-overflow
  54              	@ -fstrict-volatile-bitfields -fsync-libcalls -fthread-jumps
  55              	@ -ftoplevel-reorder -ftrapping-math -ftree-bit-ccp -ftree-builtin-call-dce
  56              	@ -ftree-ccp -ftree-ch -ftree-coalesce-vars -ftree-copy-prop
  57              	@ -ftree-copyrename -ftree-cselim -ftree-dce -ftree-dominator-opts
ARM GAS  C:\cygwin\tmp\ccULqaik.s 			page 2


  58              	@ -ftree-dse -ftree-forwprop -ftree-fre -ftree-loop-if-convert
  59              	@ -ftree-loop-im -ftree-loop-ivcanon -ftree-loop-optimize
  60              	@ -ftree-parallelize-loops= -ftree-phiprop -ftree-pre -ftree-pta
  61              	@ -ftree-reassoc -ftree-scev-cprop -ftree-sink -ftree-slsr -ftree-sra
  62              	@ -ftree-switch-conversion -ftree-tail-merge -ftree-ter -ftree-vrp
  63              	@ -funit-at-a-time -fvar-tracking -fvar-tracking-assignments -fverbose-asm
  64              	@ -fzero-initialized-in-bss -mlittle-endian -mlra
  65              	@ -mpic-data-is-text-relative -msched-prolog -mthumb -munaligned-access
  66              	@ -mvectorize-with-neon-quad
  67              	
  68              		.text
  69              	.Ltext0:
  70              		.cfi_sections	.debug_frame
  71              		.section	.text.unlikely.Error_Handler,"ax",%progbits
  72              		.align	1
  73              		.thumb
  74              		.thumb_func
  75              		.type	Error_Handler, %function
  76              	Error_Handler:
  77              	.LFB128:
  78              		.file 1 "Src/main.c"
   1:Src/main.c    **** /*****************************************************************************
   2:Src/main.c    **** *	MULTICALOR NV
   3:Src/main.c    **** *	
   4:Src/main.c    **** *	File:	main.c
   5:Src/main.c    **** *		Update regularly the flags
   6:Src/main.c    **** *
   7:Src/main.c    **** ******************************************************************************
   8:Src/main.c    **** *	Verion V1.0.0
   9:Src/main.c    **** *	Date: 21-01-2015
  10:Src/main.c    **** *	Main program body
  11:Src/main.c    **** ******************************************************************************
  12:Src/main.c    **** */
  13:Src/main.c    **** 
  14:Src/main.c    **** /*****************************************
  15:Src/main.c    **** *	Newlib libc
  16:Src/main.c    **** *
  17:Src/main.c    **** ******************************************
  18:Src/main.c    **** */
  19:Src/main.c    **** #include <stdio.h>
  20:Src/main.c    **** #include <stdlib.h>
  21:Src/main.c    **** #include <string.h>
  22:Src/main.c    **** #include <stdbool.h>
  23:Src/main.c    **** 
  24:Src/main.c    **** /*****************************************
  25:Src/main.c    **** *	Include peripheral drivers
  26:Src/main.c    **** *
  27:Src/main.c    **** ******************************************
  28:Src/main.c    **** */
  29:Src/main.c    **** #include "main.h"
  30:Src/main.c    **** #include "stm32f4xx_it.h"
  31:Src/main.c    **** 
  32:Src/main.c    **** /*****************************************
  33:Src/main.c    **** *	Include exported libs
  34:Src/main.c    **** *
  35:Src/main.c    **** ******************************************
  36:Src/main.c    **** */
ARM GAS  C:\cygwin\tmp\ccULqaik.s 			page 3


  37:Src/main.c    **** 
  38:Src/main.c    **** 
  39:Src/main.c    **** /* Private Functions -----------------------------------------------------*/
  40:Src/main.c    **** static void SystemClock_Config(void);
  41:Src/main.c    **** static void Error_Handler(void);
  42:Src/main.c    **** static void init_leds(void);
  43:Src/main.c    **** static void sram_init(void);
  44:Src/main.c    **** static void I2C_init(void);
  45:Src/main.c    **** static void USART_init(void);
  46:Src/main.c    **** 
  47:Src/main.c    **** /* Private macro -----------------------------------------------------*/
  48:Src/main.c    **** /* Private variables -------------------------------------------------*/
  49:Src/main.c    **** SRAM_HandleTypeDef hsram;
  50:Src/main.c    **** FSMC_NORSRAM_TimingTypeDef SRAM_Timing;
  51:Src/main.c    **** I2C_HandleTypeDef I2cHandle;
  52:Src/main.c    **** UART_HandleTypeDef UartHandle;
  53:Src/main.c    **** 
  54:Src/main.c    **** /* Defines -----------------------------------------------------------*/
  55:Src/main.c    **** #define	I2C_ADDRESS		0xFE
  56:Src/main.c    **** 
  57:Src/main.c    **** //****************************************************************************
  58:Src/main.c    **** /* Static variables -------------------------------------------------*/
  59:Src/main.c    **** static int Debug_ITMDebug = 0;
  60:Src/main.c    **** 
  61:Src/main.c    **** //****************************************************************************
  62:Src/main.c    **** 
  63:Src/main.c    **** void Debug_ITMDebugEnable(void){
  64:Src/main.c    **** 	volatile unsigned int *ITM_TER      = (volatile unsigned int *)0xE0000E00;
  65:Src/main.c    **** 	volatile unsigned int *SCB_DHCSR 		= (volatile unsigned int *)0xE000EDF0;
  66:Src/main.c    **** 	volatile unsigned int *DBGMCU_CR 		= (volatile unsigned int *)0xE0042004;
  67:Src/main.c    **** 
  68:Src/main.c    **** 	*DBGMCU_CR |= 0x27; // DBGMCU_CR
  69:Src/main.c    **** 
  70:Src/main.c    ****   if ((*SCB_DHCSR & 1) && (*ITM_TER & 1)) // Enabled?
  71:Src/main.c    ****     Debug_ITMDebug = 1;
  72:Src/main.c    **** }
  73:Src/main.c    **** 
  74:Src/main.c    **** //****************************************************************************
  75:Src/main.c    **** 
  76:Src/main.c    **** void Debug_ITMDebugOutputChar(char ch){
  77:Src/main.c    **** 	static volatile unsigned int *ITM_STIM0 = (volatile unsigned int *)0xE0000000; // ITM Port 0
  78:Src/main.c    **** 	static volatile unsigned int *SCB_DEMCR = (volatile unsigned int *)0xE000EDFC;
  79:Src/main.c    **** 
  80:Src/main.c    **** 	if (Debug_ITMDebug && (*SCB_DEMCR & 0x01000000))
  81:Src/main.c    **** 	{
  82:Src/main.c    **** 		while(*ITM_STIM0 == 0);
  83:Src/main.c    ****   	*((volatile char *)ITM_STIM0) = ch;
  84:Src/main.c    **** 	}
  85:Src/main.c    **** }
  86:Src/main.c    **** 
  87:Src/main.c    **** //****************************************************************************
  88:Src/main.c    **** 
  89:Src/main.c    **** void Debug_ITMDebugOutputString(char *Buffer){
  90:Src/main.c    **** 	if (Debug_ITMDebug)
  91:Src/main.c    **** 		while(*Buffer)
  92:Src/main.c    **** 			Debug_ITMDebugOutputChar(*Buffer++);
  93:Src/main.c    **** }
ARM GAS  C:\cygwin\tmp\ccULqaik.s 			page 4


  94:Src/main.c    **** 
  95:Src/main.c    **** //******************************************************************************
  96:Src/main.c    **** 
  97:Src/main.c    **** 
  98:Src/main.c    **** /**
  99:Src/main.c    ****   * @brief	main().
 100:Src/main.c    ****   * @param	None
 101:Src/main.c    ****   *	@note	Init the system.
 102:Src/main.c    ****   * 		return here after a call.
 103:Src/main.c    ****   *	@retval	None
 104:Src/main.c    ****   */
 105:Src/main.c    **** int main(void){
 106:Src/main.c    **** 	int n;
 107:Src/main.c    **** 	/* STM32f4xx HAL library initialization:
 108:Src/main.c    **** 	 - Cofigure Flash prefetch, flash preread and Buffer caches
 109:Src/main.c    **** 	 - Systick timer config
 110:Src/main.c    **** 	 - Low level init
 111:Src/main.c    **** 	 */
 112:Src/main.c    **** 	HAL_Init();
 113:Src/main.c    **** 	/*********************************************************************/
 114:Src/main.c    **** 
 115:Src/main.c    **** 	/* configure the system clock to 168 MHz */
 116:Src/main.c    **** 	SystemClock_Config();
 117:Src/main.c    **** 
 118:Src/main.c    **** 	/* Enable TRACE debug -----------------------------------------------*/
 119:Src/main.c    **** 	Debug_ITMDebugEnable();
 120:Src/main.c    ****  	Debug_ITMDebugOutputString("SWV Enabled\n");
 121:Src/main.c    **** 	/*********************************************************************/
 122:Src/main.c    **** 	
 123:Src/main.c    **** 	/* Init peripherals -------------------------------------------------*/
 124:Src/main.c    **** 	sram_init();
 125:Src/main.c    **** 	I2C_init();
 126:Src/main.c    **** 	USART_init();
 127:Src/main.c    **** 	/*********************************************************************/
 128:Src/main.c    **** 	
 129:Src/main.c    **** 	/*	Show us some status leds ----------------------------------------*/
 130:Src/main.c    **** 	init_leds();
 131:Src/main.c    **** 
 132:Src/main.c    **** 	
 133:Src/main.c    **** 	while(1){
 134:Src/main.c    **** 
 135:Src/main.c    **** 		printf("Compiled HAL\n");
 136:Src/main.c    **** 		
 137:Src/main.c    **** 				
 138:Src/main.c    **** 		test_Cplusplus();
 139:Src/main.c    **** 		
 140:Src/main.c    **** 		if(gui_Exec == true){
 141:Src/main.c    **** 			
 142:Src/main.c    **** 			printf("SystemCoreClock: %d\n", SystemCoreClock);
 143:Src/main.c    **** 			
 144:Src/main.c    **** 			/*Clear Flag*/
 145:Src/main.c    **** 			gui_Exec = false;
 146:Src/main.c    **** 		}
 147:Src/main.c    **** 		
 148:Src/main.c    **** 		if(Touch_Flagged == true){
 149:Src/main.c    **** 			
 150:Src/main.c    **** 			Touch_Flagged = false;
ARM GAS  C:\cygwin\tmp\ccULqaik.s 			page 5


 151:Src/main.c    **** 		}
 152:Src/main.c    **** 		
 153:Src/main.c    **** 	}
 154:Src/main.c    **** }
 155:Src/main.c    **** 
 156:Src/main.c    **** 
 157:Src/main.c    **** 
 158:Src/main.c    **** /**
 159:Src/main.c    ****   * @brief	System Clock configuration
 160:Src/main.c    ****   *		System clock Source	= PLL(HSE)
 161:Src/main.c    ****   *		SYSCLK(Hz)		= 168000000
 162:Src/main.c    ****   *		HCLK(Hz)		= 168000000
 163:Src/main.c    ****   *		AHB Prescale		= 1
 164:Src/main.c    ****   *		APB1 Prescale		= 4
 165:Src/main.c    ****   *		APB2 Prescale		= 2
 166:Src/main.c    ****   *		HSE frequency(Hz)	= 8000000
 167:Src/main.c    ****   *		PLL_M			= 8
 168:Src/main.c    ****   *		PLL_N			= 336
 169:Src/main.c    ****   *		PLL_P			= 2
 170:Src/main.c    ****   *		PLL_Q			= 7
 171:Src/main.c    ****   *		VDD(V)			= 3.3
 172:Src/main.c    ****   *		Main reg out Volt	= Scale1 mode
 173:Src/main.c    ****   *		Flash lat(ws)		= 5
 174:Src/main.c    ****   *	@param None
 175:Src/main.c    ****   *	@retval None
 176:Src/main.c    ****   */
 177:Src/main.c    **** static void SystemClock_Config(void){
 178:Src/main.c    **** 	RCC_ClkInitTypeDef RCC_ClkInitStruct;
 179:Src/main.c    **** 	RCC_OscInitTypeDef RCC_OscInitStruct;
 180:Src/main.c    **** 
 181:Src/main.c    **** 	/* Enable Power control clock */
 182:Src/main.c    **** 	__HAL_RCC_PWR_CLK_ENABLE();
 183:Src/main.c    **** 
 184:Src/main.c    **** 	/* The voltage scaling allows optimizing the power consumption when the
 185:Src/main.c    **** 	   device is clocked below the maximum system frequency, to update the
 186:Src/main.c    **** 	   voltage scaling value regarding system frequency refer to product
 187:Src/main.c    **** 	   datasheet. */
 188:Src/main.c    **** 	__HAL_PWR_VOLTAGESCALING_CONFIG(PWR_REGULATOR_VOLTAGE_SCALE1);
 189:Src/main.c    **** 
 190:Src/main.c    **** 	/* Enable HSE Oscillator and activate PLL with HSE as source */
 191:Src/main.c    **** 	RCC_OscInitStruct.OscillatorType = RCC_OSCILLATORTYPE_HSE;
 192:Src/main.c    **** 	RCC_OscInitStruct.HSEState = RCC_HSE_ON;
 193:Src/main.c    **** 	RCC_OscInitStruct.PLL.PLLState = RCC_PLL_ON;
 194:Src/main.c    **** 	RCC_OscInitStruct.PLL.PLLSource = RCC_PLLSOURCE_HSE;
 195:Src/main.c    **** 	RCC_OscInitStruct.PLL.PLLM = 4;
 196:Src/main.c    **** 	RCC_OscInitStruct.PLL.PLLN = 200;
 197:Src/main.c    **** 	RCC_OscInitStruct.PLL.PLLP = 4;
 198:Src/main.c    **** 	RCC_OscInitStruct.PLL.PLLQ = 9;
 199:Src/main.c    **** 	if(HAL_RCC_OscConfig(&RCC_OscInitStruct) != HAL_OK){
 200:Src/main.c    **** 		/* Initialization Error */
 201:Src/main.c    **** 		Error_Handler();
 202:Src/main.c    **** 	}
 203:Src/main.c    **** 	/* Select PLL as system clock source and configure the HCLK, PCLK1
 204:Src/main.c    **** 	   and PCLK2 clocks dividers */
 205:Src/main.c    **** 	RCC_ClkInitStruct.ClockType = (RCC_CLOCKTYPE_SYSCLK | RCC_CLOCKTYPE_HCLK	| RCC_CLOCKTYPE_PCLK1 | R
 206:Src/main.c    **** 	RCC_ClkInitStruct.SYSCLKSource = RCC_SYSCLKSOURCE_PLLCLK;
 207:Src/main.c    **** 	RCC_ClkInitStruct.AHBCLKDivider = RCC_SYSCLK_DIV1;
ARM GAS  C:\cygwin\tmp\ccULqaik.s 			page 6


 208:Src/main.c    **** 	RCC_ClkInitStruct.APB1CLKDivider = RCC_HCLK_DIV4;
 209:Src/main.c    **** 	RCC_ClkInitStruct.APB2CLKDivider = RCC_HCLK_DIV2;
 210:Src/main.c    **** 	if(HAL_RCC_ClockConfig(&RCC_ClkInitStruct, FLASH_LATENCY_5) != HAL_OK){
 211:Src/main.c    **** 		/* Initialization Error */
 212:Src/main.c    **** 		Error_Handler();
 213:Src/main.c    **** 	}
 214:Src/main.c    **** 
 215:Src/main.c    **** 	/* STM32F407x Revision Z devices: prefetch is supported */
 216:Src/main.c    **** 	if(HAL_GetREVID() == 0x1001){
 217:Src/main.c    **** 		/* Enable the Flash prefetch */
 218:Src/main.c    **** 		__HAL_FLASH_PREFETCH_BUFFER_ENABLE();
 219:Src/main.c    **** 	}
 220:Src/main.c    **** }
 221:Src/main.c    **** 
 222:Src/main.c    **** 
 223:Src/main.c    **** /**
 224:Src/main.c    ****   * @brief	Handles general errors.
 225:Src/main.c    ****   * @param	None
 226:Src/main.c    ****   * @retval	None
 227:Src/main.c    ****   */
 228:Src/main.c    **** static void Error_Handler(void){
  79              		.loc 1 228 0
  80              		.cfi_startproc
  81              		@ Volatile: function does not return.
  82              		@ args = 0, pretend = 0, frame = 0
  83              		@ frame_needed = 0, uses_anonymous_args = 0
  84 0000 08B5     		push	{r3, lr}	@
  85              		.cfi_def_cfa_offset 8
  86              		.cfi_offset 3, -8
  87              		.cfi_offset 14, -4
  88              	.L2:
 229:Src/main.c    **** 	
 230:Src/main.c    **** 	while(1){
 231:Src/main.c    **** 		/* Put error on LED3 */
 232:Src/main.c    **** 		HAL_GPIO_TogglePin(GPIOD, GPIO_PIN_13);
  89              		.loc 1 232 0 discriminator 1
  90 0002 0448     		ldr	r0, .L4	@,
  91 0004 4FF40051 		mov	r1, #8192	@,
  92 0008 FFF7FEFF 		bl	HAL_GPIO_TogglePin	@
  93              	.LVL0:
 233:Src/main.c    **** 		printf("Peripheral config error\n");
  94              		.loc 1 233 0 discriminator 1
  95 000c 0248     		ldr	r0, .L4+4	@,
  96 000e FFF7FEFF 		bl	puts	@
  97              	.LVL1:
 234:Src/main.c    **** 	}
  98              		.loc 1 234 0 discriminator 1
  99 0012 F6E7     		b	.L2	@
 100              	.L5:
 101              		.align	2
 102              	.L4:
 103 0014 000C0240 		.word	1073875968
 104 0018 00000000 		.word	.LC0
 105              		.cfi_endproc
 106              	.LFE128:
 107              		.size	Error_Handler, .-Error_Handler
 108              		.section	.text.Debug_ITMDebugEnable,"ax",%progbits
ARM GAS  C:\cygwin\tmp\ccULqaik.s 			page 7


 109              		.align	1
 110              		.global	Debug_ITMDebugEnable
 111              		.thumb
 112              		.thumb_func
 113              		.type	Debug_ITMDebugEnable, %function
 114              	Debug_ITMDebugEnable:
 115              	.LFB123:
  63:Src/main.c    **** 	volatile unsigned int *ITM_TER      = (volatile unsigned int *)0xE0000E00;
 116              		.loc 1 63 0
 117              		.cfi_startproc
 118              		@ args = 0, pretend = 0, frame = 0
 119              		@ frame_needed = 0, uses_anonymous_args = 0
 120              		@ link register save eliminated.
 121              	.LVL2:
  68:Src/main.c    **** 
 122              		.loc 1 68 0
 123 0000 084A     		ldr	r2, .L14	@ tmp116,
 124 0002 1368     		ldr	r3, [r2]	@ D.8984, MEM[(volatile unsigned int *)3758366724B]
 125 0004 43F02703 		orr	r3, r3, #39	@ D.8984, D.8984,
 126 0008 1360     		str	r3, [r2]	@ D.8984, MEM[(volatile unsigned int *)3758366724B]
  70:Src/main.c    ****     Debug_ITMDebug = 1;
 127              		.loc 1 70 0
 128 000a 074B     		ldr	r3, .L14+4	@ tmp118,
 129 000c 1B68     		ldr	r3, [r3]	@ D.8984, MEM[(volatile unsigned int *)3758157296B]
 130 000e DA07     		lsls	r2, r3, #31	@, D.8984,
 131 0010 06D5     		bpl	.L6	@,
 132              	.LBB4:
 133 0012 064B     		ldr	r3, .L14+8	@ tmp120,
 134 0014 1B68     		ldr	r3, [r3]	@ D.8984, MEM[(volatile unsigned int *)3758099968B]
 135 0016 DB07     		lsls	r3, r3, #31	@, D.8984,
  71:Src/main.c    **** }
 136              		.loc 1 71 0
 137 0018 42BF     		ittt	mi
 138 001a 054B     		ldrmi	r3, .L14+12	@ tmp122,
 139 001c 0122     		movmi	r2, #1	@ tmp123,
 140 001e 1A60     		strmi	r2, [r3]	@ tmp123, Debug_ITMDebug
 141              	.L6:
 142 0020 7047     		bx	lr	@
 143              	.L15:
 144 0022 00BF     		.align	2
 145              	.L14:
 146 0024 042004E0 		.word	-536600572
 147 0028 F0ED00E0 		.word	-536810000
 148 002c 000E00E0 		.word	-536867328
 149 0030 00000000 		.word	.LANCHOR0
 150              	.LBE4:
 151              		.cfi_endproc
 152              	.LFE123:
 153              		.size	Debug_ITMDebugEnable, .-Debug_ITMDebugEnable
 154              		.section	.text.Debug_ITMDebugOutputChar,"ax",%progbits
 155              		.align	1
 156              		.global	Debug_ITMDebugOutputChar
 157              		.thumb
 158              		.thumb_func
 159              		.type	Debug_ITMDebugOutputChar, %function
 160              	Debug_ITMDebugOutputChar:
 161              	.LFB124:
ARM GAS  C:\cygwin\tmp\ccULqaik.s 			page 8


  76:Src/main.c    **** 	static volatile unsigned int *ITM_STIM0 = (volatile unsigned int *)0xE0000000; // ITM Port 0
 162              		.loc 1 76 0
 163              		.cfi_startproc
 164              		@ args = 0, pretend = 0, frame = 0
 165              		@ frame_needed = 0, uses_anonymous_args = 0
 166              		@ link register save eliminated.
 167              	.LVL3:
  80:Src/main.c    **** 	{
 168              		.loc 1 80 0
 169 0000 064B     		ldr	r3, .L28	@ tmp115,
 170 0002 1B68     		ldr	r3, [r3]	@ Debug_ITMDebug, Debug_ITMDebug
 171 0004 4BB1     		cbz	r3, .L16	@ Debug_ITMDebug,
  80:Src/main.c    **** 	{
 172              		.loc 1 80 0 is_stmt 0 discriminator 1
 173 0006 064B     		ldr	r3, .L28+4	@ tmp117,
 174 0008 1B68     		ldr	r3, [r3]	@ D.8989, MEM[(volatile unsigned int *)3758157308B]
 175 000a DB01     		lsls	r3, r3, #7	@, D.8989,
 176 000c 05D5     		bpl	.L16	@,
 177              	.L24:
 178              	.LBB7:
 179              	.LBB8:
  82:Src/main.c    ****   	*((volatile char *)ITM_STIM0) = ch;
 180              		.loc 1 82 0 is_stmt 1
 181 000e 4FF06043 		mov	r3, #-536870912	@ tmp119,
 182 0012 1A68     		ldr	r2, [r3]	@ D.8989, MEM[(volatile unsigned int *)3758096384B]
 183 0014 002A     		cmp	r2, #0	@ D.8989
 184 0016 FAD0     		beq	.L24	@
  83:Src/main.c    **** 	}
 185              		.loc 1 83 0
 186 0018 1870     		strb	r0, [r3]	@ ch, MEM[(volatile char *)3758096384B]
 187              	.L16:
 188 001a 7047     		bx	lr	@
 189              	.L29:
 190              		.align	2
 191              	.L28:
 192 001c 00000000 		.word	.LANCHOR0
 193 0020 FCED00E0 		.word	-536809988
 194              	.LBE8:
 195              	.LBE7:
 196              		.cfi_endproc
 197              	.LFE124:
 198              		.size	Debug_ITMDebugOutputChar, .-Debug_ITMDebugOutputChar
 199              		.section	.text.Debug_ITMDebugOutputString,"ax",%progbits
 200              		.align	1
 201              		.global	Debug_ITMDebugOutputString
 202              		.thumb
 203              		.thumb_func
 204              		.type	Debug_ITMDebugOutputString, %function
 205              	Debug_ITMDebugOutputString:
 206              	.LFB125:
  89:Src/main.c    **** 	if (Debug_ITMDebug)
 207              		.loc 1 89 0
 208              		.cfi_startproc
 209              		@ args = 0, pretend = 0, frame = 0
 210              		@ frame_needed = 0, uses_anonymous_args = 0
 211              	.LVL4:
  90:Src/main.c    **** 		while(*Buffer)
ARM GAS  C:\cygwin\tmp\ccULqaik.s 			page 9


 212              		.loc 1 90 0
 213 0000 054B     		ldr	r3, .L35	@ tmp146,
 214 0002 1B68     		ldr	r3, [r3]	@ Debug_ITMDebug, Debug_ITMDebug
  89:Src/main.c    **** 	if (Debug_ITMDebug)
 215              		.loc 1 89 0
 216 0004 10B5     		push	{r4, lr}	@
 217              		.cfi_def_cfa_offset 8
 218              		.cfi_offset 4, -8
 219              		.cfi_offset 14, -4
  90:Src/main.c    **** 		while(*Buffer)
 220              		.loc 1 90 0
 221 0006 33B1     		cbz	r3, .L30	@ Debug_ITMDebug,
 222 0008 441E     		subs	r4, r0, #1	@ ivtmp.35, Buffer,
 223              	.LVL5:
 224              	.L32:
 225              	.LBB11:
 226              	.LBB12:
  91:Src/main.c    **** 			Debug_ITMDebugOutputChar(*Buffer++);
 227              		.loc 1 91 0
 228 000a 14F8010F 		ldrb	r0, [r4, #1]!	@ zero_extendqisi2	@ D.9005, MEM[base: _14, offset: 0B]
 229              	.LVL6:
 230 000e 10B1     		cbz	r0, .L30	@ D.9005,
 231              	.LVL7:
  92:Src/main.c    **** }
 232              		.loc 1 92 0
 233 0010 FFF7FEFF 		bl	Debug_ITMDebugOutputChar	@
 234              	.LVL8:
 235 0014 F9E7     		b	.L32	@
 236              	.LVL9:
 237              	.L30:
 238 0016 10BD     		pop	{r4, pc}	@
 239              	.L36:
 240              		.align	2
 241              	.L35:
 242 0018 00000000 		.word	.LANCHOR0
 243              	.LBE12:
 244              	.LBE11:
 245              		.cfi_endproc
 246              	.LFE125:
 247              		.size	Debug_ITMDebugOutputString, .-Debug_ITMDebugOutputString
 248              		.section	.text.startup.main,"ax",%progbits
 249              		.align	1
 250              		.global	main
 251              		.thumb
 252              		.thumb_func
 253              		.type	main, %function
 254              	main:
 255              	.LFB126:
 105:Src/main.c    **** 	int n;
 256              		.loc 1 105 0
 257              		.cfi_startproc
 258              		@ Volatile: function does not return.
 259              		@ args = 0, pretend = 0, frame = 72
 260              		@ frame_needed = 0, uses_anonymous_args = 0
 261 0000 00B5     		push	{lr}	@
 262              		.cfi_def_cfa_offset 4
 263              		.cfi_offset 14, -4
ARM GAS  C:\cygwin\tmp\ccULqaik.s 			page 10


 264 0002 93B0     		sub	sp, sp, #76	@,,
 265              		.cfi_def_cfa_offset 80
 112:Src/main.c    **** 	/*********************************************************************/
 266              		.loc 1 112 0
 267 0004 FFF7FEFF 		bl	HAL_Init	@
 268              	.LVL10:
 269              	.LBB23:
 270              	.LBB24:
 182:Src/main.c    **** 
 271              		.loc 1 182 0
 272 0008 564A     		ldr	r2, .L49	@ tmp128,
 273 000a 136C     		ldr	r3, [r2, #64]	@ D.9014, MEM[(struct RCC_TypeDef *)1073887232B].APB1ENR
 274 000c 43F08053 		orr	r3, r3, #268435456	@ D.9014, D.9014,
 275 0010 1364     		str	r3, [r2, #64]	@ D.9014, MEM[(struct RCC_TypeDef *)1073887232B].APB1ENR
 188:Src/main.c    **** 
 276              		.loc 1 188 0
 277 0012 A2F5E432 		sub	r2, r2, #116736	@ tmp130, tmp130,
 193:Src/main.c    **** 	RCC_OscInitStruct.PLL.PLLSource = RCC_PLLSOURCE_HSE;
 278              		.loc 1 193 0
 279 0016 0224     		movs	r4, #2	@ tmp134,
 188:Src/main.c    **** 
 280              		.loc 1 188 0
 281 0018 1368     		ldr	r3, [r2]	@ D.9014, MEM[(struct PWR_TypeDef *)1073770496B].CR
 282 001a 43F44043 		orr	r3, r3, #49152	@ D.9014, D.9014,
 283 001e 1360     		str	r3, [r2]	@ D.9014, MEM[(struct PWR_TypeDef *)1073770496B].CR
 191:Src/main.c    **** 	RCC_OscInitStruct.HSEState = RCC_HSE_ON;
 284              		.loc 1 191 0
 285 0020 0123     		movs	r3, #1	@ tmp132,
 286 0022 0693     		str	r3, [sp, #24]	@ tmp132, RCC_OscInitStruct.OscillatorType
 192:Src/main.c    **** 	RCC_OscInitStruct.PLL.PLLState = RCC_PLL_ON;
 287              		.loc 1 192 0
 288 0024 0793     		str	r3, [sp, #28]	@ tmp132, RCC_OscInitStruct.HSEState
 194:Src/main.c    **** 	RCC_OscInitStruct.PLL.PLLM = 4;
 289              		.loc 1 194 0
 290 0026 4FF48003 		mov	r3, #4194304	@ tmp135,
 291 002a 0D93     		str	r3, [sp, #52]	@ tmp135, RCC_OscInitStruct.PLL.PLLSource
 195:Src/main.c    **** 	RCC_OscInitStruct.PLL.PLLN = 200;
 292              		.loc 1 195 0
 293 002c 0423     		movs	r3, #4	@ tmp136,
 294 002e 0E93     		str	r3, [sp, #56]	@ tmp136, RCC_OscInitStruct.PLL.PLLM
 196:Src/main.c    **** 	RCC_OscInitStruct.PLL.PLLP = 4;
 295              		.loc 1 196 0
 296 0030 C822     		movs	r2, #200	@ tmp137,
 197:Src/main.c    **** 	RCC_OscInitStruct.PLL.PLLQ = 9;
 297              		.loc 1 197 0
 298 0032 1093     		str	r3, [sp, #64]	@ tmp136, RCC_OscInitStruct.PLL.PLLP
 199:Src/main.c    **** 		/* Initialization Error */
 299              		.loc 1 199 0
 300 0034 06A8     		add	r0, sp, #24	@ tmp257,,
 198:Src/main.c    **** 	if(HAL_RCC_OscConfig(&RCC_OscInitStruct) != HAL_OK){
 301              		.loc 1 198 0
 302 0036 0923     		movs	r3, #9	@ tmp139,
 193:Src/main.c    **** 	RCC_OscInitStruct.PLL.PLLSource = RCC_PLLSOURCE_HSE;
 303              		.loc 1 193 0
 304 0038 0C94     		str	r4, [sp, #48]	@ tmp134, RCC_OscInitStruct.PLL.PLLState
 196:Src/main.c    **** 	RCC_OscInitStruct.PLL.PLLP = 4;
 305              		.loc 1 196 0
ARM GAS  C:\cygwin\tmp\ccULqaik.s 			page 11


 306 003a 0F92     		str	r2, [sp, #60]	@ tmp137, RCC_OscInitStruct.PLL.PLLN
 198:Src/main.c    **** 	if(HAL_RCC_OscConfig(&RCC_OscInitStruct) != HAL_OK){
 307              		.loc 1 198 0
 308 003c 1193     		str	r3, [sp, #68]	@ tmp139, RCC_OscInitStruct.PLL.PLLQ
 199:Src/main.c    **** 		/* Initialization Error */
 309              		.loc 1 199 0
 310 003e FFF7FEFF 		bl	HAL_RCC_OscConfig	@
 311              	.LVL11:
 312 0042 08B1     		cbz	r0, .L38	@ tmp141,
 313              	.L39:
 201:Src/main.c    **** 	}
 314              		.loc 1 201 0
 315 0044 FFF7FEFF 		bl	Error_Handler	@
 316              	.LVL12:
 317              	.L38:
 205:Src/main.c    **** 	RCC_ClkInitStruct.SYSCLKSource = RCC_SYSCLKSOURCE_PLLCLK;
 318              		.loc 1 205 0
 319 0048 0F23     		movs	r3, #15	@ tmp142,
 320 004a 0193     		str	r3, [sp, #4]	@ tmp142, RCC_ClkInitStruct.ClockType
 208:Src/main.c    **** 	RCC_ClkInitStruct.APB2CLKDivider = RCC_HCLK_DIV2;
 321              		.loc 1 208 0
 322 004c 4FF4A053 		mov	r3, #5120	@ tmp145,
 207:Src/main.c    **** 	RCC_ClkInitStruct.APB1CLKDivider = RCC_HCLK_DIV4;
 323              		.loc 1 207 0
 324 0050 0390     		str	r0, [sp, #12]	@ tmp141, RCC_ClkInitStruct.AHBCLKDivider
 208:Src/main.c    **** 	RCC_ClkInitStruct.APB2CLKDivider = RCC_HCLK_DIV2;
 325              		.loc 1 208 0
 326 0052 0493     		str	r3, [sp, #16]	@ tmp145, RCC_ClkInitStruct.APB1CLKDivider
 210:Src/main.c    **** 		/* Initialization Error */
 327              		.loc 1 210 0
 328 0054 01A8     		add	r0, sp, #4	@,,
 209:Src/main.c    **** 	if(HAL_RCC_ClockConfig(&RCC_ClkInitStruct, FLASH_LATENCY_5) != HAL_OK){
 329              		.loc 1 209 0
 330 0056 4FF48053 		mov	r3, #4096	@ tmp146,
 210:Src/main.c    **** 		/* Initialization Error */
 331              		.loc 1 210 0
 332 005a 0521     		movs	r1, #5	@,
 206:Src/main.c    **** 	RCC_ClkInitStruct.AHBCLKDivider = RCC_SYSCLK_DIV1;
 333              		.loc 1 206 0
 334 005c 0294     		str	r4, [sp, #8]	@ tmp134, RCC_ClkInitStruct.SYSCLKSource
 209:Src/main.c    **** 	if(HAL_RCC_ClockConfig(&RCC_ClkInitStruct, FLASH_LATENCY_5) != HAL_OK){
 335              		.loc 1 209 0
 336 005e 0593     		str	r3, [sp, #20]	@ tmp146, RCC_ClkInitStruct.APB2CLKDivider
 210:Src/main.c    **** 		/* Initialization Error */
 337              		.loc 1 210 0
 338 0060 FFF7FEFF 		bl	HAL_RCC_ClockConfig	@
 339              	.LVL13:
 340 0064 0028     		cmp	r0, #0	@
 341 0066 EDD1     		bne	.L39	@
 216:Src/main.c    **** 		/* Enable the Flash prefetch */
 342              		.loc 1 216 0
 343 0068 FFF7FEFF 		bl	HAL_GetREVID	@
 344              	.LVL14:
 345 006c 41F20103 		movw	r3, #4097	@ tmp149,
 346 0070 9842     		cmp	r0, r3	@, tmp149
 218:Src/main.c    **** 	}
 347              		.loc 1 218 0
ARM GAS  C:\cygwin\tmp\ccULqaik.s 			page 12


 348 0072 01BF     		itttt	eq
 349 0074 3C4A     		ldreq	r2, .L49+4	@ tmp150,
 350 0076 1368     		ldreq	r3, [r2]	@ D.9014, MEM[(struct FLASH_TypeDef *)1073888256B].ACR
 351 0078 43F48073 		orreq	r3, r3, #256	@ D.9014, D.9014,
 352 007c 1360     		streq	r3, [r2]	@ D.9014, MEM[(struct FLASH_TypeDef *)1073888256B].ACR
 353              	.LBE24:
 354              	.LBE23:
 119:Src/main.c    ****  	Debug_ITMDebugOutputString("SWV Enabled\n");
 355              		.loc 1 119 0
 356 007e FFF7FEFF 		bl	Debug_ITMDebugEnable	@
 357              	.LVL15:
 120:Src/main.c    **** 	/*********************************************************************/
 358              		.loc 1 120 0
 359 0082 3A48     		ldr	r0, .L49+8	@,
 360 0084 FFF7FEFF 		bl	Debug_ITMDebugOutputString	@
 361              	.LVL16:
 362              	.LBB25:
 363              	.LBB26:
 235:Src/main.c    **** }
 236:Src/main.c    **** 
 237:Src/main.c    **** /**
 238:Src/main.c    ****   * @brief	Init leds PD12-13
 239:Src/main.c    ****   * @param	None
 240:Src/main.c    ****   * @retval	None
 241:Src/main.c    ****   */
 242:Src/main.c    **** static void init_leds(void){
 243:Src/main.c    **** 	GPIO_InitTypeDef GPIO_InitStructure;
 244:Src/main.c    **** 
 245:Src/main.c    **** 	// Enable AHB1per Clock
 246:Src/main.c    **** 	__GPIOD_CLK_ENABLE();
 247:Src/main.c    **** 
 248:Src/main.c    **** 	//Config pins
 249:Src/main.c    **** 	GPIO_InitStructure.Pin = GPIO_PIN_12 | GPIO_PIN_13;
 250:Src/main.c    **** 	GPIO_InitStructure.Mode = GPIO_MODE_OUTPUT_PP;
 251:Src/main.c    **** 	GPIO_InitStructure.Speed = GPIO_SPEED_HIGH;
 252:Src/main.c    **** 	GPIO_InitStructure.Pull = GPIO_PULLUP;
 253:Src/main.c    **** 	HAL_GPIO_Init(GPIOD, &GPIO_InitStructure);
 254:Src/main.c    **** }
 255:Src/main.c    **** 
 256:Src/main.c    **** /**
 257:Src/main.c    ****   * @brief init SRAM
 258:Src/main.c    ****   * @param None
 259:Src/main.c    ****   * @retval None
 260:Src/main.c    ****   */
 261:Src/main.c    **** static void sram_init(void){
 262:Src/main.c    **** 	/*	Configure the FSCM bus ---------------------------*/
 263:Src/main.c    **** 	SRAM_Timing.AddressSetupTime = 1;
 264:Src/main.c    **** 	SRAM_Timing.AddressHoldTime = 1;
 265:Src/main.c    **** 	SRAM_Timing.DataSetupTime = 1;
 266:Src/main.c    **** 	SRAM_Timing.BusTurnAroundDuration = 1;
 267:Src/main.c    **** 	SRAM_Timing.CLKDivision = 1;
 268:Src/main.c    **** 	SRAM_Timing.DataLatency = 1;
 269:Src/main.c    **** 	SRAM_Timing.AccessMode = FSMC_ACCESS_MODE_A;
 270:Src/main.c    **** 
 271:Src/main.c    **** 	hsram.Init.NSBank = FSMC_NORSRAM_BANK1;
 364              		.loc 1 271 0
 365 0088 3948     		ldr	r0, .L49+12	@ tmp167,
ARM GAS  C:\cygwin\tmp\ccULqaik.s 			page 13


 263:Src/main.c    **** 	SRAM_Timing.AddressHoldTime = 1;
 366              		.loc 1 263 0
 367 008a 3A49     		ldr	r1, .L49+16	@ tmp153,
 272:Src/main.c    **** 	hsram.Init.DataAddressMux = FSMC_DATA_ADDRESS_MUX_DISABLE;
 273:Src/main.c    **** 	hsram.Init.MemoryType = FSMC_MEMORY_TYPE_SRAM;
 274:Src/main.c    **** 	hsram.Init.MemoryDataWidth = FSMC_NORSRAM_MEM_BUS_WIDTH_16;
 368              		.loc 1 274 0
 369 008c 1022     		movs	r2, #16	@ tmp174,
 370 008e 4261     		str	r2, [r0, #20]	@ tmp174, hsram.Init.MemoryDataWidth
 275:Src/main.c    **** 	hsram.Init.BurstAccessMode = FSMC_BURST_ACCESS_MODE_DISABLE;
 276:Src/main.c    **** 	hsram.Init.WaitSignalPolarity = FSMC_WAIT_SIGNAL_POLARITY_LOW;
 277:Src/main.c    **** 	hsram.Init.WrapMode = FSMC_WRAP_MODE_DISABLE;
 278:Src/main.c    **** 	hsram.Init.WaitSignalActive = FSMC_WAIT_TIMING_BEFORE_WS;
 279:Src/main.c    **** 	hsram.Init.WriteOperation = FSMC_WRITE_OPERATION_ENABLE;
 371              		.loc 1 279 0
 372 0090 4FF48052 		mov	r2, #4096	@ tmp184,
 269:Src/main.c    **** 
 373              		.loc 1 269 0
 374 0094 0023     		movs	r3, #0	@ tmp166,
 263:Src/main.c    **** 	SRAM_Timing.AddressHoldTime = 1;
 375              		.loc 1 263 0
 376 0096 0124     		movs	r4, #1	@ tmp154,
 377              		.loc 1 279 0
 378 0098 8262     		str	r2, [r0, #40]	@ tmp184, hsram.Init.WriteOperation
 280:Src/main.c    **** 	hsram.Init.WaitSignal = FSMC_WAIT_SIGNAL_DISABLE;
 281:Src/main.c    **** 	hsram.Init.ExtendedMode = FSMC_EXTENDED_MODE_DISABLE;
 282:Src/main.c    **** 	hsram.Init.AsynchronousWait = FSMC_ASYNCHRONOUS_WAIT_DISABLE;
 283:Src/main.c    **** 	hsram.Init.WriteBurst = FSMC_WRITE_BURST_DISABLE;
 284:Src/main.c    **** 
 285:Src/main.c    **** 	/* Initialize the SRAM controller ----------------------------*/
 286:Src/main.c    **** 	if(HAL_SRAM_Init(&hsram, &SRAM_Timing, &SRAM_Timing) != HAL_OK){
 379              		.loc 1 286 0
 380 009a 0A46     		mov	r2, r1	@,
 263:Src/main.c    **** 	SRAM_Timing.AddressHoldTime = 1;
 381              		.loc 1 263 0
 382 009c 0C60     		str	r4, [r1]	@ tmp154, SRAM_Timing.AddressSetupTime
 264:Src/main.c    **** 	SRAM_Timing.DataSetupTime = 1;
 383              		.loc 1 264 0
 384 009e 4C60     		str	r4, [r1, #4]	@ tmp154, SRAM_Timing.AddressHoldTime
 265:Src/main.c    **** 	SRAM_Timing.BusTurnAroundDuration = 1;
 385              		.loc 1 265 0
 386 00a0 8C60     		str	r4, [r1, #8]	@ tmp154, SRAM_Timing.DataSetupTime
 266:Src/main.c    **** 	SRAM_Timing.CLKDivision = 1;
 387              		.loc 1 266 0
 388 00a2 CC60     		str	r4, [r1, #12]	@ tmp154, SRAM_Timing.BusTurnAroundDuration
 267:Src/main.c    **** 	SRAM_Timing.DataLatency = 1;
 389              		.loc 1 267 0
 390 00a4 0C61     		str	r4, [r1, #16]	@ tmp154, SRAM_Timing.CLKDivision
 268:Src/main.c    **** 	SRAM_Timing.AccessMode = FSMC_ACCESS_MODE_A;
 391              		.loc 1 268 0
 392 00a6 4C61     		str	r4, [r1, #20]	@ tmp154, SRAM_Timing.DataLatency
 269:Src/main.c    **** 
 393              		.loc 1 269 0
 394 00a8 8B61     		str	r3, [r1, #24]	@ tmp166, SRAM_Timing.AccessMode
 271:Src/main.c    **** 	hsram.Init.DataAddressMux = FSMC_DATA_ADDRESS_MUX_DISABLE;
 395              		.loc 1 271 0
 396 00aa 8360     		str	r3, [r0, #8]	@ tmp166, hsram.Init.NSBank
ARM GAS  C:\cygwin\tmp\ccULqaik.s 			page 14


 272:Src/main.c    **** 	hsram.Init.MemoryType = FSMC_MEMORY_TYPE_SRAM;
 397              		.loc 1 272 0
 398 00ac C360     		str	r3, [r0, #12]	@ tmp166, hsram.Init.DataAddressMux
 273:Src/main.c    **** 	hsram.Init.MemoryDataWidth = FSMC_NORSRAM_MEM_BUS_WIDTH_16;
 399              		.loc 1 273 0
 400 00ae 0361     		str	r3, [r0, #16]	@ tmp166, hsram.Init.MemoryType
 275:Src/main.c    **** 	hsram.Init.WaitSignalPolarity = FSMC_WAIT_SIGNAL_POLARITY_LOW;
 401              		.loc 1 275 0
 402 00b0 8361     		str	r3, [r0, #24]	@ tmp166, hsram.Init.BurstAccessMode
 276:Src/main.c    **** 	hsram.Init.WrapMode = FSMC_WRAP_MODE_DISABLE;
 403              		.loc 1 276 0
 404 00b2 C361     		str	r3, [r0, #28]	@ tmp166, hsram.Init.WaitSignalPolarity
 277:Src/main.c    **** 	hsram.Init.WaitSignalActive = FSMC_WAIT_TIMING_BEFORE_WS;
 405              		.loc 1 277 0
 406 00b4 0362     		str	r3, [r0, #32]	@ tmp166, hsram.Init.WrapMode
 278:Src/main.c    **** 	hsram.Init.WriteOperation = FSMC_WRITE_OPERATION_ENABLE;
 407              		.loc 1 278 0
 408 00b6 4362     		str	r3, [r0, #36]	@ tmp166, hsram.Init.WaitSignalActive
 280:Src/main.c    **** 	hsram.Init.ExtendedMode = FSMC_EXTENDED_MODE_DISABLE;
 409              		.loc 1 280 0
 410 00b8 C362     		str	r3, [r0, #44]	@ tmp166, hsram.Init.WaitSignal
 281:Src/main.c    **** 	hsram.Init.AsynchronousWait = FSMC_ASYNCHRONOUS_WAIT_DISABLE;
 411              		.loc 1 281 0
 412 00ba 0363     		str	r3, [r0, #48]	@ tmp166, hsram.Init.ExtendedMode
 282:Src/main.c    **** 	hsram.Init.WriteBurst = FSMC_WRITE_BURST_DISABLE;
 413              		.loc 1 282 0
 414 00bc 4363     		str	r3, [r0, #52]	@ tmp166, hsram.Init.AsynchronousWait
 283:Src/main.c    **** 
 415              		.loc 1 283 0
 416 00be 8363     		str	r3, [r0, #56]	@ tmp166, hsram.Init.WriteBurst
 417              		.loc 1 286 0
 418 00c0 FFF7FEFF 		bl	HAL_SRAM_Init	@
 419              	.LVL17:
 420 00c4 0028     		cmp	r0, #0	@ tmp196
 421 00c6 BDD1     		bne	.L39	@
 422              	.LBE26:
 423              	.LBE25:
 424              	.LBB27:
 425              	.LBB28:
 287:Src/main.c    **** 		/* Init Error */
 288:Src/main.c    **** 		Error_Handler();
 289:Src/main.c    **** 	}
 290:Src/main.c    **** }
 291:Src/main.c    **** 
 292:Src/main.c    **** /**
 293:Src/main.c    ****   * @brief init I2C1
 294:Src/main.c    ****   * @param None
 295:Src/main.c    ****   * @retval None
 296:Src/main.c    ****   */
 297:Src/main.c    **** static void I2C_init(void){
 298:Src/main.c    **** 	/*	Configure the I2C peripheral ---------------------------*/
 299:Src/main.c    ****   I2cHandle.Instance             = I2Cx;
 426              		.loc 1 299 0
 427 00c8 2B4B     		ldr	r3, .L49+20	@ tmp197,
 428 00ca 2C4A     		ldr	r2, .L49+24	@ tmp198,
 429 00cc 1A60     		str	r2, [r3]	@ tmp198, I2cHandle.Instance
 300:Src/main.c    **** 
ARM GAS  C:\cygwin\tmp\ccULqaik.s 			page 15


 301:Src/main.c    ****   I2cHandle.Init.AddressingMode  = I2C_ADDRESSINGMODE_7BIT;
 430              		.loc 1 301 0
 431 00ce 4FF48042 		mov	r2, #16384	@ tmp200,
 432 00d2 1A61     		str	r2, [r3, #16]	@ tmp200, I2cHandle.Init.AddressingMode
 302:Src/main.c    ****   I2cHandle.Init.ClockSpeed      = 400000;
 433              		.loc 1 302 0
 434 00d4 2A4A     		ldr	r2, .L49+28	@ tmp202,
 435 00d6 5A60     		str	r2, [r3, #4]	@ tmp202, I2cHandle.Init.ClockSpeed
 303:Src/main.c    ****   I2cHandle.Init.DualAddressMode = I2C_DUALADDRESS_DISABLE;
 304:Src/main.c    ****   I2cHandle.Init.DutyCycle       = I2C_DUTYCYCLE_2;
 305:Src/main.c    ****   I2cHandle.Init.GeneralCallMode = I2C_GENERALCALL_ENABLE;
 436              		.loc 1 305 0
 437 00d8 4022     		movs	r2, #64	@ tmp208,
 303:Src/main.c    ****   I2cHandle.Init.DualAddressMode = I2C_DUALADDRESS_DISABLE;
 438              		.loc 1 303 0
 439 00da 5861     		str	r0, [r3, #20]	@ tmp196, I2cHandle.Init.DualAddressMode
 304:Src/main.c    ****   I2cHandle.Init.GeneralCallMode = I2C_GENERALCALL_ENABLE;
 440              		.loc 1 304 0
 441 00dc 9860     		str	r0, [r3, #8]	@ tmp196, I2cHandle.Init.DutyCycle
 442              		.loc 1 305 0
 443 00de DA61     		str	r2, [r3, #28]	@ tmp208, I2cHandle.Init.GeneralCallMode
 306:Src/main.c    ****   I2cHandle.Init.NoStretchMode   = I2C_NOSTRETCH_DISABLE;
 444              		.loc 1 306 0
 445 00e0 1862     		str	r0, [r3, #32]	@ tmp196, I2cHandle.Init.NoStretchMode
 307:Src/main.c    ****   I2cHandle.Init.OwnAddress1     = I2C_ADDRESS;
 446              		.loc 1 307 0
 447 00e2 FE22     		movs	r2, #254	@ tmp212,
 308:Src/main.c    ****   I2cHandle.Init.OwnAddress2	 = I2C_ADDRESS;
 309:Src/main.c    **** 
 310:Src/main.c    ****   if(HAL_I2C_Init(&I2cHandle) != HAL_OK)
 448              		.loc 1 310 0
 449 00e4 1846     		mov	r0, r3	@, tmp197
 307:Src/main.c    ****   I2cHandle.Init.OwnAddress1     = I2C_ADDRESS;
 450              		.loc 1 307 0
 451 00e6 DA60     		str	r2, [r3, #12]	@ tmp212, I2cHandle.Init.OwnAddress1
 308:Src/main.c    ****   I2cHandle.Init.OwnAddress2	 = I2C_ADDRESS;
 452              		.loc 1 308 0
 453 00e8 9A61     		str	r2, [r3, #24]	@ tmp212, I2cHandle.Init.OwnAddress2
 454              		.loc 1 310 0
 455 00ea FFF7FEFF 		bl	HAL_I2C_Init	@
 456              	.LVL18:
 457 00ee 0028     		cmp	r0, #0	@ tmp216
 458 00f0 A8D1     		bne	.L39	@
 459              	.LBE28:
 460              	.LBE27:
 461              	.LBB29:
 462              	.LBB30:
 311:Src/main.c    ****   {
 312:Src/main.c    ****     /* Initialization Error */
 313:Src/main.c    ****     Error_Handler();    
 314:Src/main.c    ****   }
 315:Src/main.c    **** 
 316:Src/main.c    **** }
 317:Src/main.c    **** 
 318:Src/main.c    **** /**
 319:Src/main.c    ****   * @brief init USART2
 320:Src/main.c    ****   * @param None
ARM GAS  C:\cygwin\tmp\ccULqaik.s 			page 16


 321:Src/main.c    ****   * @retval None
 322:Src/main.c    ****   */
 323:Src/main.c    **** static void USART_init(void){
 324:Src/main.c    **** 	/*	Configure the USART2 peripheral in the Asynchronous mode (UART Mode)------*/
 325:Src/main.c    **** 	/* UART2 configured as follow:
 326:Src/main.c    ****       - Word Length = 8 Bits
 327:Src/main.c    ****       - Stop Bit = One Stop bit
 328:Src/main.c    ****       - Parity = None
 329:Src/main.c    ****       - BaudRate = 9600 baud
 330:Src/main.c    ****       - Hardware flow control disabled (RTS and CTS signals) */
 331:Src/main.c    **** 	UartHandle.Instance          = USARTx;
 463              		.loc 1 331 0
 464 00f2 244B     		ldr	r3, .L49+32	@ tmp217,
 332:Src/main.c    ****   
 333:Src/main.c    **** 	UartHandle.Init.BaudRate     = 115200;
 465              		.loc 1 333 0
 466 00f4 2449     		ldr	r1, .L49+36	@,
 334:Src/main.c    **** 	UartHandle.Init.WordLength   = UART_WORDLENGTH_8B;
 467              		.loc 1 334 0
 468 00f6 9860     		str	r0, [r3, #8]	@ tmp216, UartHandle.Init.WordLength
 333:Src/main.c    **** 	UartHandle.Init.WordLength   = UART_WORDLENGTH_8B;
 469              		.loc 1 333 0
 470 00f8 4FF4E132 		mov	r2, #115200	@ tmp220,
 471 00fc 83E80600 		stmia	r3, {r1, r2}	@ tmp217,,
 335:Src/main.c    **** 	UartHandle.Init.StopBits     = UART_STOPBITS_1;
 472              		.loc 1 335 0
 473 0100 D860     		str	r0, [r3, #12]	@ tmp216, UartHandle.Init.StopBits
 336:Src/main.c    **** 	UartHandle.Init.Parity       = UART_PARITY_NONE;
 474              		.loc 1 336 0
 475 0102 1861     		str	r0, [r3, #16]	@ tmp216, UartHandle.Init.Parity
 337:Src/main.c    **** 	UartHandle.Init.HwFlowCtl    = UART_HWCONTROL_NONE;
 476              		.loc 1 337 0
 477 0104 9861     		str	r0, [r3, #24]	@ tmp216, UartHandle.Init.HwFlowCtl
 338:Src/main.c    **** 	UartHandle.Init.Mode         = UART_MODE_TX_RX;
 478              		.loc 1 338 0
 479 0106 0C22     		movs	r2, #12	@ tmp230,
 339:Src/main.c    **** 	UartHandle.Init.OverSampling = UART_OVERSAMPLING_16;
 480              		.loc 1 339 0
 481 0108 D861     		str	r0, [r3, #28]	@ tmp216, UartHandle.Init.OverSampling
 340:Src/main.c    ****     
 341:Src/main.c    **** 	if(HAL_UART_Init(&UartHandle) != HAL_OK)
 482              		.loc 1 341 0
 483 010a 1846     		mov	r0, r3	@, tmp217
 338:Src/main.c    **** 	UartHandle.Init.OverSampling = UART_OVERSAMPLING_16;
 484              		.loc 1 338 0
 485 010c 5A61     		str	r2, [r3, #20]	@ tmp230, UartHandle.Init.Mode
 486              		.loc 1 341 0
 487 010e FFF7FEFF 		bl	HAL_UART_Init	@
 488              	.LVL19:
 489 0112 0028     		cmp	r0, #0	@
 490 0114 96D1     		bne	.L39	@
 491              	.LBE30:
 492              	.LBE29:
 493              	.LBB31:
 494              	.LBB32:
 246:Src/main.c    **** 
 495              		.loc 1 246 0
ARM GAS  C:\cygwin\tmp\ccULqaik.s 			page 17


 496 0116 134A     		ldr	r2, .L49	@ tmp235,
 253:Src/main.c    **** }
 497              		.loc 1 253 0
 498 0118 1C48     		ldr	r0, .L49+40	@,
 246:Src/main.c    **** 
 499              		.loc 1 246 0
 500 011a 136B     		ldr	r3, [r2, #48]	@ D.9014, MEM[(struct RCC_TypeDef *)1073887232B].AHB1ENR
 501 011c 43F00803 		orr	r3, r3, #8	@ D.9014, D.9014,
 502 0120 1363     		str	r3, [r2, #48]	@ D.9014, MEM[(struct RCC_TypeDef *)1073887232B].AHB1ENR
 249:Src/main.c    **** 	GPIO_InitStructure.Mode = GPIO_MODE_OUTPUT_PP;
 503              		.loc 1 249 0
 504 0122 4FF44053 		mov	r3, #12288	@ tmp237,
 505 0126 0693     		str	r3, [sp, #24]	@ tmp237, GPIO_InitStructure.Pin
 253:Src/main.c    **** }
 506              		.loc 1 253 0
 507 0128 06A9     		add	r1, sp, #24	@ tmp258,,
 251:Src/main.c    **** 	GPIO_InitStructure.Pull = GPIO_PULLUP;
 508              		.loc 1 251 0
 509 012a 0323     		movs	r3, #3	@ tmp239,
 250:Src/main.c    **** 	GPIO_InitStructure.Speed = GPIO_SPEED_HIGH;
 510              		.loc 1 250 0
 511 012c 0794     		str	r4, [sp, #28]	@ tmp154, GPIO_InitStructure.Mode
 251:Src/main.c    **** 	GPIO_InitStructure.Pull = GPIO_PULLUP;
 512              		.loc 1 251 0
 513 012e 0993     		str	r3, [sp, #36]	@ tmp239, GPIO_InitStructure.Speed
 252:Src/main.c    **** 	HAL_GPIO_Init(GPIOD, &GPIO_InitStructure);
 514              		.loc 1 252 0
 515 0130 0894     		str	r4, [sp, #32]	@ tmp154, GPIO_InitStructure.Pull
 253:Src/main.c    **** }
 516              		.loc 1 253 0
 517 0132 FFF7FEFF 		bl	HAL_GPIO_Init	@
 518              	.LVL20:
 519              	.L42:
 520              	.LBE32:
 521              	.LBE31:
 140:Src/main.c    **** 			
 522              		.loc 1 140 0
 523 0136 164C     		ldr	r4, .L49+44	@ tmp244,
 135:Src/main.c    **** 		
 524              		.loc 1 135 0
 525 0138 1648     		ldr	r0, .L49+48	@,
 526 013a FFF7FEFF 		bl	puts	@
 527              	.LVL21:
 138:Src/main.c    **** 		
 528              		.loc 1 138 0
 529 013e FFF7FEFF 		bl	test_Cplusplus	@
 530              	.LVL22:
 140:Src/main.c    **** 			
 531              		.loc 1 140 0
 532 0142 2378     		ldrb	r3, [r4]	@ zero_extendqisi2	@ gui_Exec, gui_Exec
 533 0144 33B1     		cbz	r3, .L41	@ gui_Exec,
 142:Src/main.c    **** 			
 534              		.loc 1 142 0
 535 0146 144B     		ldr	r3, .L49+52	@ tmp247,
 536 0148 1448     		ldr	r0, .L49+56	@,
 537 014a 1968     		ldr	r1, [r3]	@, SystemCoreClock
 538 014c FFF7FEFF 		bl	printf	@
ARM GAS  C:\cygwin\tmp\ccULqaik.s 			page 18


 539              	.LVL23:
 145:Src/main.c    **** 		}
 540              		.loc 1 145 0
 541 0150 0023     		movs	r3, #0	@ tmp249,
 542 0152 2370     		strb	r3, [r4]	@ tmp249, gui_Exec
 543              	.L41:
 148:Src/main.c    **** 			
 544              		.loc 1 148 0
 545 0154 124B     		ldr	r3, .L49+60	@ tmp251,
 546 0156 1A78     		ldrb	r2, [r3]	@ zero_extendqisi2	@ Touch_Flagged, Touch_Flagged
 547 0158 002A     		cmp	r2, #0	@ Touch_Flagged
 548 015a ECD0     		beq	.L42	@
 150:Src/main.c    **** 		}
 549              		.loc 1 150 0
 550 015c 0022     		movs	r2, #0	@ tmp254,
 551 015e 1A70     		strb	r2, [r3]	@ tmp254, Touch_Flagged
 552 0160 E9E7     		b	.L42	@
 553              	.L50:
 554 0162 00BF     		.align	2
 555              	.L49:
 556 0164 00380240 		.word	1073887232
 557 0168 003C0240 		.word	1073888256
 558 016c 18000000 		.word	.LC1
 559 0170 00000000 		.word	hsram
 560 0174 00000000 		.word	SRAM_Timing
 561 0178 00000000 		.word	I2cHandle
 562 017c 00540040 		.word	1073763328
 563 0180 801A0600 		.word	400000
 564 0184 00000000 		.word	UartHandle
 565 0188 00440040 		.word	1073759232
 566 018c 000C0240 		.word	1073875968
 567 0190 00000000 		.word	gui_Exec
 568 0194 25000000 		.word	.LC2
 569 0198 00000000 		.word	SystemCoreClock
 570 019c 32000000 		.word	.LC3
 571 01a0 00000000 		.word	Touch_Flagged
 572              		.cfi_endproc
 573              	.LFE126:
 574              		.size	main, .-main
 575              		.section	.text.__io_putchar,"ax",%progbits
 576              		.align	1
 577              		.global	__io_putchar
 578              		.thumb
 579              		.thumb_func
 580              		.type	__io_putchar, %function
 581              	__io_putchar:
 582              	.LFB133:
 342:Src/main.c    **** 	{
 343:Src/main.c    **** 		Error_Handler();
 344:Src/main.c    **** 	}
 345:Src/main.c    **** }
 346:Src/main.c    **** 
 347:Src/main.c    **** /******************************************************************************/
 348:Src/main.c    **** 
 349:Src/main.c    **** /**
 350:Src/main.c    ****   * @brief  Retargets the C library printf function to the USART (GNU)
 351:Src/main.c    ****   * @param  None
ARM GAS  C:\cygwin\tmp\ccULqaik.s 			page 19


 352:Src/main.c    ****   * @retval None
 353:Src/main.c    ****   */
 354:Src/main.c    **** int __io_putchar(int ch){
 583              		.loc 1 354 0
 584              		.cfi_startproc
 585              		@ args = 0, pretend = 0, frame = 0
 586              		@ frame_needed = 0, uses_anonymous_args = 0
 587              	.LVL24:
 588 0000 10B5     		push	{r4, lr}	@
 589              		.cfi_def_cfa_offset 8
 590              		.cfi_offset 4, -8
 591              		.cfi_offset 14, -4
 592              		.loc 1 354 0
 593 0002 0446     		mov	r4, r0	@ ch, ch
 355:Src/main.c    ****   /* Place your implementation of fputc here */
 356:Src/main.c    ****   /* e.g. write a character to the USART */
 357:Src/main.c    **** 
 358:Src/main.c    **** 	Debug_ITMDebugOutputChar(ch); // SWV
 594              		.loc 1 358 0
 595 0004 C0B2     		uxtb	r0, r0	@, ch
 596              	.LVL25:
 597 0006 FFF7FEFF 		bl	Debug_ITMDebugOutputChar	@
 598              	.LVL26:
 359:Src/main.c    **** 
 360:Src/main.c    ****   return(ch);
 361:Src/main.c    **** }
 599              		.loc 1 361 0
 600 000a 2046     		mov	r0, r4	@, ch
 601 000c 10BD     		pop	{r4, pc}	@
 602              		.cfi_endproc
 603              	.LFE133:
 604              		.size	__io_putchar, .-__io_putchar
 605              		.section	.text.__io_getchar,"ax",%progbits
 606              		.align	1
 607              		.global	__io_getchar
 608              		.thumb
 609              		.thumb_func
 610              		.type	__io_getchar, %function
 611              	__io_getchar:
 612              	.LFB134:
 362:Src/main.c    **** 
 363:Src/main.c    **** //******************************************************************************
 364:Src/main.c    **** 
 365:Src/main.c    **** /**
 366:Src/main.c    ****   * @brief  Retargets the C library scanf function to the USART (GNU)
 367:Src/main.c    ****   * @param  None
 368:Src/main.c    ****   * @retval None
 369:Src/main.c    ****   */
 370:Src/main.c    **** int __io_getchar(void){
 613              		.loc 1 370 0
 614              		.cfi_startproc
 615              		@ args = 0, pretend = 0, frame = 0
 616              		@ frame_needed = 0, uses_anonymous_args = 0
 617              		@ link register save eliminated.
 371:Src/main.c    ****   /* Place your implementation of fgetc here */
 372:Src/main.c    ****   /* e.g. read a character from the USART */
 373:Src/main.c    **** 
ARM GAS  C:\cygwin\tmp\ccULqaik.s 			page 20


 374:Src/main.c    ****   return((int)-1);
 375:Src/main.c    **** }
 618              		.loc 1 375 0
 619 0000 4FF0FF30 		mov	r0, #-1	@,
 620 0004 7047     		bx	lr	@
 621              		.cfi_endproc
 622              	.LFE134:
 623              		.size	__io_getchar, .-__io_getchar
 624              		.section	.text.assert_failed,"ax",%progbits
 625              		.align	1
 626              		.global	assert_failed
 627              		.thumb
 628              		.thumb_func
 629              		.type	assert_failed, %function
 630              	assert_failed:
 631              	.LFB135:
 376:Src/main.c    **** 
 377:Src/main.c    **** //******************************************************************************
 378:Src/main.c    **** 
 379:Src/main.c    **** #ifdef  USE_FULL_ASSERT
 380:Src/main.c    **** /**
 381:Src/main.c    ****   * @brief  Reports the name of the source file and the source line number
 382:Src/main.c    ****   *         where the assert_param error has occurred.
 383:Src/main.c    ****   * @param  file: pointer to the source file name
 384:Src/main.c    ****   * @param  line: assert_param error line source number
 385:Src/main.c    ****   * @retval None
 386:Src/main.c    ****   */
 387:Src/main.c    **** void assert_failed(uint8_t* file, uint32_t line){
 632              		.loc 1 387 0
 633              		.cfi_startproc
 634              		@ Volatile: function does not return.
 635              		@ args = 0, pretend = 0, frame = 0
 636              		@ frame_needed = 0, uses_anonymous_args = 0
 637              	.LVL27:
 638 0000 08B5     		push	{r3, lr}	@
 639              		.cfi_def_cfa_offset 8
 640              		.cfi_offset 3, -8
 641              		.cfi_offset 14, -4
 642              		.loc 1 387 0
 643 0002 0346     		mov	r3, r0	@ file, file
 644 0004 0A46     		mov	r2, r1	@ line, line
 388:Src/main.c    ****   printf("Wrong parameters value: file %s on line %d\r\n", file, line);
 645              		.loc 1 388 0
 646 0006 0248     		ldr	r0, .L55	@,
 647              	.LVL28:
 648 0008 1946     		mov	r1, r3	@, file
 649              	.LVL29:
 650 000a FFF7FEFF 		bl	printf	@
 651              	.LVL30:
 652              	.L54:
 389:Src/main.c    **** 
 390:Src/main.c    ****   while(1); /* Infinite loop */
 653              		.loc 1 390 0 discriminator 1
 654 000e FEE7     		b	.L54	@
 655              	.L56:
 656              		.align	2
 657              	.L55:
ARM GAS  C:\cygwin\tmp\ccULqaik.s 			page 21


 658 0010 47000000 		.word	.LC4
 659              		.cfi_endproc
 660              	.LFE135:
 661              		.size	assert_failed, .-assert_failed
 662              		.comm	UartHandle,64,4
 663              		.comm	I2cHandle,60,4
 664              		.comm	SRAM_Timing,28,4
 665              		.comm	hsram,68,4
 666              		.section	.rodata.str1.1,"aMS",%progbits,1
 667              	.LC0:
 668 0000 50657269 		.ascii	"Peripheral config error\000"
 668      70686572 
 668      616C2063 
 668      6F6E6669 
 668      67206572 
 669              	.LC1:
 670 0018 53575620 		.ascii	"SWV Enabled\012\000"
 670      456E6162 
 670      6C65640A 
 670      00
 671              	.LC2:
 672 0025 436F6D70 		.ascii	"Compiled HAL\000"
 672      696C6564 
 672      2048414C 
 672      00
 673              	.LC3:
 674 0032 53797374 		.ascii	"SystemCoreClock: %d\012\000"
 674      656D436F 
 674      7265436C 
 674      6F636B3A 
 674      2025640A 
 675              	.LC4:
 676 0047 57726F6E 		.ascii	"Wrong parameters value: file %s on line %d\015\012\000"
 676      67207061 
 676      72616D65 
 676      74657273 
 676      2076616C 
 677              		.section	.bss.Debug_ITMDebug,"aw",%nobits
 678              		.align	2
 679              		.set	.LANCHOR0,. + 0
 680              		.type	Debug_ITMDebug, %object
 681              		.size	Debug_ITMDebug, 4
 682              	Debug_ITMDebug:
 683 0000 00000000 		.space	4
 684              		.text
 685              	.Letext0:
 686              		.file 2 "c:\\program files\\gcc-arm-none-eabi-4_9-2014\\arm-none-eabi\\include\\machine\\_default_
 687              		.file 3 "c:\\program files\\gcc-arm-none-eabi-4_9-2014\\arm-none-eabi\\include\\stdint.h"
 688              		.file 4 "../STM32Cube_FW_F4_V1.4.0/Drivers/CMSIS/Device/ST/STM32F4xx/Include/stm32f407xx.h"
 689              		.file 5 "../STM32Cube_FW_F4_V1.4.0/Drivers/STM32F4xx_HAL_Driver/Inc/stm32f4xx_hal_def.h"
 690              		.file 6 "../STM32Cube_FW_F4_V1.4.0/Drivers/STM32F4xx_HAL_Driver/Inc/stm32f4xx_hal_rcc.h"
 691              		.file 7 "../STM32Cube_FW_F4_V1.4.0/Drivers/STM32F4xx_HAL_Driver/Inc/stm32f4xx_hal_gpio.h"
 692              		.file 8 "../STM32Cube_FW_F4_V1.4.0/Drivers/STM32F4xx_HAL_Driver/Inc/stm32f4xx_hal_dma.h"
 693              		.file 9 "../STM32Cube_FW_F4_V1.4.0/Drivers/STM32F4xx_HAL_Driver/Inc/stm32f4xx_ll_fsmc.h"
 694              		.file 10 "../STM32Cube_FW_F4_V1.4.0/Drivers/STM32F4xx_HAL_Driver/Inc/stm32f4xx_hal_sram.h"
 695              		.file 11 "../STM32Cube_FW_F4_V1.4.0/Drivers/STM32F4xx_HAL_Driver/Inc/stm32f4xx_hal_i2c.h"
 696              		.file 12 "../STM32Cube_FW_F4_V1.4.0/Drivers/STM32F4xx_HAL_Driver/Inc/stm32f4xx_hal_uart.h"
ARM GAS  C:\cygwin\tmp\ccULqaik.s 			page 22


 697              		.file 13 "../STM32Cube_FW_F4_V1.4.0/Drivers/CMSIS/Include/core_cm4.h"
 698              		.file 14 "../STM32Cube_FW_F4_V1.4.0/Drivers/CMSIS/Device/ST/STM32F4xx/Include/system_stm32f4xx.h"
 699              		.file 15 "Inc/stm32f4xx_it.h"
 700              		.file 16 "../STM32Cube_FW_F4_V1.4.0/Drivers/STM32F4xx_HAL_Driver/Inc/stm32f4xx_hal.h"
 701              		.file 17 "Inc/main.h"
 702              		.file 18 "c:\\program files\\gcc-arm-none-eabi-4_9-2014\\arm-none-eabi\\include\\stdio.h"
 703              		.file 19 "<built-in>"