ARM GAS  C:\cygwin\tmp\cc1Jaa0f.s 			page 1


   1              		.syntax unified
   2              		.cpu cortex-m4
   3              		.fpu softvfp
   4              		.eabi_attribute 20, 1	@ Tag_ABI_FP_denormal
   5              		.eabi_attribute 21, 1	@ Tag_ABI_FP_exceptions
   6              		.eabi_attribute 23, 3	@ Tag_ABI_FP_number_model
   7              		.eabi_attribute 24, 1	@ Tag_ABI_align8_needed
   8              		.eabi_attribute 25, 1	@ Tag_ABI_align8_preserved
   9              		.eabi_attribute 26, 1	@ Tag_ABI_enum_size
  10              		.eabi_attribute 30, 4	@ Tag_ABI_optimization_goals
  11              		.eabi_attribute 34, 1	@ Tag_CPU_unaligned_access
  12              		.eabi_attribute 18, 4	@ Tag_ABI_PCS_wchar_t
  13              		.file	"stm32f4xx_hal_dma.c"
  14              	@ GNU C (GNU Tools for ARM Embedded Processors) version 4.9.3 20141119 (release) [ARM/embedded-4_9-
  15              	@	compiled by GNU C version 4.7.4, GMP version 4.3.2, MPFR version 2.4.2, MPC version 0.8.1
  16              	@ GGC heuristics: --param ggc-min-expand=100 --param ggc-min-heapsize=131072
  17              	@ options passed:  -I . -I Inc
  18              	@ -I ../STM32Cube_FW_F4_V1.4.0/Drivers/CMSIS/Include
  19              	@ -I ../STM32Cube_FW_F4_V1.4.0/Drivers/CMSIS/Device/ST/STM32F4xx/Include
  20              	@ -I ../STM32Cube_FW_F4_V1.4.0/Drivers/STM32F4xx_HAL_Driver/Inc
  21              	@ -I ../STM32Cube_FW_F4_V1.4.0/Drivers/CMSIS/Include -imultilib armv7e-m
  22              	@ -iprefix c:\program files\gcc-arm-none-eabi-4_9-2014\bin\../lib/gcc/arm-none-eabi/4.9.3/
  23              	@ -isysroot c:\program files\gcc-arm-none-eabi-4_9-2014\bin\../arm-none-eabi
  24              	@ -MD out/stm32f4xx_hal_dma.d -MF out/stm32f4xx_hal_dma.d -MP
  25              	@ -MQ out/stm32f4xx_hal_dma.o -D__USES_INITFINI__ -D USE_HAL_DRIVER
  26              	@ -D STM32F4XX -D HSE_VALUE=8000000 -D __STARTUP_CLEAR_BSS -D STM32F411RE
  27              	@ -D USE_FULL_ASSERT -D __FPU_USED
  28              	@ ../STM32Cube_FW_F4_V1.4.0/Drivers/STM32F4xx_HAL_Driver/Src/stm32f4xx_hal_dma.c
  29              	@ -mcpu=cortex-m4 -mthumb -auxbase-strip out/stm32f4xx_hal_dma.o -g -ggdb3
  30              	@ -Os -Os -Wall -Wstrict-prototypes -Wextra -std=gnu90 -ffunction-sections
  31              	@ -fdata-sections -fverbose-asm
  32              	@ options enabled:  -faggressive-loop-optimizations -fauto-inc-dec
  33              	@ -fbranch-count-reg -fcaller-saves -fcombine-stack-adjustments -fcommon
  34              	@ -fcompare-elim -fcprop-registers -fcrossjumping -fcse-follow-jumps
  35              	@ -fdata-sections -fdefer-pop -fdelete-null-pointer-checks -fdevirtualize
  36              	@ -fdevirtualize-speculatively -fdwarf2-cfi-asm -fearly-inlining
  37              	@ -feliminate-unused-debug-types -fexpensive-optimizations
  38              	@ -fforward-propagate -ffunction-cse -ffunction-sections -fgcse -fgcse-lm
  39              	@ -fgnu-runtime -fgnu-unique -fguess-branch-probability
  40              	@ -fhoist-adjacent-loads -fident -fif-conversion -fif-conversion2
  41              	@ -findirect-inlining -finline -finline-atomics -finline-functions
  42              	@ -finline-functions-called-once -finline-small-functions -fipa-cp
  43              	@ -fipa-profile -fipa-pure-const -fipa-reference -fipa-sra
  44              	@ -fira-hoist-pressure -fira-share-save-slots -fira-share-spill-slots
  45              	@ -fisolate-erroneous-paths-dereference -fivopts -fkeep-static-consts
  46              	@ -fleading-underscore -fmath-errno -fmerge-constants -fmerge-debug-strings
  47              	@ -fomit-frame-pointer -foptimize-sibling-calls -fpartial-inlining
  48              	@ -fpeephole -fpeephole2 -fprefetch-loop-arrays -freg-struct-return
  49              	@ -freorder-blocks -freorder-functions -frerun-cse-after-loop
  50              	@ -fsched-critical-path-heuristic -fsched-dep-count-heuristic
  51              	@ -fsched-group-heuristic -fsched-interblock -fsched-last-insn-heuristic
  52              	@ -fsched-pressure -fsched-rank-heuristic -fsched-spec
  53              	@ -fsched-spec-insn-heuristic -fsched-stalled-insns-dep -fschedule-insns2
  54              	@ -fsection-anchors -fshow-column -fsigned-zeros -fsplit-ivs-in-unroller
  55              	@ -fsplit-wide-types -fstrict-aliasing -fstrict-overflow
  56              	@ -fstrict-volatile-bitfields -fsync-libcalls -fthread-jumps
  57              	@ -ftoplevel-reorder -ftrapping-math -ftree-bit-ccp -ftree-builtin-call-dce
ARM GAS  C:\cygwin\tmp\cc1Jaa0f.s 			page 2


  58              	@ -ftree-ccp -ftree-ch -ftree-coalesce-vars -ftree-copy-prop
  59              	@ -ftree-copyrename -ftree-cselim -ftree-dce -ftree-dominator-opts
  60              	@ -ftree-dse -ftree-forwprop -ftree-fre -ftree-loop-if-convert
  61              	@ -ftree-loop-im -ftree-loop-ivcanon -ftree-loop-optimize
  62              	@ -ftree-parallelize-loops= -ftree-phiprop -ftree-pre -ftree-pta
  63              	@ -ftree-reassoc -ftree-scev-cprop -ftree-sink -ftree-slsr -ftree-sra
  64              	@ -ftree-switch-conversion -ftree-tail-merge -ftree-ter -ftree-vrp
  65              	@ -funit-at-a-time -fvar-tracking -fvar-tracking-assignments -fverbose-asm
  66              	@ -fzero-initialized-in-bss -mlittle-endian -mlra
  67              	@ -mpic-data-is-text-relative -msched-prolog -mthumb -munaligned-access
  68              	@ -mvectorize-with-neon-quad
  69              	
  70              		.text
  71              	.Ltext0:
  72              		.cfi_sections	.debug_frame
  73              		.section	.text.HAL_DMA_Init,"ax",%progbits
  74              		.align	1
  75              		.global	HAL_DMA_Init
  76              		.thumb
  77              		.thumb_func
  78              		.type	HAL_DMA_Init, %function
  79              	HAL_DMA_Init:
  80              	.LFB123:
  81              		.file 1 "../STM32Cube_FW_F4_V1.4.0/Drivers/STM32F4xx_HAL_Driver/Src/stm32f4xx_hal_dma.c"
   1:../STM32Cube_FW_F4_V1.4.0/Drivers/STM32F4xx_HAL_Driver/Src/stm32f4xx_hal_dma.c **** /**
   2:../STM32Cube_FW_F4_V1.4.0/Drivers/STM32F4xx_HAL_Driver/Src/stm32f4xx_hal_dma.c ****   ******************************************************************************
   3:../STM32Cube_FW_F4_V1.4.0/Drivers/STM32F4xx_HAL_Driver/Src/stm32f4xx_hal_dma.c ****   * @file    stm32f4xx_hal_dma.c
   4:../STM32Cube_FW_F4_V1.4.0/Drivers/STM32F4xx_HAL_Driver/Src/stm32f4xx_hal_dma.c ****   * @author  MCD Application Team
   5:../STM32Cube_FW_F4_V1.4.0/Drivers/STM32F4xx_HAL_Driver/Src/stm32f4xx_hal_dma.c ****   * @version V1.2.0
   6:../STM32Cube_FW_F4_V1.4.0/Drivers/STM32F4xx_HAL_Driver/Src/stm32f4xx_hal_dma.c ****   * @date    26-December-2014
   7:../STM32Cube_FW_F4_V1.4.0/Drivers/STM32F4xx_HAL_Driver/Src/stm32f4xx_hal_dma.c ****   * @brief   DMA HAL module driver.
   8:../STM32Cube_FW_F4_V1.4.0/Drivers/STM32F4xx_HAL_Driver/Src/stm32f4xx_hal_dma.c ****   *    
   9:../STM32Cube_FW_F4_V1.4.0/Drivers/STM32F4xx_HAL_Driver/Src/stm32f4xx_hal_dma.c ****   *          This file provides firmware functions to manage the following 
  10:../STM32Cube_FW_F4_V1.4.0/Drivers/STM32F4xx_HAL_Driver/Src/stm32f4xx_hal_dma.c ****   *          functionalities of the Direct Memory Access (DMA) peripheral:
  11:../STM32Cube_FW_F4_V1.4.0/Drivers/STM32F4xx_HAL_Driver/Src/stm32f4xx_hal_dma.c ****   *           + Initialization and de-initialization functions
  12:../STM32Cube_FW_F4_V1.4.0/Drivers/STM32F4xx_HAL_Driver/Src/stm32f4xx_hal_dma.c ****   *           + IO operation functions
  13:../STM32Cube_FW_F4_V1.4.0/Drivers/STM32F4xx_HAL_Driver/Src/stm32f4xx_hal_dma.c ****   *           + Peripheral State and errors functions
  14:../STM32Cube_FW_F4_V1.4.0/Drivers/STM32F4xx_HAL_Driver/Src/stm32f4xx_hal_dma.c ****   @verbatim     
  15:../STM32Cube_FW_F4_V1.4.0/Drivers/STM32F4xx_HAL_Driver/Src/stm32f4xx_hal_dma.c ****   ==============================================================================      
  16:../STM32Cube_FW_F4_V1.4.0/Drivers/STM32F4xx_HAL_Driver/Src/stm32f4xx_hal_dma.c ****                         ##### How to use this driver #####
  17:../STM32Cube_FW_F4_V1.4.0/Drivers/STM32F4xx_HAL_Driver/Src/stm32f4xx_hal_dma.c ****   ============================================================================== 
  18:../STM32Cube_FW_F4_V1.4.0/Drivers/STM32F4xx_HAL_Driver/Src/stm32f4xx_hal_dma.c ****   [..]
  19:../STM32Cube_FW_F4_V1.4.0/Drivers/STM32F4xx_HAL_Driver/Src/stm32f4xx_hal_dma.c ****    (#) Enable and configure the peripheral to be connected to the DMA Stream
  20:../STM32Cube_FW_F4_V1.4.0/Drivers/STM32F4xx_HAL_Driver/Src/stm32f4xx_hal_dma.c ****        (except for internal SRAM/FLASH memories: no initialization is 
  21:../STM32Cube_FW_F4_V1.4.0/Drivers/STM32F4xx_HAL_Driver/Src/stm32f4xx_hal_dma.c ****        necessary) please refer to Reference manual for connection between peripherals
  22:../STM32Cube_FW_F4_V1.4.0/Drivers/STM32F4xx_HAL_Driver/Src/stm32f4xx_hal_dma.c ****        and DMA requests . 
  23:../STM32Cube_FW_F4_V1.4.0/Drivers/STM32F4xx_HAL_Driver/Src/stm32f4xx_hal_dma.c ****           
  24:../STM32Cube_FW_F4_V1.4.0/Drivers/STM32F4xx_HAL_Driver/Src/stm32f4xx_hal_dma.c ****    (#) For a given Stream, program the required configuration through the following parameters:   
  25:../STM32Cube_FW_F4_V1.4.0/Drivers/STM32F4xx_HAL_Driver/Src/stm32f4xx_hal_dma.c ****        Transfer Direction, Source and Destination data formats, 
  26:../STM32Cube_FW_F4_V1.4.0/Drivers/STM32F4xx_HAL_Driver/Src/stm32f4xx_hal_dma.c ****        Circular, Normal or peripheral flow control mode, Stream Priority level, 
  27:../STM32Cube_FW_F4_V1.4.0/Drivers/STM32F4xx_HAL_Driver/Src/stm32f4xx_hal_dma.c ****        Source and Destination Increment mode, FIFO mode and its Threshold (if needed), 
  28:../STM32Cube_FW_F4_V1.4.0/Drivers/STM32F4xx_HAL_Driver/Src/stm32f4xx_hal_dma.c ****        Burst mode for Source and/or Destination (if needed) using HAL_DMA_Init() function.
  29:../STM32Cube_FW_F4_V1.4.0/Drivers/STM32F4xx_HAL_Driver/Src/stm32f4xx_hal_dma.c ****                      
  30:../STM32Cube_FW_F4_V1.4.0/Drivers/STM32F4xx_HAL_Driver/Src/stm32f4xx_hal_dma.c ****      *** Polling mode IO operation ***
  31:../STM32Cube_FW_F4_V1.4.0/Drivers/STM32F4xx_HAL_Driver/Src/stm32f4xx_hal_dma.c ****      =================================   
  32:../STM32Cube_FW_F4_V1.4.0/Drivers/STM32F4xx_HAL_Driver/Src/stm32f4xx_hal_dma.c ****     [..] 
  33:../STM32Cube_FW_F4_V1.4.0/Drivers/STM32F4xx_HAL_Driver/Src/stm32f4xx_hal_dma.c ****           (+) Use HAL_DMA_Start() to start DMA transfer after the configuration of Source 
ARM GAS  C:\cygwin\tmp\cc1Jaa0f.s 			page 3


  34:../STM32Cube_FW_F4_V1.4.0/Drivers/STM32F4xx_HAL_Driver/Src/stm32f4xx_hal_dma.c ****               address and destination address and the Length of data to be transferred
  35:../STM32Cube_FW_F4_V1.4.0/Drivers/STM32F4xx_HAL_Driver/Src/stm32f4xx_hal_dma.c ****           (+) Use HAL_DMA_PollForTransfer() to poll for the end of current transfer, in this  
  36:../STM32Cube_FW_F4_V1.4.0/Drivers/STM32F4xx_HAL_Driver/Src/stm32f4xx_hal_dma.c ****               case a fixed Timeout can be configured by User depending from his application.
  37:../STM32Cube_FW_F4_V1.4.0/Drivers/STM32F4xx_HAL_Driver/Src/stm32f4xx_hal_dma.c ****                
  38:../STM32Cube_FW_F4_V1.4.0/Drivers/STM32F4xx_HAL_Driver/Src/stm32f4xx_hal_dma.c ****      *** Interrupt mode IO operation ***    
  39:../STM32Cube_FW_F4_V1.4.0/Drivers/STM32F4xx_HAL_Driver/Src/stm32f4xx_hal_dma.c ****      =================================== 
  40:../STM32Cube_FW_F4_V1.4.0/Drivers/STM32F4xx_HAL_Driver/Src/stm32f4xx_hal_dma.c ****     [..]     
  41:../STM32Cube_FW_F4_V1.4.0/Drivers/STM32F4xx_HAL_Driver/Src/stm32f4xx_hal_dma.c ****           (+) Configure the DMA interrupt priority using HAL_NVIC_SetPriority()
  42:../STM32Cube_FW_F4_V1.4.0/Drivers/STM32F4xx_HAL_Driver/Src/stm32f4xx_hal_dma.c ****           (+) Enable the DMA IRQ handler using HAL_NVIC_EnableIRQ() 
  43:../STM32Cube_FW_F4_V1.4.0/Drivers/STM32F4xx_HAL_Driver/Src/stm32f4xx_hal_dma.c ****           (+) Use HAL_DMA_Start_IT() to start DMA transfer after the configuration of  
  44:../STM32Cube_FW_F4_V1.4.0/Drivers/STM32F4xx_HAL_Driver/Src/stm32f4xx_hal_dma.c ****               Source address and destination address and the Length of data to be transferred. In t
  45:../STM32Cube_FW_F4_V1.4.0/Drivers/STM32F4xx_HAL_Driver/Src/stm32f4xx_hal_dma.c ****               case the DMA interrupt is configured 
  46:../STM32Cube_FW_F4_V1.4.0/Drivers/STM32F4xx_HAL_Driver/Src/stm32f4xx_hal_dma.c ****           (+) Use HAL_DMA_IRQHandler() called under DMA_IRQHandler() Interrupt subroutine
  47:../STM32Cube_FW_F4_V1.4.0/Drivers/STM32F4xx_HAL_Driver/Src/stm32f4xx_hal_dma.c ****           (+) At the end of data transfer HAL_DMA_IRQHandler() function is executed and user can 
  48:../STM32Cube_FW_F4_V1.4.0/Drivers/STM32F4xx_HAL_Driver/Src/stm32f4xx_hal_dma.c ****               add his own function by customization of function pointer XferCpltCallback and 
  49:../STM32Cube_FW_F4_V1.4.0/Drivers/STM32F4xx_HAL_Driver/Src/stm32f4xx_hal_dma.c ****               XferErrorCallback (i.e a member of DMA handle structure). 
  50:../STM32Cube_FW_F4_V1.4.0/Drivers/STM32F4xx_HAL_Driver/Src/stm32f4xx_hal_dma.c ****     [..]                
  51:../STM32Cube_FW_F4_V1.4.0/Drivers/STM32F4xx_HAL_Driver/Src/stm32f4xx_hal_dma.c ****      (#) Use HAL_DMA_GetState() function to return the DMA state and HAL_DMA_GetError() in case of 
  52:../STM32Cube_FW_F4_V1.4.0/Drivers/STM32F4xx_HAL_Driver/Src/stm32f4xx_hal_dma.c ****          detection.
  53:../STM32Cube_FW_F4_V1.4.0/Drivers/STM32F4xx_HAL_Driver/Src/stm32f4xx_hal_dma.c ****          
  54:../STM32Cube_FW_F4_V1.4.0/Drivers/STM32F4xx_HAL_Driver/Src/stm32f4xx_hal_dma.c ****      (#) Use HAL_DMA_Abort() function to abort the current transfer
  55:../STM32Cube_FW_F4_V1.4.0/Drivers/STM32F4xx_HAL_Driver/Src/stm32f4xx_hal_dma.c ****      
  56:../STM32Cube_FW_F4_V1.4.0/Drivers/STM32F4xx_HAL_Driver/Src/stm32f4xx_hal_dma.c ****      -@-   In Memory-to-Memory transfer mode, Circular mode is not allowed.
  57:../STM32Cube_FW_F4_V1.4.0/Drivers/STM32F4xx_HAL_Driver/Src/stm32f4xx_hal_dma.c ****     
  58:../STM32Cube_FW_F4_V1.4.0/Drivers/STM32F4xx_HAL_Driver/Src/stm32f4xx_hal_dma.c ****      -@-   The FIFO is used mainly to reduce bus usage and to allow data packing/unpacking: it is
  59:../STM32Cube_FW_F4_V1.4.0/Drivers/STM32F4xx_HAL_Driver/Src/stm32f4xx_hal_dma.c ****            possible to set different Data Sizes for the Peripheral and the Memory (ie. you can set
  60:../STM32Cube_FW_F4_V1.4.0/Drivers/STM32F4xx_HAL_Driver/Src/stm32f4xx_hal_dma.c ****            Half-Word data size for the peripheral to access its data register and set Word data siz
  61:../STM32Cube_FW_F4_V1.4.0/Drivers/STM32F4xx_HAL_Driver/Src/stm32f4xx_hal_dma.c ****            for the Memory to gain in access time. Each two half words will be packed and written in
  62:../STM32Cube_FW_F4_V1.4.0/Drivers/STM32F4xx_HAL_Driver/Src/stm32f4xx_hal_dma.c ****            a single access to a Word in the Memory).
  63:../STM32Cube_FW_F4_V1.4.0/Drivers/STM32F4xx_HAL_Driver/Src/stm32f4xx_hal_dma.c ****       
  64:../STM32Cube_FW_F4_V1.4.0/Drivers/STM32F4xx_HAL_Driver/Src/stm32f4xx_hal_dma.c ****      -@-   When FIFO is disabled, it is not allowed to configure different Data Sizes for Source
  65:../STM32Cube_FW_F4_V1.4.0/Drivers/STM32F4xx_HAL_Driver/Src/stm32f4xx_hal_dma.c ****            and Destination. In this case the Peripheral Data Size will be applied to both Source
  66:../STM32Cube_FW_F4_V1.4.0/Drivers/STM32F4xx_HAL_Driver/Src/stm32f4xx_hal_dma.c ****            and Destination.               
  67:../STM32Cube_FW_F4_V1.4.0/Drivers/STM32F4xx_HAL_Driver/Src/stm32f4xx_hal_dma.c ****   
  68:../STM32Cube_FW_F4_V1.4.0/Drivers/STM32F4xx_HAL_Driver/Src/stm32f4xx_hal_dma.c ****      *** DMA HAL driver macros list ***
  69:../STM32Cube_FW_F4_V1.4.0/Drivers/STM32F4xx_HAL_Driver/Src/stm32f4xx_hal_dma.c ****      ============================================= 
  70:../STM32Cube_FW_F4_V1.4.0/Drivers/STM32F4xx_HAL_Driver/Src/stm32f4xx_hal_dma.c ****      [..]
  71:../STM32Cube_FW_F4_V1.4.0/Drivers/STM32F4xx_HAL_Driver/Src/stm32f4xx_hal_dma.c ****        Below the list of most used macros in DMA HAL driver.
  72:../STM32Cube_FW_F4_V1.4.0/Drivers/STM32F4xx_HAL_Driver/Src/stm32f4xx_hal_dma.c ****        
  73:../STM32Cube_FW_F4_V1.4.0/Drivers/STM32F4xx_HAL_Driver/Src/stm32f4xx_hal_dma.c ****       (+) __HAL_DMA_ENABLE: Enable the specified DMA Stream.
  74:../STM32Cube_FW_F4_V1.4.0/Drivers/STM32F4xx_HAL_Driver/Src/stm32f4xx_hal_dma.c ****       (+) __HAL_DMA_DISABLE: Disable the specified DMA Stream.
  75:../STM32Cube_FW_F4_V1.4.0/Drivers/STM32F4xx_HAL_Driver/Src/stm32f4xx_hal_dma.c ****       (+) __HAL_DMA_GET_FS: Return the current DMA Stream FIFO filled level.
  76:../STM32Cube_FW_F4_V1.4.0/Drivers/STM32F4xx_HAL_Driver/Src/stm32f4xx_hal_dma.c ****       (+) __HAL_DMA_GET_FLAG: Get the DMA Stream pending flags.
  77:../STM32Cube_FW_F4_V1.4.0/Drivers/STM32F4xx_HAL_Driver/Src/stm32f4xx_hal_dma.c ****       (+) __HAL_DMA_CLEAR_FLAG: Clear the DMA Stream pending flags.
  78:../STM32Cube_FW_F4_V1.4.0/Drivers/STM32F4xx_HAL_Driver/Src/stm32f4xx_hal_dma.c ****       (+) __HAL_DMA_ENABLE_IT: Enable the specified DMA Stream interrupts.
  79:../STM32Cube_FW_F4_V1.4.0/Drivers/STM32F4xx_HAL_Driver/Src/stm32f4xx_hal_dma.c ****       (+) __HAL_DMA_DISABLE_IT: Disable the specified DMA Stream interrupts.
  80:../STM32Cube_FW_F4_V1.4.0/Drivers/STM32F4xx_HAL_Driver/Src/stm32f4xx_hal_dma.c ****       (+) __HAL_DMA_GET_IT_SOURCE: Check whether the specified DMA Stream interrupt has occurred or
  81:../STM32Cube_FW_F4_V1.4.0/Drivers/STM32F4xx_HAL_Driver/Src/stm32f4xx_hal_dma.c ****      
  82:../STM32Cube_FW_F4_V1.4.0/Drivers/STM32F4xx_HAL_Driver/Src/stm32f4xx_hal_dma.c ****      [..] 
  83:../STM32Cube_FW_F4_V1.4.0/Drivers/STM32F4xx_HAL_Driver/Src/stm32f4xx_hal_dma.c ****       (@) You can refer to the DMA HAL driver header file for more useful macros  
  84:../STM32Cube_FW_F4_V1.4.0/Drivers/STM32F4xx_HAL_Driver/Src/stm32f4xx_hal_dma.c ****   
  85:../STM32Cube_FW_F4_V1.4.0/Drivers/STM32F4xx_HAL_Driver/Src/stm32f4xx_hal_dma.c ****   @endverbatim
  86:../STM32Cube_FW_F4_V1.4.0/Drivers/STM32F4xx_HAL_Driver/Src/stm32f4xx_hal_dma.c ****   ******************************************************************************
  87:../STM32Cube_FW_F4_V1.4.0/Drivers/STM32F4xx_HAL_Driver/Src/stm32f4xx_hal_dma.c ****   * @attention
  88:../STM32Cube_FW_F4_V1.4.0/Drivers/STM32F4xx_HAL_Driver/Src/stm32f4xx_hal_dma.c ****   *
  89:../STM32Cube_FW_F4_V1.4.0/Drivers/STM32F4xx_HAL_Driver/Src/stm32f4xx_hal_dma.c ****   * <h2><center>&copy; COPYRIGHT(c) 2014 STMicroelectronics</center></h2>
  90:../STM32Cube_FW_F4_V1.4.0/Drivers/STM32F4xx_HAL_Driver/Src/stm32f4xx_hal_dma.c ****   *
ARM GAS  C:\cygwin\tmp\cc1Jaa0f.s 			page 4


  91:../STM32Cube_FW_F4_V1.4.0/Drivers/STM32F4xx_HAL_Driver/Src/stm32f4xx_hal_dma.c ****   * Redistribution and use in source and binary forms, with or without modification,
  92:../STM32Cube_FW_F4_V1.4.0/Drivers/STM32F4xx_HAL_Driver/Src/stm32f4xx_hal_dma.c ****   * are permitted provided that the following conditions are met:
  93:../STM32Cube_FW_F4_V1.4.0/Drivers/STM32F4xx_HAL_Driver/Src/stm32f4xx_hal_dma.c ****   *   1. Redistributions of source code must retain the above copyright notice,
  94:../STM32Cube_FW_F4_V1.4.0/Drivers/STM32F4xx_HAL_Driver/Src/stm32f4xx_hal_dma.c ****   *      this list of conditions and the following disclaimer.
  95:../STM32Cube_FW_F4_V1.4.0/Drivers/STM32F4xx_HAL_Driver/Src/stm32f4xx_hal_dma.c ****   *   2. Redistributions in binary form must reproduce the above copyright notice,
  96:../STM32Cube_FW_F4_V1.4.0/Drivers/STM32F4xx_HAL_Driver/Src/stm32f4xx_hal_dma.c ****   *      this list of conditions and the following disclaimer in the documentation
  97:../STM32Cube_FW_F4_V1.4.0/Drivers/STM32F4xx_HAL_Driver/Src/stm32f4xx_hal_dma.c ****   *      and/or other materials provided with the distribution.
  98:../STM32Cube_FW_F4_V1.4.0/Drivers/STM32F4xx_HAL_Driver/Src/stm32f4xx_hal_dma.c ****   *   3. Neither the name of STMicroelectronics nor the names of its contributors
  99:../STM32Cube_FW_F4_V1.4.0/Drivers/STM32F4xx_HAL_Driver/Src/stm32f4xx_hal_dma.c ****   *      may be used to endorse or promote products derived from this software
 100:../STM32Cube_FW_F4_V1.4.0/Drivers/STM32F4xx_HAL_Driver/Src/stm32f4xx_hal_dma.c ****   *      without specific prior written permission.
 101:../STM32Cube_FW_F4_V1.4.0/Drivers/STM32F4xx_HAL_Driver/Src/stm32f4xx_hal_dma.c ****   *
 102:../STM32Cube_FW_F4_V1.4.0/Drivers/STM32F4xx_HAL_Driver/Src/stm32f4xx_hal_dma.c ****   * THIS SOFTWARE IS PROVIDED BY THE COPYRIGHT HOLDERS AND CONTRIBUTORS "AS IS"
 103:../STM32Cube_FW_F4_V1.4.0/Drivers/STM32F4xx_HAL_Driver/Src/stm32f4xx_hal_dma.c ****   * AND ANY EXPRESS OR IMPLIED WARRANTIES, INCLUDING, BUT NOT LIMITED TO, THE
 104:../STM32Cube_FW_F4_V1.4.0/Drivers/STM32F4xx_HAL_Driver/Src/stm32f4xx_hal_dma.c ****   * IMPLIED WARRANTIES OF MERCHANTABILITY AND FITNESS FOR A PARTICULAR PURPOSE ARE
 105:../STM32Cube_FW_F4_V1.4.0/Drivers/STM32F4xx_HAL_Driver/Src/stm32f4xx_hal_dma.c ****   * DISCLAIMED. IN NO EVENT SHALL THE COPYRIGHT HOLDER OR CONTRIBUTORS BE LIABLE
 106:../STM32Cube_FW_F4_V1.4.0/Drivers/STM32F4xx_HAL_Driver/Src/stm32f4xx_hal_dma.c ****   * FOR ANY DIRECT, INDIRECT, INCIDENTAL, SPECIAL, EXEMPLARY, OR CONSEQUENTIAL
 107:../STM32Cube_FW_F4_V1.4.0/Drivers/STM32F4xx_HAL_Driver/Src/stm32f4xx_hal_dma.c ****   * DAMAGES (INCLUDING, BUT NOT LIMITED TO, PROCUREMENT OF SUBSTITUTE GOODS OR
 108:../STM32Cube_FW_F4_V1.4.0/Drivers/STM32F4xx_HAL_Driver/Src/stm32f4xx_hal_dma.c ****   * SERVICES; LOSS OF USE, DATA, OR PROFITS; OR BUSINESS INTERRUPTION) HOWEVER
 109:../STM32Cube_FW_F4_V1.4.0/Drivers/STM32F4xx_HAL_Driver/Src/stm32f4xx_hal_dma.c ****   * CAUSED AND ON ANY THEORY OF LIABILITY, WHETHER IN CONTRACT, STRICT LIABILITY,
 110:../STM32Cube_FW_F4_V1.4.0/Drivers/STM32F4xx_HAL_Driver/Src/stm32f4xx_hal_dma.c ****   * OR TORT (INCLUDING NEGLIGENCE OR OTHERWISE) ARISING IN ANY WAY OUT OF THE USE
 111:../STM32Cube_FW_F4_V1.4.0/Drivers/STM32F4xx_HAL_Driver/Src/stm32f4xx_hal_dma.c ****   * OF THIS SOFTWARE, EVEN IF ADVISED OF THE POSSIBILITY OF SUCH DAMAGE.
 112:../STM32Cube_FW_F4_V1.4.0/Drivers/STM32F4xx_HAL_Driver/Src/stm32f4xx_hal_dma.c ****   *
 113:../STM32Cube_FW_F4_V1.4.0/Drivers/STM32F4xx_HAL_Driver/Src/stm32f4xx_hal_dma.c ****   ******************************************************************************
 114:../STM32Cube_FW_F4_V1.4.0/Drivers/STM32F4xx_HAL_Driver/Src/stm32f4xx_hal_dma.c ****   */ 
 115:../STM32Cube_FW_F4_V1.4.0/Drivers/STM32F4xx_HAL_Driver/Src/stm32f4xx_hal_dma.c **** 
 116:../STM32Cube_FW_F4_V1.4.0/Drivers/STM32F4xx_HAL_Driver/Src/stm32f4xx_hal_dma.c **** /* Includes ------------------------------------------------------------------*/
 117:../STM32Cube_FW_F4_V1.4.0/Drivers/STM32F4xx_HAL_Driver/Src/stm32f4xx_hal_dma.c **** #include "stm32f4xx_hal.h"
 118:../STM32Cube_FW_F4_V1.4.0/Drivers/STM32F4xx_HAL_Driver/Src/stm32f4xx_hal_dma.c **** 
 119:../STM32Cube_FW_F4_V1.4.0/Drivers/STM32F4xx_HAL_Driver/Src/stm32f4xx_hal_dma.c **** /** @addtogroup STM32F4xx_HAL_Driver
 120:../STM32Cube_FW_F4_V1.4.0/Drivers/STM32F4xx_HAL_Driver/Src/stm32f4xx_hal_dma.c ****   * @{
 121:../STM32Cube_FW_F4_V1.4.0/Drivers/STM32F4xx_HAL_Driver/Src/stm32f4xx_hal_dma.c ****   */
 122:../STM32Cube_FW_F4_V1.4.0/Drivers/STM32F4xx_HAL_Driver/Src/stm32f4xx_hal_dma.c **** 
 123:../STM32Cube_FW_F4_V1.4.0/Drivers/STM32F4xx_HAL_Driver/Src/stm32f4xx_hal_dma.c **** /** @defgroup DMA DMA
 124:../STM32Cube_FW_F4_V1.4.0/Drivers/STM32F4xx_HAL_Driver/Src/stm32f4xx_hal_dma.c ****   * @brief DMA HAL module driver
 125:../STM32Cube_FW_F4_V1.4.0/Drivers/STM32F4xx_HAL_Driver/Src/stm32f4xx_hal_dma.c ****   * @{
 126:../STM32Cube_FW_F4_V1.4.0/Drivers/STM32F4xx_HAL_Driver/Src/stm32f4xx_hal_dma.c ****   */
 127:../STM32Cube_FW_F4_V1.4.0/Drivers/STM32F4xx_HAL_Driver/Src/stm32f4xx_hal_dma.c **** 
 128:../STM32Cube_FW_F4_V1.4.0/Drivers/STM32F4xx_HAL_Driver/Src/stm32f4xx_hal_dma.c **** #ifdef HAL_DMA_MODULE_ENABLED
 129:../STM32Cube_FW_F4_V1.4.0/Drivers/STM32F4xx_HAL_Driver/Src/stm32f4xx_hal_dma.c **** 
 130:../STM32Cube_FW_F4_V1.4.0/Drivers/STM32F4xx_HAL_Driver/Src/stm32f4xx_hal_dma.c **** /* Private types -------------------------------------------------------------*/
 131:../STM32Cube_FW_F4_V1.4.0/Drivers/STM32F4xx_HAL_Driver/Src/stm32f4xx_hal_dma.c **** /* Private variables ---------------------------------------------------------*/
 132:../STM32Cube_FW_F4_V1.4.0/Drivers/STM32F4xx_HAL_Driver/Src/stm32f4xx_hal_dma.c **** /* Private constants ---------------------------------------------------------*/
 133:../STM32Cube_FW_F4_V1.4.0/Drivers/STM32F4xx_HAL_Driver/Src/stm32f4xx_hal_dma.c **** /** @addtogroup DMA_Private_Constants
 134:../STM32Cube_FW_F4_V1.4.0/Drivers/STM32F4xx_HAL_Driver/Src/stm32f4xx_hal_dma.c ****  * @{
 135:../STM32Cube_FW_F4_V1.4.0/Drivers/STM32F4xx_HAL_Driver/Src/stm32f4xx_hal_dma.c ****  */
 136:../STM32Cube_FW_F4_V1.4.0/Drivers/STM32F4xx_HAL_Driver/Src/stm32f4xx_hal_dma.c ****  #define HAL_TIMEOUT_DMA_ABORT    ((uint32_t)1000)  /* 1s */
 137:../STM32Cube_FW_F4_V1.4.0/Drivers/STM32F4xx_HAL_Driver/Src/stm32f4xx_hal_dma.c **** /**
 138:../STM32Cube_FW_F4_V1.4.0/Drivers/STM32F4xx_HAL_Driver/Src/stm32f4xx_hal_dma.c ****   * @}
 139:../STM32Cube_FW_F4_V1.4.0/Drivers/STM32F4xx_HAL_Driver/Src/stm32f4xx_hal_dma.c ****   */
 140:../STM32Cube_FW_F4_V1.4.0/Drivers/STM32F4xx_HAL_Driver/Src/stm32f4xx_hal_dma.c **** /* Private macros ------------------------------------------------------------*/
 141:../STM32Cube_FW_F4_V1.4.0/Drivers/STM32F4xx_HAL_Driver/Src/stm32f4xx_hal_dma.c **** /* Private functions ---------------------------------------------------------*/
 142:../STM32Cube_FW_F4_V1.4.0/Drivers/STM32F4xx_HAL_Driver/Src/stm32f4xx_hal_dma.c **** /** @addtogroup DMA_Private_Functions
 143:../STM32Cube_FW_F4_V1.4.0/Drivers/STM32F4xx_HAL_Driver/Src/stm32f4xx_hal_dma.c ****   * @{
 144:../STM32Cube_FW_F4_V1.4.0/Drivers/STM32F4xx_HAL_Driver/Src/stm32f4xx_hal_dma.c ****   */
 145:../STM32Cube_FW_F4_V1.4.0/Drivers/STM32F4xx_HAL_Driver/Src/stm32f4xx_hal_dma.c **** static void DMA_SetConfig(DMA_HandleTypeDef *hdma, uint32_t SrcAddress, uint32_t DstAddress, uint32
 146:../STM32Cube_FW_F4_V1.4.0/Drivers/STM32F4xx_HAL_Driver/Src/stm32f4xx_hal_dma.c **** /**
 147:../STM32Cube_FW_F4_V1.4.0/Drivers/STM32F4xx_HAL_Driver/Src/stm32f4xx_hal_dma.c ****   * @}
ARM GAS  C:\cygwin\tmp\cc1Jaa0f.s 			page 5


 148:../STM32Cube_FW_F4_V1.4.0/Drivers/STM32F4xx_HAL_Driver/Src/stm32f4xx_hal_dma.c ****   */  
 149:../STM32Cube_FW_F4_V1.4.0/Drivers/STM32F4xx_HAL_Driver/Src/stm32f4xx_hal_dma.c ****   
 150:../STM32Cube_FW_F4_V1.4.0/Drivers/STM32F4xx_HAL_Driver/Src/stm32f4xx_hal_dma.c **** /* Exported functions ---------------------------------------------------------*/
 151:../STM32Cube_FW_F4_V1.4.0/Drivers/STM32F4xx_HAL_Driver/Src/stm32f4xx_hal_dma.c **** /** @addtogroup DMA_Exported_Functions
 152:../STM32Cube_FW_F4_V1.4.0/Drivers/STM32F4xx_HAL_Driver/Src/stm32f4xx_hal_dma.c ****   * @{
 153:../STM32Cube_FW_F4_V1.4.0/Drivers/STM32F4xx_HAL_Driver/Src/stm32f4xx_hal_dma.c ****   */
 154:../STM32Cube_FW_F4_V1.4.0/Drivers/STM32F4xx_HAL_Driver/Src/stm32f4xx_hal_dma.c **** 
 155:../STM32Cube_FW_F4_V1.4.0/Drivers/STM32F4xx_HAL_Driver/Src/stm32f4xx_hal_dma.c **** /** @addtogroup DMA_Exported_Functions_Group1
 156:../STM32Cube_FW_F4_V1.4.0/Drivers/STM32F4xx_HAL_Driver/Src/stm32f4xx_hal_dma.c ****   *
 157:../STM32Cube_FW_F4_V1.4.0/Drivers/STM32F4xx_HAL_Driver/Src/stm32f4xx_hal_dma.c **** @verbatim   
 158:../STM32Cube_FW_F4_V1.4.0/Drivers/STM32F4xx_HAL_Driver/Src/stm32f4xx_hal_dma.c ****  ===============================================================================
 159:../STM32Cube_FW_F4_V1.4.0/Drivers/STM32F4xx_HAL_Driver/Src/stm32f4xx_hal_dma.c ****              ##### Initialization and de-initialization functions  #####
 160:../STM32Cube_FW_F4_V1.4.0/Drivers/STM32F4xx_HAL_Driver/Src/stm32f4xx_hal_dma.c ****  ===============================================================================  
 161:../STM32Cube_FW_F4_V1.4.0/Drivers/STM32F4xx_HAL_Driver/Src/stm32f4xx_hal_dma.c ****     [..]
 162:../STM32Cube_FW_F4_V1.4.0/Drivers/STM32F4xx_HAL_Driver/Src/stm32f4xx_hal_dma.c ****     This section provides functions allowing to initialize the DMA Stream source
 163:../STM32Cube_FW_F4_V1.4.0/Drivers/STM32F4xx_HAL_Driver/Src/stm32f4xx_hal_dma.c ****     and destination addresses, incrementation and data sizes, transfer direction, 
 164:../STM32Cube_FW_F4_V1.4.0/Drivers/STM32F4xx_HAL_Driver/Src/stm32f4xx_hal_dma.c ****     circular/normal mode selection, memory-to-memory mode selection and Stream priority value.
 165:../STM32Cube_FW_F4_V1.4.0/Drivers/STM32F4xx_HAL_Driver/Src/stm32f4xx_hal_dma.c ****     [..]
 166:../STM32Cube_FW_F4_V1.4.0/Drivers/STM32F4xx_HAL_Driver/Src/stm32f4xx_hal_dma.c ****     The HAL_DMA_Init() function follows the DMA configuration procedures as described in
 167:../STM32Cube_FW_F4_V1.4.0/Drivers/STM32F4xx_HAL_Driver/Src/stm32f4xx_hal_dma.c ****     reference manual.  
 168:../STM32Cube_FW_F4_V1.4.0/Drivers/STM32F4xx_HAL_Driver/Src/stm32f4xx_hal_dma.c **** 
 169:../STM32Cube_FW_F4_V1.4.0/Drivers/STM32F4xx_HAL_Driver/Src/stm32f4xx_hal_dma.c **** @endverbatim
 170:../STM32Cube_FW_F4_V1.4.0/Drivers/STM32F4xx_HAL_Driver/Src/stm32f4xx_hal_dma.c ****   * @{
 171:../STM32Cube_FW_F4_V1.4.0/Drivers/STM32F4xx_HAL_Driver/Src/stm32f4xx_hal_dma.c ****   */
 172:../STM32Cube_FW_F4_V1.4.0/Drivers/STM32F4xx_HAL_Driver/Src/stm32f4xx_hal_dma.c ****   
 173:../STM32Cube_FW_F4_V1.4.0/Drivers/STM32F4xx_HAL_Driver/Src/stm32f4xx_hal_dma.c **** /**
 174:../STM32Cube_FW_F4_V1.4.0/Drivers/STM32F4xx_HAL_Driver/Src/stm32f4xx_hal_dma.c ****   * @brief  Initializes the DMA according to the specified
 175:../STM32Cube_FW_F4_V1.4.0/Drivers/STM32F4xx_HAL_Driver/Src/stm32f4xx_hal_dma.c ****   *         parameters in the DMA_InitTypeDef and create the associated handle.
 176:../STM32Cube_FW_F4_V1.4.0/Drivers/STM32F4xx_HAL_Driver/Src/stm32f4xx_hal_dma.c ****   * @param  hdma: Pointer to a DMA_HandleTypeDef structure that contains
 177:../STM32Cube_FW_F4_V1.4.0/Drivers/STM32F4xx_HAL_Driver/Src/stm32f4xx_hal_dma.c ****   *               the configuration information for the specified DMA Stream.  
 178:../STM32Cube_FW_F4_V1.4.0/Drivers/STM32F4xx_HAL_Driver/Src/stm32f4xx_hal_dma.c ****   * @retval HAL status
 179:../STM32Cube_FW_F4_V1.4.0/Drivers/STM32F4xx_HAL_Driver/Src/stm32f4xx_hal_dma.c ****   */
 180:../STM32Cube_FW_F4_V1.4.0/Drivers/STM32F4xx_HAL_Driver/Src/stm32f4xx_hal_dma.c **** HAL_StatusTypeDef HAL_DMA_Init(DMA_HandleTypeDef *hdma)
 181:../STM32Cube_FW_F4_V1.4.0/Drivers/STM32F4xx_HAL_Driver/Src/stm32f4xx_hal_dma.c **** { 
  82              		.loc 1 181 0
  83              		.cfi_startproc
  84              		@ args = 0, pretend = 0, frame = 0
  85              		@ frame_needed = 0, uses_anonymous_args = 0
  86              	.LVL0:
  87 0000 38B5     		push	{r3, r4, r5, lr}	@
  88              		.cfi_def_cfa_offset 16
  89              		.cfi_offset 3, -16
  90              		.cfi_offset 4, -12
  91              		.cfi_offset 5, -8
  92              		.cfi_offset 14, -4
 182:../STM32Cube_FW_F4_V1.4.0/Drivers/STM32F4xx_HAL_Driver/Src/stm32f4xx_hal_dma.c ****   uint32_t tmp = 0;
 183:../STM32Cube_FW_F4_V1.4.0/Drivers/STM32F4xx_HAL_Driver/Src/stm32f4xx_hal_dma.c ****   
 184:../STM32Cube_FW_F4_V1.4.0/Drivers/STM32F4xx_HAL_Driver/Src/stm32f4xx_hal_dma.c ****   /* Check the DMA peripheral state */
 185:../STM32Cube_FW_F4_V1.4.0/Drivers/STM32F4xx_HAL_Driver/Src/stm32f4xx_hal_dma.c ****   if(hdma == NULL)
  93              		.loc 1 185 0
  94 0002 0446     		mov	r4, r0	@ hdma, hdma
  95 0004 0028     		cmp	r0, #0	@ hdma
  96 0006 00F0D480 		beq	.L20	@
 186:../STM32Cube_FW_F4_V1.4.0/Drivers/STM32F4xx_HAL_Driver/Src/stm32f4xx_hal_dma.c ****   {
 187:../STM32Cube_FW_F4_V1.4.0/Drivers/STM32F4xx_HAL_Driver/Src/stm32f4xx_hal_dma.c ****     return HAL_ERROR;
 188:../STM32Cube_FW_F4_V1.4.0/Drivers/STM32F4xx_HAL_Driver/Src/stm32f4xx_hal_dma.c ****   }
 189:../STM32Cube_FW_F4_V1.4.0/Drivers/STM32F4xx_HAL_Driver/Src/stm32f4xx_hal_dma.c **** 
ARM GAS  C:\cygwin\tmp\cc1Jaa0f.s 			page 6


 190:../STM32Cube_FW_F4_V1.4.0/Drivers/STM32F4xx_HAL_Driver/Src/stm32f4xx_hal_dma.c ****   /* Check the parameters */
 191:../STM32Cube_FW_F4_V1.4.0/Drivers/STM32F4xx_HAL_Driver/Src/stm32f4xx_hal_dma.c ****   assert_param(IS_DMA_STREAM_ALL_INSTANCE(hdma->Instance));
  97              		.loc 1 191 0
  98 000a 0368     		ldr	r3, [r0]	@ D.13962, hdma_18(D)->Instance
  99 000c 6A4A     		ldr	r2, .L70	@ tmp166,
 100 000e 9342     		cmp	r3, r2	@ D.13962, tmp166
 101 0010 31D0     		beq	.L3	@,
 102              		.loc 1 191 0 is_stmt 0 discriminator 1
 103 0012 1832     		adds	r2, r2, #24	@ tmp167, tmp167,
 104 0014 9342     		cmp	r3, r2	@ D.13962, tmp167
 105 0016 2ED0     		beq	.L3	@,
 106              		.loc 1 191 0 discriminator 2
 107 0018 1832     		adds	r2, r2, #24	@ tmp168, tmp168,
 108 001a 9342     		cmp	r3, r2	@ D.13962, tmp168
 109 001c 2BD0     		beq	.L3	@,
 110              		.loc 1 191 0 discriminator 3
 111 001e 1832     		adds	r2, r2, #24	@ tmp169, tmp169,
 112 0020 9342     		cmp	r3, r2	@ D.13962, tmp169
 113 0022 28D0     		beq	.L3	@,
 114              		.loc 1 191 0 discriminator 4
 115 0024 1832     		adds	r2, r2, #24	@ tmp170, tmp170,
 116 0026 9342     		cmp	r3, r2	@ D.13962, tmp170
 117 0028 25D0     		beq	.L3	@,
 118              		.loc 1 191 0 discriminator 5
 119 002a 1832     		adds	r2, r2, #24	@ tmp171, tmp171,
 120 002c 9342     		cmp	r3, r2	@ D.13962, tmp171
 121 002e 22D0     		beq	.L3	@,
 122              		.loc 1 191 0 discriminator 6
 123 0030 1832     		adds	r2, r2, #24	@ tmp172, tmp172,
 124 0032 9342     		cmp	r3, r2	@ D.13962, tmp172
 125 0034 1FD0     		beq	.L3	@,
 126              		.loc 1 191 0 discriminator 7
 127 0036 1832     		adds	r2, r2, #24	@ tmp173, tmp173,
 128 0038 9342     		cmp	r3, r2	@ D.13962, tmp173
 129 003a 1CD0     		beq	.L3	@,
 130              		.loc 1 191 0 discriminator 8
 131 003c 02F55672 		add	r2, r2, #856	@ tmp174, tmp174,
 132 0040 9342     		cmp	r3, r2	@ D.13962, tmp174
 133 0042 18D0     		beq	.L3	@,
 134              		.loc 1 191 0 discriminator 9
 135 0044 1832     		adds	r2, r2, #24	@ tmp175, tmp175,
 136 0046 9342     		cmp	r3, r2	@ D.13962, tmp175
 137 0048 15D0     		beq	.L3	@,
 138              		.loc 1 191 0 discriminator 10
 139 004a 1832     		adds	r2, r2, #24	@ tmp176, tmp176,
 140 004c 9342     		cmp	r3, r2	@ D.13962, tmp176
 141 004e 12D0     		beq	.L3	@,
 142              		.loc 1 191 0 discriminator 11
 143 0050 1832     		adds	r2, r2, #24	@ tmp177, tmp177,
 144 0052 9342     		cmp	r3, r2	@ D.13962, tmp177
 145 0054 0FD0     		beq	.L3	@,
 146              		.loc 1 191 0 discriminator 12
 147 0056 1832     		adds	r2, r2, #24	@ tmp178, tmp178,
 148 0058 9342     		cmp	r3, r2	@ D.13962, tmp178
 149 005a 0CD0     		beq	.L3	@,
 150              		.loc 1 191 0 discriminator 13
 151 005c 1832     		adds	r2, r2, #24	@ tmp179, tmp179,
ARM GAS  C:\cygwin\tmp\cc1Jaa0f.s 			page 7


 152 005e 9342     		cmp	r3, r2	@ D.13962, tmp179
 153 0060 09D0     		beq	.L3	@,
 154              		.loc 1 191 0 discriminator 14
 155 0062 1832     		adds	r2, r2, #24	@ tmp180, tmp180,
 156 0064 9342     		cmp	r3, r2	@ D.13962, tmp180
 157 0066 06D0     		beq	.L3	@,
 158              		.loc 1 191 0 discriminator 15
 159 0068 1832     		adds	r2, r2, #24	@ tmp181, tmp181,
 160 006a 9342     		cmp	r3, r2	@ D.13962, tmp181
 161 006c 03D0     		beq	.L3	@,
 162              		.loc 1 191 0 discriminator 16
 163 006e 5348     		ldr	r0, .L70+4	@,
 164              	.LVL1:
 165 0070 BF21     		movs	r1, #191	@,
 166 0072 FFF7FEFF 		bl	assert_failed	@
 167              	.LVL2:
 168              	.L3:
 192:../STM32Cube_FW_F4_V1.4.0/Drivers/STM32F4xx_HAL_Driver/Src/stm32f4xx_hal_dma.c ****   assert_param(IS_DMA_CHANNEL(hdma->Init.Channel));
 169              		.loc 1 192 0 is_stmt 1
 170 0076 6368     		ldr	r3, [r4, #4]	@ D.13963, hdma_18(D)->Init.Channel
 171 0078 33F0C063 		bics	r3, r3, #100663296	@ D.13963, D.13963,
 172 007c 06D0     		beq	.L4	@,
 173              		.loc 1 192 0 is_stmt 0 discriminator 4
 174 007e B3F1006F 		cmp	r3, #134217728	@ D.13963,
 175 0082 03D0     		beq	.L4	@,
 176              		.loc 1 192 0 discriminator 8
 177 0084 4D48     		ldr	r0, .L70+4	@,
 178 0086 C021     		movs	r1, #192	@,
 179 0088 FFF7FEFF 		bl	assert_failed	@
 180              	.LVL3:
 181              	.L4:
 193:../STM32Cube_FW_F4_V1.4.0/Drivers/STM32F4xx_HAL_Driver/Src/stm32f4xx_hal_dma.c ****   assert_param(IS_DMA_DIRECTION(hdma->Init.Direction));
 182              		.loc 1 193 0 is_stmt 1
 183 008c A368     		ldr	r3, [r4, #8]	@ D.13963, hdma_18(D)->Init.Direction
 184 008e 33F04002 		bics	r2, r3, #64	@ tmp239, D.13963,
 185 0092 05D0     		beq	.L5	@,
 186              		.loc 1 193 0 is_stmt 0 discriminator 2
 187 0094 802B     		cmp	r3, #128	@ D.13963,
 188 0096 03D0     		beq	.L5	@,
 189              		.loc 1 193 0 discriminator 3
 190 0098 4848     		ldr	r0, .L70+4	@,
 191 009a C121     		movs	r1, #193	@,
 192 009c FFF7FEFF 		bl	assert_failed	@
 193              	.LVL4:
 194              	.L5:
 194:../STM32Cube_FW_F4_V1.4.0/Drivers/STM32F4xx_HAL_Driver/Src/stm32f4xx_hal_dma.c ****   assert_param(IS_DMA_PERIPHERAL_INC_STATE(hdma->Init.PeriphInc));
 195              		.loc 1 194 0 is_stmt 1
 196 00a0 E368     		ldr	r3, [r4, #12]	@ hdma_18(D)->Init.PeriphInc, hdma_18(D)->Init.PeriphInc
 197 00a2 33F40073 		bics	r3, r3, #512	@ tmp240, hdma_18(D)->Init.PeriphInc,
 198 00a6 03D0     		beq	.L6	@,
 199              		.loc 1 194 0 is_stmt 0 discriminator 2
 200 00a8 4448     		ldr	r0, .L70+4	@,
 201 00aa C221     		movs	r1, #194	@,
 202 00ac FFF7FEFF 		bl	assert_failed	@
 203              	.LVL5:
 204              	.L6:
 195:../STM32Cube_FW_F4_V1.4.0/Drivers/STM32F4xx_HAL_Driver/Src/stm32f4xx_hal_dma.c ****   assert_param(IS_DMA_MEMORY_INC_STATE(hdma->Init.MemInc));
ARM GAS  C:\cygwin\tmp\cc1Jaa0f.s 			page 8


 205              		.loc 1 195 0 is_stmt 1
 206 00b0 2369     		ldr	r3, [r4, #16]	@ hdma_18(D)->Init.MemInc, hdma_18(D)->Init.MemInc
 207 00b2 33F48063 		bics	r3, r3, #1024	@ tmp241, hdma_18(D)->Init.MemInc,
 208 00b6 03D0     		beq	.L7	@,
 209              		.loc 1 195 0 is_stmt 0 discriminator 2
 210 00b8 4048     		ldr	r0, .L70+4	@,
 211 00ba C321     		movs	r1, #195	@,
 212 00bc FFF7FEFF 		bl	assert_failed	@
 213              	.LVL6:
 214              	.L7:
 196:../STM32Cube_FW_F4_V1.4.0/Drivers/STM32F4xx_HAL_Driver/Src/stm32f4xx_hal_dma.c ****   assert_param(IS_DMA_PERIPHERAL_DATA_SIZE(hdma->Init.PeriphDataAlignment));
 215              		.loc 1 196 0 is_stmt 1
 216 00c0 6369     		ldr	r3, [r4, #20]	@ D.13963, hdma_18(D)->Init.PeriphDataAlignment
 217 00c2 33F40062 		bics	r2, r3, #2048	@ tmp242, D.13963,
 218 00c6 06D0     		beq	.L8	@,
 219              		.loc 1 196 0 is_stmt 0 discriminator 2
 220 00c8 B3F5805F 		cmp	r3, #4096	@ D.13963,
 221 00cc 03D0     		beq	.L8	@,
 222              		.loc 1 196 0 discriminator 3
 223 00ce 3B48     		ldr	r0, .L70+4	@,
 224 00d0 C421     		movs	r1, #196	@,
 225 00d2 FFF7FEFF 		bl	assert_failed	@
 226              	.LVL7:
 227              	.L8:
 197:../STM32Cube_FW_F4_V1.4.0/Drivers/STM32F4xx_HAL_Driver/Src/stm32f4xx_hal_dma.c ****   assert_param(IS_DMA_MEMORY_DATA_SIZE(hdma->Init.MemDataAlignment));
 228              		.loc 1 197 0 is_stmt 1
 229 00d6 A369     		ldr	r3, [r4, #24]	@ D.13963, hdma_18(D)->Init.MemDataAlignment
 230 00d8 33F40052 		bics	r2, r3, #8192	@ tmp243, D.13963,
 231 00dc 06D0     		beq	.L9	@,
 232              		.loc 1 197 0 is_stmt 0 discriminator 2
 233 00de B3F5804F 		cmp	r3, #16384	@ D.13963,
 234 00e2 03D0     		beq	.L9	@,
 235              		.loc 1 197 0 discriminator 3
 236 00e4 3548     		ldr	r0, .L70+4	@,
 237 00e6 C521     		movs	r1, #197	@,
 238 00e8 FFF7FEFF 		bl	assert_failed	@
 239              	.LVL8:
 240              	.L9:
 198:../STM32Cube_FW_F4_V1.4.0/Drivers/STM32F4xx_HAL_Driver/Src/stm32f4xx_hal_dma.c ****   assert_param(IS_DMA_MODE(hdma->Init.Mode));
 241              		.loc 1 198 0 is_stmt 1
 242 00ec E369     		ldr	r3, [r4, #28]	@ D.13963, hdma_18(D)->Init.Mode
 243 00ee 33F02002 		bics	r2, r3, #32	@ tmp244, D.13963,
 244 00f2 06D0     		beq	.L10	@,
 245              		.loc 1 198 0 is_stmt 0 discriminator 1
 246 00f4 B3F5807F 		cmp	r3, #256	@ D.13963,
 247 00f8 03D0     		beq	.L10	@,
 248              		.loc 1 198 0 discriminator 3
 249 00fa 3048     		ldr	r0, .L70+4	@,
 250 00fc C621     		movs	r1, #198	@,
 251 00fe FFF7FEFF 		bl	assert_failed	@
 252              	.LVL9:
 253              	.L10:
 199:../STM32Cube_FW_F4_V1.4.0/Drivers/STM32F4xx_HAL_Driver/Src/stm32f4xx_hal_dma.c ****   assert_param(IS_DMA_PRIORITY(hdma->Init.Priority));
 254              		.loc 1 199 0 is_stmt 1
 255 0102 236A     		ldr	r3, [r4, #32]	@ hdma_18(D)->Init.Priority, hdma_18(D)->Init.Priority
 256 0104 33F44033 		bics	r3, r3, #196608	@ tmp245, hdma_18(D)->Init.Priority,
 257 0108 03D0     		beq	.L11	@,
ARM GAS  C:\cygwin\tmp\cc1Jaa0f.s 			page 9


 258              		.loc 1 199 0 is_stmt 0 discriminator 4
 259 010a 2C48     		ldr	r0, .L70+4	@,
 260 010c C721     		movs	r1, #199	@,
 261 010e FFF7FEFF 		bl	assert_failed	@
 262              	.LVL10:
 263              	.L11:
 200:../STM32Cube_FW_F4_V1.4.0/Drivers/STM32F4xx_HAL_Driver/Src/stm32f4xx_hal_dma.c ****   assert_param(IS_DMA_FIFO_MODE_STATE(hdma->Init.FIFOMode));
 264              		.loc 1 200 0 is_stmt 1
 265 0112 636A     		ldr	r3, [r4, #36]	@ hdma_18(D)->Init.FIFOMode, hdma_18(D)->Init.FIFOMode
 266 0114 33F00403 		bics	r3, r3, #4	@ tmp246, hdma_18(D)->Init.FIFOMode,
 267 0118 03D0     		beq	.L12	@,
 268              		.loc 1 200 0 is_stmt 0 discriminator 2
 269 011a 2848     		ldr	r0, .L70+4	@,
 270 011c C821     		movs	r1, #200	@,
 271 011e FFF7FEFF 		bl	assert_failed	@
 272              	.LVL11:
 273              	.L12:
 201:../STM32Cube_FW_F4_V1.4.0/Drivers/STM32F4xx_HAL_Driver/Src/stm32f4xx_hal_dma.c ****   /* Check the memory burst, peripheral burst and FIFO threshold parameters only
 202:../STM32Cube_FW_F4_V1.4.0/Drivers/STM32F4xx_HAL_Driver/Src/stm32f4xx_hal_dma.c ****      when FIFO mode is enabled */
 203:../STM32Cube_FW_F4_V1.4.0/Drivers/STM32F4xx_HAL_Driver/Src/stm32f4xx_hal_dma.c ****   if(hdma->Init.FIFOMode != DMA_FIFOMODE_DISABLE)
 274              		.loc 1 203 0 is_stmt 1
 275 0122 636A     		ldr	r3, [r4, #36]	@ hdma_18(D)->Init.FIFOMode, hdma_18(D)->Init.FIFOMode
 276 0124 B3B1     		cbz	r3, .L14	@ hdma_18(D)->Init.FIFOMode,
 204:../STM32Cube_FW_F4_V1.4.0/Drivers/STM32F4xx_HAL_Driver/Src/stm32f4xx_hal_dma.c ****   {
 205:../STM32Cube_FW_F4_V1.4.0/Drivers/STM32F4xx_HAL_Driver/Src/stm32f4xx_hal_dma.c ****     assert_param(IS_DMA_FIFO_THRESHOLD(hdma->Init.FIFOThreshold));
 277              		.loc 1 205 0
 278 0126 A36A     		ldr	r3, [r4, #40]	@ hdma_18(D)->Init.FIFOThreshold, hdma_18(D)->Init.FIFOThreshold
 279 0128 032B     		cmp	r3, #3	@ hdma_18(D)->Init.FIFOThreshold,
 280 012a 03D9     		bls	.L15	@,
 281              		.loc 1 205 0 is_stmt 0 discriminator 1
 282 012c 2348     		ldr	r0, .L70+4	@,
 283 012e CD21     		movs	r1, #205	@,
 284 0130 FFF7FEFF 		bl	assert_failed	@
 285              	.LVL12:
 286              	.L15:
 206:../STM32Cube_FW_F4_V1.4.0/Drivers/STM32F4xx_HAL_Driver/Src/stm32f4xx_hal_dma.c ****     assert_param(IS_DMA_MEMORY_BURST(hdma->Init.MemBurst));
 287              		.loc 1 206 0 is_stmt 1
 288 0134 E36A     		ldr	r3, [r4, #44]	@ hdma_18(D)->Init.MemBurst, hdma_18(D)->Init.MemBurst
 289 0136 33F0C073 		bics	r3, r3, #25165824	@ tmp247, hdma_18(D)->Init.MemBurst,
 290 013a 03D0     		beq	.L16	@,
 291              		.loc 1 206 0 is_stmt 0 discriminator 4
 292 013c 1F48     		ldr	r0, .L70+4	@,
 293 013e CE21     		movs	r1, #206	@,
 294 0140 FFF7FEFF 		bl	assert_failed	@
 295              	.LVL13:
 296              	.L16:
 207:../STM32Cube_FW_F4_V1.4.0/Drivers/STM32F4xx_HAL_Driver/Src/stm32f4xx_hal_dma.c ****     assert_param(IS_DMA_PERIPHERAL_BURST(hdma->Init.PeriphBurst));
 297              		.loc 1 207 0 is_stmt 1
 298 0144 236B     		ldr	r3, [r4, #48]	@ hdma_18(D)->Init.PeriphBurst, hdma_18(D)->Init.PeriphBurst
 299 0146 33F4C003 		bics	r3, r3, #6291456	@ tmp248, hdma_18(D)->Init.PeriphBurst,
 300 014a 03D0     		beq	.L14	@,
 301              		.loc 1 207 0 is_stmt 0 discriminator 4
 302 014c 1B48     		ldr	r0, .L70+4	@,
 303 014e CF21     		movs	r1, #207	@,
 304 0150 FFF7FEFF 		bl	assert_failed	@
 305              	.LVL14:
 306              	.L14:
ARM GAS  C:\cygwin\tmp\cc1Jaa0f.s 			page 10


 208:../STM32Cube_FW_F4_V1.4.0/Drivers/STM32F4xx_HAL_Driver/Src/stm32f4xx_hal_dma.c ****   }
 209:../STM32Cube_FW_F4_V1.4.0/Drivers/STM32F4xx_HAL_Driver/Src/stm32f4xx_hal_dma.c **** 
 210:../STM32Cube_FW_F4_V1.4.0/Drivers/STM32F4xx_HAL_Driver/Src/stm32f4xx_hal_dma.c ****   /* Change DMA peripheral state */
 211:../STM32Cube_FW_F4_V1.4.0/Drivers/STM32F4xx_HAL_Driver/Src/stm32f4xx_hal_dma.c ****   hdma->State = HAL_DMA_STATE_BUSY;
 212:../STM32Cube_FW_F4_V1.4.0/Drivers/STM32F4xx_HAL_Driver/Src/stm32f4xx_hal_dma.c **** 
 213:../STM32Cube_FW_F4_V1.4.0/Drivers/STM32F4xx_HAL_Driver/Src/stm32f4xx_hal_dma.c ****   /* Get the CR register value */
 214:../STM32Cube_FW_F4_V1.4.0/Drivers/STM32F4xx_HAL_Driver/Src/stm32f4xx_hal_dma.c ****   tmp = hdma->Instance->CR;
 307              		.loc 1 214 0 is_stmt 1
 308 0154 2168     		ldr	r1, [r4]	@ D.13962, hdma_18(D)->Instance
 215:../STM32Cube_FW_F4_V1.4.0/Drivers/STM32F4xx_HAL_Driver/Src/stm32f4xx_hal_dma.c **** 
 216:../STM32Cube_FW_F4_V1.4.0/Drivers/STM32F4xx_HAL_Driver/Src/stm32f4xx_hal_dma.c ****   /* Clear CHSEL, MBURST, PBURST, PL, MSIZE, PSIZE, MINC, PINC, CIRC, DIR, CT and DBM bits */
 217:../STM32Cube_FW_F4_V1.4.0/Drivers/STM32F4xx_HAL_Driver/Src/stm32f4xx_hal_dma.c ****   tmp &= ((uint32_t)~(DMA_SxCR_CHSEL | DMA_SxCR_MBURST | DMA_SxCR_PBURST | \
 309              		.loc 1 217 0
 310 0156 1A4A     		ldr	r2, .L70+8	@ tmp,
 218:../STM32Cube_FW_F4_V1.4.0/Drivers/STM32F4xx_HAL_Driver/Src/stm32f4xx_hal_dma.c ****                       DMA_SxCR_PL    | DMA_SxCR_MSIZE  | DMA_SxCR_PSIZE  | \
 219:../STM32Cube_FW_F4_V1.4.0/Drivers/STM32F4xx_HAL_Driver/Src/stm32f4xx_hal_dma.c ****                       DMA_SxCR_MINC  | DMA_SxCR_PINC   | DMA_SxCR_CIRC   | \
 220:../STM32Cube_FW_F4_V1.4.0/Drivers/STM32F4xx_HAL_Driver/Src/stm32f4xx_hal_dma.c ****                       DMA_SxCR_DIR   | DMA_SxCR_CT     | DMA_SxCR_DBM));
 221:../STM32Cube_FW_F4_V1.4.0/Drivers/STM32F4xx_HAL_Driver/Src/stm32f4xx_hal_dma.c **** 
 222:../STM32Cube_FW_F4_V1.4.0/Drivers/STM32F4xx_HAL_Driver/Src/stm32f4xx_hal_dma.c ****   /* Prepare the DMA Stream configuration */
 223:../STM32Cube_FW_F4_V1.4.0/Drivers/STM32F4xx_HAL_Driver/Src/stm32f4xx_hal_dma.c ****   tmp |=  hdma->Init.Channel             | hdma->Init.Direction        |
 311              		.loc 1 223 0
 312 0158 A068     		ldr	r0, [r4, #8]	@ hdma_18(D)->Init.Direction, hdma_18(D)->Init.Direction
 211:../STM32Cube_FW_F4_V1.4.0/Drivers/STM32F4xx_HAL_Driver/Src/stm32f4xx_hal_dma.c **** 
 313              		.loc 1 211 0
 314 015a 0223     		movs	r3, #2	@ tmp213,
 315 015c 84F83530 		strb	r3, [r4, #53]	@ tmp213, hdma_18(D)->State
 214:../STM32Cube_FW_F4_V1.4.0/Drivers/STM32F4xx_HAL_Driver/Src/stm32f4xx_hal_dma.c **** 
 316              		.loc 1 214 0
 317 0160 0B68     		ldr	r3, [r1]	@ tmp, _48->CR
 318              	.LVL15:
 217:../STM32Cube_FW_F4_V1.4.0/Drivers/STM32F4xx_HAL_Driver/Src/stm32f4xx_hal_dma.c ****                       DMA_SxCR_PL    | DMA_SxCR_MSIZE  | DMA_SxCR_PSIZE  | \
 319              		.loc 1 217 0
 320 0162 1A40     		ands	r2, r2, r3	@, tmp, tmp, tmp
 321              	.LVL16:
 322              		.loc 1 223 0
 323 0164 6368     		ldr	r3, [r4, #4]	@ hdma_18(D)->Init.Channel, hdma_18(D)->Init.Channel
 324 0166 1843     		orrs	r0, r0, r3	@, D.13963, hdma_18(D)->Init.Direction, hdma_18(D)->Init.Channel
 325 0168 E368     		ldr	r3, [r4, #12]	@ hdma_18(D)->Init.PeriphInc, hdma_18(D)->Init.PeriphInc
 326 016a 1843     		orrs	r0, r0, r3	@, D.13963, D.13963, hdma_18(D)->Init.PeriphInc
 224:../STM32Cube_FW_F4_V1.4.0/Drivers/STM32F4xx_HAL_Driver/Src/stm32f4xx_hal_dma.c ****           hdma->Init.PeriphInc           | hdma->Init.MemInc           |
 327              		.loc 1 224 0
 328 016c 2369     		ldr	r3, [r4, #16]	@ hdma_18(D)->Init.MemInc, hdma_18(D)->Init.MemInc
 329 016e 1843     		orrs	r0, r0, r3	@, D.13963, D.13963, hdma_18(D)->Init.MemInc
 330 0170 6369     		ldr	r3, [r4, #20]	@ hdma_18(D)->Init.PeriphDataAlignment, hdma_18(D)->Init.PeriphDataAlignment
 331 0172 1843     		orrs	r0, r0, r3	@, D.13963, D.13963, hdma_18(D)->Init.PeriphDataAlignment
 225:../STM32Cube_FW_F4_V1.4.0/Drivers/STM32F4xx_HAL_Driver/Src/stm32f4xx_hal_dma.c ****           hdma->Init.PeriphDataAlignment | hdma->Init.MemDataAlignment |
 332              		.loc 1 225 0
 333 0174 A369     		ldr	r3, [r4, #24]	@ hdma_18(D)->Init.MemDataAlignment, hdma_18(D)->Init.MemDataAlignment
 334 0176 1843     		orrs	r0, r0, r3	@, D.13963, D.13963, hdma_18(D)->Init.MemDataAlignment
 335 0178 E369     		ldr	r3, [r4, #28]	@ hdma_18(D)->Init.Mode, hdma_18(D)->Init.Mode
 336 017a 1843     		orrs	r0, r0, r3	@, D.13963, D.13963, hdma_18(D)->Init.Mode
 226:../STM32Cube_FW_F4_V1.4.0/Drivers/STM32F4xx_HAL_Driver/Src/stm32f4xx_hal_dma.c ****           hdma->Init.Mode                | hdma->Init.Priority;
 337              		.loc 1 226 0
 338 017c 236A     		ldr	r3, [r4, #32]	@ hdma_18(D)->Init.Priority, hdma_18(D)->Init.Priority
 339 017e 0343     		orrs	r3, r3, r0	@, D.13963, hdma_18(D)->Init.Priority, D.13963
 223:../STM32Cube_FW_F4_V1.4.0/Drivers/STM32F4xx_HAL_Driver/Src/stm32f4xx_hal_dma.c ****           hdma->Init.PeriphInc           | hdma->Init.MemInc           |
 340              		.loc 1 223 0
ARM GAS  C:\cygwin\tmp\cc1Jaa0f.s 			page 11


 341 0180 1343     		orrs	r3, r3, r2	@, tmp, D.13963, tmp
 342              	.LVL17:
 227:../STM32Cube_FW_F4_V1.4.0/Drivers/STM32F4xx_HAL_Driver/Src/stm32f4xx_hal_dma.c **** 
 228:../STM32Cube_FW_F4_V1.4.0/Drivers/STM32F4xx_HAL_Driver/Src/stm32f4xx_hal_dma.c ****   /* the Memory burst and peripheral burst are not used when the FIFO is disabled */
 229:../STM32Cube_FW_F4_V1.4.0/Drivers/STM32F4xx_HAL_Driver/Src/stm32f4xx_hal_dma.c ****   if(hdma->Init.FIFOMode == DMA_FIFOMODE_ENABLE)
 343              		.loc 1 229 0
 344 0182 626A     		ldr	r2, [r4, #36]	@ D.13963, hdma_18(D)->Init.FIFOMode
 345 0184 042A     		cmp	r2, #4	@ D.13963,
 230:../STM32Cube_FW_F4_V1.4.0/Drivers/STM32F4xx_HAL_Driver/Src/stm32f4xx_hal_dma.c ****   {
 231:../STM32Cube_FW_F4_V1.4.0/Drivers/STM32F4xx_HAL_Driver/Src/stm32f4xx_hal_dma.c ****     /* Get memory burst and peripheral burst */
 232:../STM32Cube_FW_F4_V1.4.0/Drivers/STM32F4xx_HAL_Driver/Src/stm32f4xx_hal_dma.c ****     tmp |=  hdma->Init.MemBurst | hdma->Init.PeriphBurst;
 346              		.loc 1 232 0
 347 0186 01BF     		itttt	eq
 348 0188 E06A     		ldreq	r0, [r4, #44]	@ hdma_18(D)->Init.MemBurst, hdma_18(D)->Init.MemBurst
 349 018a 256B     		ldreq	r5, [r4, #48]	@ hdma_18(D)->Init.PeriphBurst, hdma_18(D)->Init.PeriphBurst
 350 018c 2843     		orreq	r0, r0, r5	@ D.13963, hdma_18(D)->Init.MemBurst, hdma_18(D)->Init.PeriphBurst
 351 018e 0343     		orreq	r3, r3, r0	@ tmp, tmp, D.13963
 352              	.LVL18:
 233:../STM32Cube_FW_F4_V1.4.0/Drivers/STM32F4xx_HAL_Driver/Src/stm32f4xx_hal_dma.c ****   }
 234:../STM32Cube_FW_F4_V1.4.0/Drivers/STM32F4xx_HAL_Driver/Src/stm32f4xx_hal_dma.c ****   
 235:../STM32Cube_FW_F4_V1.4.0/Drivers/STM32F4xx_HAL_Driver/Src/stm32f4xx_hal_dma.c ****   /* Write to DMA Stream CR register */
 236:../STM32Cube_FW_F4_V1.4.0/Drivers/STM32F4xx_HAL_Driver/Src/stm32f4xx_hal_dma.c ****   hdma->Instance->CR = tmp;  
 353              		.loc 1 236 0
 354 0190 0B60     		str	r3, [r1]	@ tmp, _48->CR
 237:../STM32Cube_FW_F4_V1.4.0/Drivers/STM32F4xx_HAL_Driver/Src/stm32f4xx_hal_dma.c **** 
 238:../STM32Cube_FW_F4_V1.4.0/Drivers/STM32F4xx_HAL_Driver/Src/stm32f4xx_hal_dma.c ****   /* Get the FCR register value */
 239:../STM32Cube_FW_F4_V1.4.0/Drivers/STM32F4xx_HAL_Driver/Src/stm32f4xx_hal_dma.c ****   tmp = hdma->Instance->FCR;
 355              		.loc 1 239 0
 356 0192 4B69     		ldr	r3, [r1, #20]	@ tmp, _48->FCR
 357              	.LVL19:
 240:../STM32Cube_FW_F4_V1.4.0/Drivers/STM32F4xx_HAL_Driver/Src/stm32f4xx_hal_dma.c **** 
 241:../STM32Cube_FW_F4_V1.4.0/Drivers/STM32F4xx_HAL_Driver/Src/stm32f4xx_hal_dma.c ****   /* Clear Direct mode and FIFO threshold bits */
 242:../STM32Cube_FW_F4_V1.4.0/Drivers/STM32F4xx_HAL_Driver/Src/stm32f4xx_hal_dma.c ****   tmp &= (uint32_t)~(DMA_SxFCR_DMDIS | DMA_SxFCR_FTH);
 243:../STM32Cube_FW_F4_V1.4.0/Drivers/STM32F4xx_HAL_Driver/Src/stm32f4xx_hal_dma.c **** 
 244:../STM32Cube_FW_F4_V1.4.0/Drivers/STM32F4xx_HAL_Driver/Src/stm32f4xx_hal_dma.c ****   /* Prepare the DMA Stream FIFO configuration */
 245:../STM32Cube_FW_F4_V1.4.0/Drivers/STM32F4xx_HAL_Driver/Src/stm32f4xx_hal_dma.c ****   tmp |= hdma->Init.FIFOMode;
 246:../STM32Cube_FW_F4_V1.4.0/Drivers/STM32F4xx_HAL_Driver/Src/stm32f4xx_hal_dma.c **** 
 247:../STM32Cube_FW_F4_V1.4.0/Drivers/STM32F4xx_HAL_Driver/Src/stm32f4xx_hal_dma.c ****   /* the FIFO threshold is not used when the FIFO mode is disabled */
 248:../STM32Cube_FW_F4_V1.4.0/Drivers/STM32F4xx_HAL_Driver/Src/stm32f4xx_hal_dma.c ****   if(hdma->Init.FIFOMode == DMA_FIFOMODE_ENABLE)
 358              		.loc 1 248 0
 359 0194 042A     		cmp	r2, #4	@ D.13963,
 242:../STM32Cube_FW_F4_V1.4.0/Drivers/STM32F4xx_HAL_Driver/Src/stm32f4xx_hal_dma.c **** 
 360              		.loc 1 242 0
 361 0196 23F00703 		bic	r3, r3, #7	@ tmp, tmp,
 362              	.LVL20:
 245:../STM32Cube_FW_F4_V1.4.0/Drivers/STM32F4xx_HAL_Driver/Src/stm32f4xx_hal_dma.c **** 
 363              		.loc 1 245 0
 364 019a 43EA0203 		orr	r3, r3, r2	@ tmp, tmp, D.13963
 365              	.LVL21:
 249:../STM32Cube_FW_F4_V1.4.0/Drivers/STM32F4xx_HAL_Driver/Src/stm32f4xx_hal_dma.c ****   {
 250:../STM32Cube_FW_F4_V1.4.0/Drivers/STM32F4xx_HAL_Driver/Src/stm32f4xx_hal_dma.c ****     /* Get the FIFO threshold */
 251:../STM32Cube_FW_F4_V1.4.0/Drivers/STM32F4xx_HAL_Driver/Src/stm32f4xx_hal_dma.c ****     tmp |= hdma->Init.FIFOThreshold;
 366              		.loc 1 251 0
 367 019e 04BF     		itt	eq
 368 01a0 A26A     		ldreq	r2, [r4, #40]	@ hdma_18(D)->Init.FIFOThreshold, hdma_18(D)->Init.FIFOThreshold
 369 01a2 1343     		orreq	r3, r3, r2	@ tmp, tmp, hdma_18(D)->Init.FIFOThreshold
 370              	.LVL22:
ARM GAS  C:\cygwin\tmp\cc1Jaa0f.s 			page 12


 252:../STM32Cube_FW_F4_V1.4.0/Drivers/STM32F4xx_HAL_Driver/Src/stm32f4xx_hal_dma.c ****   }
 253:../STM32Cube_FW_F4_V1.4.0/Drivers/STM32F4xx_HAL_Driver/Src/stm32f4xx_hal_dma.c ****   
 254:../STM32Cube_FW_F4_V1.4.0/Drivers/STM32F4xx_HAL_Driver/Src/stm32f4xx_hal_dma.c ****   /* Write to DMA Stream FCR */
 255:../STM32Cube_FW_F4_V1.4.0/Drivers/STM32F4xx_HAL_Driver/Src/stm32f4xx_hal_dma.c ****   hdma->Instance->FCR = tmp;
 371              		.loc 1 255 0
 372 01a4 4B61     		str	r3, [r1, #20]	@ tmp, _48->FCR
 256:../STM32Cube_FW_F4_V1.4.0/Drivers/STM32F4xx_HAL_Driver/Src/stm32f4xx_hal_dma.c **** 
 257:../STM32Cube_FW_F4_V1.4.0/Drivers/STM32F4xx_HAL_Driver/Src/stm32f4xx_hal_dma.c ****   /* Initialize the error code */
 258:../STM32Cube_FW_F4_V1.4.0/Drivers/STM32F4xx_HAL_Driver/Src/stm32f4xx_hal_dma.c ****   hdma->ErrorCode = HAL_DMA_ERROR_NONE;
 373              		.loc 1 258 0
 374 01a6 0020     		movs	r0, #0	@ tmp235,
 259:../STM32Cube_FW_F4_V1.4.0/Drivers/STM32F4xx_HAL_Driver/Src/stm32f4xx_hal_dma.c **** 
 260:../STM32Cube_FW_F4_V1.4.0/Drivers/STM32F4xx_HAL_Driver/Src/stm32f4xx_hal_dma.c ****   /* Initialize the DMA state */
 261:../STM32Cube_FW_F4_V1.4.0/Drivers/STM32F4xx_HAL_Driver/Src/stm32f4xx_hal_dma.c ****   hdma->State = HAL_DMA_STATE_READY;
 375              		.loc 1 261 0
 376 01a8 0123     		movs	r3, #1	@ tmp236,
 377              	.LVL23:
 258:../STM32Cube_FW_F4_V1.4.0/Drivers/STM32F4xx_HAL_Driver/Src/stm32f4xx_hal_dma.c **** 
 378              		.loc 1 258 0
 379 01aa E064     		str	r0, [r4, #76]	@ tmp235, hdma_18(D)->ErrorCode
 380              	.LVL24:
 381              		.loc 1 261 0
 382 01ac 84F83530 		strb	r3, [r4, #53]	@ tmp236, hdma_18(D)->State
 262:../STM32Cube_FW_F4_V1.4.0/Drivers/STM32F4xx_HAL_Driver/Src/stm32f4xx_hal_dma.c **** 
 263:../STM32Cube_FW_F4_V1.4.0/Drivers/STM32F4xx_HAL_Driver/Src/stm32f4xx_hal_dma.c ****   return HAL_OK;
 383              		.loc 1 263 0
 384 01b0 38BD     		pop	{r3, r4, r5, pc}	@
 385              	.LVL25:
 386              	.L20:
 187:../STM32Cube_FW_F4_V1.4.0/Drivers/STM32F4xx_HAL_Driver/Src/stm32f4xx_hal_dma.c ****   }
 387              		.loc 1 187 0
 388 01b2 0120     		movs	r0, #1	@ D.13961,
 389              	.LVL26:
 264:../STM32Cube_FW_F4_V1.4.0/Drivers/STM32F4xx_HAL_Driver/Src/stm32f4xx_hal_dma.c **** }
 390              		.loc 1 264 0
 391 01b4 38BD     		pop	{r3, r4, r5, pc}	@
 392              	.LVL27:
 393              	.L71:
 394 01b6 00BF     		.align	2
 395              	.L70:
 396 01b8 10600240 		.word	1073897488
 397 01bc 00000000 		.word	.LC0
 398 01c0 3F8010F0 		.word	-267354049
 399              		.cfi_endproc
 400              	.LFE123:
 401              		.size	HAL_DMA_Init, .-HAL_DMA_Init
 402              		.section	.text.HAL_DMA_DeInit,"ax",%progbits
 403              		.align	1
 404              		.global	HAL_DMA_DeInit
 405              		.thumb
 406              		.thumb_func
 407              		.type	HAL_DMA_DeInit, %function
 408              	HAL_DMA_DeInit:
 409              	.LFB124:
 265:../STM32Cube_FW_F4_V1.4.0/Drivers/STM32F4xx_HAL_Driver/Src/stm32f4xx_hal_dma.c **** 
 266:../STM32Cube_FW_F4_V1.4.0/Drivers/STM32F4xx_HAL_Driver/Src/stm32f4xx_hal_dma.c **** /**
 267:../STM32Cube_FW_F4_V1.4.0/Drivers/STM32F4xx_HAL_Driver/Src/stm32f4xx_hal_dma.c ****   * @brief  DeInitializes the DMA peripheral 
ARM GAS  C:\cygwin\tmp\cc1Jaa0f.s 			page 13


 268:../STM32Cube_FW_F4_V1.4.0/Drivers/STM32F4xx_HAL_Driver/Src/stm32f4xx_hal_dma.c ****   * @param  hdma: pointer to a DMA_HandleTypeDef structure that contains
 269:../STM32Cube_FW_F4_V1.4.0/Drivers/STM32F4xx_HAL_Driver/Src/stm32f4xx_hal_dma.c ****   *               the configuration information for the specified DMA Stream.  
 270:../STM32Cube_FW_F4_V1.4.0/Drivers/STM32F4xx_HAL_Driver/Src/stm32f4xx_hal_dma.c ****   * @retval HAL status
 271:../STM32Cube_FW_F4_V1.4.0/Drivers/STM32F4xx_HAL_Driver/Src/stm32f4xx_hal_dma.c ****   */
 272:../STM32Cube_FW_F4_V1.4.0/Drivers/STM32F4xx_HAL_Driver/Src/stm32f4xx_hal_dma.c **** HAL_StatusTypeDef HAL_DMA_DeInit(DMA_HandleTypeDef *hdma)
 273:../STM32Cube_FW_F4_V1.4.0/Drivers/STM32F4xx_HAL_Driver/Src/stm32f4xx_hal_dma.c **** {
 410              		.loc 1 273 0
 411              		.cfi_startproc
 412              		@ args = 0, pretend = 0, frame = 0
 413              		@ frame_needed = 0, uses_anonymous_args = 0
 414              	.LVL28:
 415 0000 10B5     		push	{r4, lr}	@
 416              		.cfi_def_cfa_offset 8
 417              		.cfi_offset 4, -8
 418              		.cfi_offset 14, -4
 274:../STM32Cube_FW_F4_V1.4.0/Drivers/STM32F4xx_HAL_Driver/Src/stm32f4xx_hal_dma.c ****   /* Check the DMA peripheral state */
 275:../STM32Cube_FW_F4_V1.4.0/Drivers/STM32F4xx_HAL_Driver/Src/stm32f4xx_hal_dma.c ****   if(hdma == NULL)
 419              		.loc 1 275 0
 420 0002 0028     		cmp	r0, #0	@ hdma
 421 0004 00F0B181 		beq	.L115	@
 276:../STM32Cube_FW_F4_V1.4.0/Drivers/STM32F4xx_HAL_Driver/Src/stm32f4xx_hal_dma.c ****   {
 277:../STM32Cube_FW_F4_V1.4.0/Drivers/STM32F4xx_HAL_Driver/Src/stm32f4xx_hal_dma.c ****     return HAL_ERROR;
 278:../STM32Cube_FW_F4_V1.4.0/Drivers/STM32F4xx_HAL_Driver/Src/stm32f4xx_hal_dma.c ****   }
 279:../STM32Cube_FW_F4_V1.4.0/Drivers/STM32F4xx_HAL_Driver/Src/stm32f4xx_hal_dma.c ****   
 280:../STM32Cube_FW_F4_V1.4.0/Drivers/STM32F4xx_HAL_Driver/Src/stm32f4xx_hal_dma.c ****   /* Check the DMA peripheral state */
 281:../STM32Cube_FW_F4_V1.4.0/Drivers/STM32F4xx_HAL_Driver/Src/stm32f4xx_hal_dma.c ****   if(hdma->State == HAL_DMA_STATE_BUSY)
 422              		.loc 1 281 0
 423 0008 90F83530 		ldrb	r3, [r0, #53]	@ zero_extendqisi2	@ hdma_253(D)->State, hdma_253(D)->State
 424 000c 022B     		cmp	r3, #2	@ hdma_253(D)->State,
 425 000e 00F0AC81 		beq	.L115	@,
 282:../STM32Cube_FW_F4_V1.4.0/Drivers/STM32F4xx_HAL_Driver/Src/stm32f4xx_hal_dma.c ****   {
 283:../STM32Cube_FW_F4_V1.4.0/Drivers/STM32F4xx_HAL_Driver/Src/stm32f4xx_hal_dma.c ****      return HAL_ERROR;
 284:../STM32Cube_FW_F4_V1.4.0/Drivers/STM32F4xx_HAL_Driver/Src/stm32f4xx_hal_dma.c ****   }
 285:../STM32Cube_FW_F4_V1.4.0/Drivers/STM32F4xx_HAL_Driver/Src/stm32f4xx_hal_dma.c **** 
 286:../STM32Cube_FW_F4_V1.4.0/Drivers/STM32F4xx_HAL_Driver/Src/stm32f4xx_hal_dma.c ****   /* Disable the selected DMA Streamx */
 287:../STM32Cube_FW_F4_V1.4.0/Drivers/STM32F4xx_HAL_Driver/Src/stm32f4xx_hal_dma.c ****   __HAL_DMA_DISABLE(hdma);
 426              		.loc 1 287 0
 427 0012 0368     		ldr	r3, [r0]	@ D.13970, hdma_253(D)->Instance
 428 0014 1A68     		ldr	r2, [r3]	@ D.13968, _256->CR
 429 0016 22F00102 		bic	r2, r2, #1	@ D.13968, D.13968,
 430 001a 1A60     		str	r2, [r3]	@ D.13968, _256->CR
 288:../STM32Cube_FW_F4_V1.4.0/Drivers/STM32F4xx_HAL_Driver/Src/stm32f4xx_hal_dma.c **** 
 289:../STM32Cube_FW_F4_V1.4.0/Drivers/STM32F4xx_HAL_Driver/Src/stm32f4xx_hal_dma.c ****   /* Reset DMA Streamx control register */
 290:../STM32Cube_FW_F4_V1.4.0/Drivers/STM32F4xx_HAL_Driver/Src/stm32f4xx_hal_dma.c ****   hdma->Instance->CR   = 0;
 431              		.loc 1 290 0
 432 001c 0022     		movs	r2, #0	@ tmp141,
 433 001e 1A60     		str	r2, [r3]	@ tmp141, _256->CR
 291:../STM32Cube_FW_F4_V1.4.0/Drivers/STM32F4xx_HAL_Driver/Src/stm32f4xx_hal_dma.c **** 
 292:../STM32Cube_FW_F4_V1.4.0/Drivers/STM32F4xx_HAL_Driver/Src/stm32f4xx_hal_dma.c ****   /* Reset DMA Streamx number of data to transfer register */
 293:../STM32Cube_FW_F4_V1.4.0/Drivers/STM32F4xx_HAL_Driver/Src/stm32f4xx_hal_dma.c ****   hdma->Instance->NDTR = 0;
 434              		.loc 1 293 0
 435 0020 5A60     		str	r2, [r3, #4]	@ tmp141, _256->NDTR
 294:../STM32Cube_FW_F4_V1.4.0/Drivers/STM32F4xx_HAL_Driver/Src/stm32f4xx_hal_dma.c **** 
 295:../STM32Cube_FW_F4_V1.4.0/Drivers/STM32F4xx_HAL_Driver/Src/stm32f4xx_hal_dma.c ****   /* Reset DMA Streamx peripheral address register */
 296:../STM32Cube_FW_F4_V1.4.0/Drivers/STM32F4xx_HAL_Driver/Src/stm32f4xx_hal_dma.c ****   hdma->Instance->PAR  = 0;
 436              		.loc 1 296 0
 437 0022 9A60     		str	r2, [r3, #8]	@ tmp141, _256->PAR
ARM GAS  C:\cygwin\tmp\cc1Jaa0f.s 			page 14


 297:../STM32Cube_FW_F4_V1.4.0/Drivers/STM32F4xx_HAL_Driver/Src/stm32f4xx_hal_dma.c **** 
 298:../STM32Cube_FW_F4_V1.4.0/Drivers/STM32F4xx_HAL_Driver/Src/stm32f4xx_hal_dma.c ****   /* Reset DMA Streamx memory 0 address register */
 299:../STM32Cube_FW_F4_V1.4.0/Drivers/STM32F4xx_HAL_Driver/Src/stm32f4xx_hal_dma.c ****   hdma->Instance->M0AR = 0;
 438              		.loc 1 299 0
 439 0024 DA60     		str	r2, [r3, #12]	@ tmp141, _256->M0AR
 300:../STM32Cube_FW_F4_V1.4.0/Drivers/STM32F4xx_HAL_Driver/Src/stm32f4xx_hal_dma.c **** 
 301:../STM32Cube_FW_F4_V1.4.0/Drivers/STM32F4xx_HAL_Driver/Src/stm32f4xx_hal_dma.c ****   /* Reset DMA Streamx memory 1 address register */
 302:../STM32Cube_FW_F4_V1.4.0/Drivers/STM32F4xx_HAL_Driver/Src/stm32f4xx_hal_dma.c ****   hdma->Instance->M1AR = 0;
 440              		.loc 1 302 0
 441 0026 1A61     		str	r2, [r3, #16]	@ tmp141, _256->M1AR
 303:../STM32Cube_FW_F4_V1.4.0/Drivers/STM32F4xx_HAL_Driver/Src/stm32f4xx_hal_dma.c **** 
 304:../STM32Cube_FW_F4_V1.4.0/Drivers/STM32F4xx_HAL_Driver/Src/stm32f4xx_hal_dma.c ****   /* Reset DMA Streamx FIFO control register */
 305:../STM32Cube_FW_F4_V1.4.0/Drivers/STM32F4xx_HAL_Driver/Src/stm32f4xx_hal_dma.c ****   hdma->Instance->FCR  = (uint32_t)0x00000021;
 442              		.loc 1 305 0
 443 0028 2122     		movs	r2, #33	@ tmp146,
 444 002a 5A61     		str	r2, [r3, #20]	@ tmp146, _256->FCR
 306:../STM32Cube_FW_F4_V1.4.0/Drivers/STM32F4xx_HAL_Driver/Src/stm32f4xx_hal_dma.c **** 
 307:../STM32Cube_FW_F4_V1.4.0/Drivers/STM32F4xx_HAL_Driver/Src/stm32f4xx_hal_dma.c ****   /* Clear all flags */
 308:../STM32Cube_FW_F4_V1.4.0/Drivers/STM32F4xx_HAL_Driver/Src/stm32f4xx_hal_dma.c ****   __HAL_DMA_CLEAR_FLAG(hdma, __HAL_DMA_GET_DME_FLAG_INDEX(hdma));
 445              		.loc 1 308 0
 446 002c AF4A     		ldr	r2, .L162	@ tmp147,
 447 002e 9342     		cmp	r3, r2	@ D.13970, tmp147
 448 0030 17D9     		bls	.L74	@,
 449              		.loc 1 308 0 is_stmt 0 discriminator 7
 450 0032 1832     		adds	r2, r2, #24	@ tmp148, tmp148,
 451 0034 9342     		cmp	r3, r2	@ D.13970, tmp148
 452 0036 0AD0     		beq	.L116	@,
 453              		.loc 1 308 0 discriminator 15
 454 0038 AD49     		ldr	r1, .L162+4	@ tmp149,
 455 003a 8B42     		cmp	r3, r1	@ D.13970, tmp149
 456 003c 09D0     		beq	.L117	@,
 457              		.loc 1 308 0 discriminator 23
 458 003e 1831     		adds	r1, r1, #24	@ tmp150, tmp150,
 459 0040 8B42     		cmp	r3, r1	@ D.13970, tmp150
 460 0042 14BF     		ite	ne	@
 461 0044 4FF08071 		movne	r1, #16777216	@, D.13968,
 462 0048 4FF48021 		moveq	r1, #262144	@, D.13968,
 463 004c 03E0     		b	.L75	@
 464              	.L116:
 465              		.loc 1 308 0
 466 004e A949     		ldr	r1, .L162+8	@ D.13968,
 467 0050 01E0     		b	.L75	@
 468              	.L117:
 469 0052 4FF48071 		mov	r1, #256	@ D.13968,
 470              	.L75:
 471              		.loc 1 308 0 discriminator 50
 472 0056 A84C     		ldr	r4, .L162+12	@ tmp151,
 309:../STM32Cube_FW_F4_V1.4.0/Drivers/STM32F4xx_HAL_Driver/Src/stm32f4xx_hal_dma.c ****   __HAL_DMA_CLEAR_FLAG(hdma, __HAL_DMA_GET_TC_FLAG_INDEX(hdma));
 473              		.loc 1 309 0 is_stmt 1 discriminator 50
 474 0058 9342     		cmp	r3, r2	@ D.13970, tmp236
 308:../STM32Cube_FW_F4_V1.4.0/Drivers/STM32F4xx_HAL_Driver/Src/stm32f4xx_hal_dma.c ****   __HAL_DMA_CLEAR_FLAG(hdma, __HAL_DMA_GET_TC_FLAG_INDEX(hdma));
 475              		.loc 1 308 0 discriminator 50
 476 005a E160     		str	r1, [r4, #12]	@ D.13968, MEM[(struct DMA_TypeDef *)1073898496B].HIFCR
 477              		.loc 1 309 0 discriminator 50
 478 005c 50D1     		bne	.L76	@,
 479              		.loc 1 309 0 is_stmt 0
 480 005e 2021     		movs	r1, #32	@ D.13968,
ARM GAS  C:\cygwin\tmp\cc1Jaa0f.s 			page 15


 481 0060 5BE0     		b	.L77	@
 482              	.L74:
 308:../STM32Cube_FW_F4_V1.4.0/Drivers/STM32F4xx_HAL_Driver/Src/stm32f4xx_hal_dma.c ****   __HAL_DMA_CLEAR_FLAG(hdma, __HAL_DMA_GET_TC_FLAG_INDEX(hdma));
 483              		.loc 1 308 0 is_stmt 1 discriminator 2
 484 0062 A64A     		ldr	r2, .L162+16	@ tmp153,
 485 0064 9342     		cmp	r3, r2	@ D.13970, tmp153
 486 0066 18D9     		bls	.L78	@,
 308:../STM32Cube_FW_F4_V1.4.0/Drivers/STM32F4xx_HAL_Driver/Src/stm32f4xx_hal_dma.c ****   __HAL_DMA_CLEAR_FLAG(hdma, __HAL_DMA_GET_TC_FLAG_INDEX(hdma));
 487              		.loc 1 308 0 is_stmt 0 discriminator 53
 488 0068 02F55672 		add	r2, r2, #856	@ tmp154, tmp154,
 489 006c 9342     		cmp	r3, r2	@ D.13970, tmp154
 490 006e 0AD0     		beq	.L119	@,
 308:../STM32Cube_FW_F4_V1.4.0/Drivers/STM32F4xx_HAL_Driver/Src/stm32f4xx_hal_dma.c ****   __HAL_DMA_CLEAR_FLAG(hdma, __HAL_DMA_GET_TC_FLAG_INDEX(hdma));
 491              		.loc 1 308 0 discriminator 61
 492 0070 A349     		ldr	r1, .L162+20	@ tmp155,
 493 0072 8B42     		cmp	r3, r1	@ D.13970, tmp155
 494 0074 09D0     		beq	.L120	@,
 308:../STM32Cube_FW_F4_V1.4.0/Drivers/STM32F4xx_HAL_Driver/Src/stm32f4xx_hal_dma.c ****   __HAL_DMA_CLEAR_FLAG(hdma, __HAL_DMA_GET_TC_FLAG_INDEX(hdma));
 495              		.loc 1 308 0 discriminator 69
 496 0076 1831     		adds	r1, r1, #24	@ tmp156, tmp156,
 497 0078 8B42     		cmp	r3, r1	@ D.13970, tmp156
 498 007a 14BF     		ite	ne	@
 499 007c 4FF08071 		movne	r1, #16777216	@, D.13968,
 500 0080 4FF48021 		moveq	r1, #262144	@, D.13968,
 501 0084 03E0     		b	.L79	@
 502              	.L119:
 308:../STM32Cube_FW_F4_V1.4.0/Drivers/STM32F4xx_HAL_Driver/Src/stm32f4xx_hal_dma.c ****   __HAL_DMA_CLEAR_FLAG(hdma, __HAL_DMA_GET_TC_FLAG_INDEX(hdma));
 503              		.loc 1 308 0
 504 0086 9B49     		ldr	r1, .L162+8	@ D.13968,
 505 0088 01E0     		b	.L79	@
 506              	.L120:
 507 008a 4FF48071 		mov	r1, #256	@ D.13968,
 508              	.L79:
 308:../STM32Cube_FW_F4_V1.4.0/Drivers/STM32F4xx_HAL_Driver/Src/stm32f4xx_hal_dma.c ****   __HAL_DMA_CLEAR_FLAG(hdma, __HAL_DMA_GET_TC_FLAG_INDEX(hdma));
 509              		.loc 1 308 0 discriminator 100
 510 008e 9A4C     		ldr	r4, .L162+12	@ tmp157,
 511              		.loc 1 309 0 is_stmt 1 discriminator 100
 512 0090 9342     		cmp	r3, r2	@ D.13970, tmp237
 308:../STM32Cube_FW_F4_V1.4.0/Drivers/STM32F4xx_HAL_Driver/Src/stm32f4xx_hal_dma.c ****   __HAL_DMA_CLEAR_FLAG(hdma, __HAL_DMA_GET_TC_FLAG_INDEX(hdma));
 513              		.loc 1 308 0 discriminator 100
 514 0092 A160     		str	r1, [r4, #8]	@ D.13968, MEM[(struct DMA_TypeDef *)1073898496B].LIFCR
 515              		.loc 1 309 0 discriminator 100
 516 0094 46D1     		bne	.L80	@,
 517              		.loc 1 309 0 is_stmt 0
 518 0096 2021     		movs	r1, #32	@ D.13968,
 519 0098 51E0     		b	.L81	@
 520              	.L78:
 308:../STM32Cube_FW_F4_V1.4.0/Drivers/STM32F4xx_HAL_Driver/Src/stm32f4xx_hal_dma.c ****   __HAL_DMA_CLEAR_FLAG(hdma, __HAL_DMA_GET_TC_FLAG_INDEX(hdma));
 521              		.loc 1 308 0 is_stmt 1 discriminator 52
 522 009a 9A4A     		ldr	r2, .L162+24	@ tmp159,
 523 009c 9342     		cmp	r3, r2	@ D.13970, tmp159
 524 009e 17D9     		bls	.L82	@,
 308:../STM32Cube_FW_F4_V1.4.0/Drivers/STM32F4xx_HAL_Driver/Src/stm32f4xx_hal_dma.c ****   __HAL_DMA_CLEAR_FLAG(hdma, __HAL_DMA_GET_TC_FLAG_INDEX(hdma));
 525              		.loc 1 308 0 is_stmt 0 discriminator 106
 526 00a0 1832     		adds	r2, r2, #24	@ tmp160, tmp160,
 527 00a2 9342     		cmp	r3, r2	@ D.13970, tmp160
 528 00a4 0AD0     		beq	.L122	@,
ARM GAS  C:\cygwin\tmp\cc1Jaa0f.s 			page 16


 308:../STM32Cube_FW_F4_V1.4.0/Drivers/STM32F4xx_HAL_Driver/Src/stm32f4xx_hal_dma.c ****   __HAL_DMA_CLEAR_FLAG(hdma, __HAL_DMA_GET_TC_FLAG_INDEX(hdma));
 529              		.loc 1 308 0 discriminator 114
 530 00a6 9849     		ldr	r1, .L162+28	@ tmp161,
 531 00a8 8B42     		cmp	r3, r1	@ D.13970, tmp161
 532 00aa 09D0     		beq	.L123	@,
 308:../STM32Cube_FW_F4_V1.4.0/Drivers/STM32F4xx_HAL_Driver/Src/stm32f4xx_hal_dma.c ****   __HAL_DMA_CLEAR_FLAG(hdma, __HAL_DMA_GET_TC_FLAG_INDEX(hdma));
 533              		.loc 1 308 0 discriminator 122
 534 00ac 1831     		adds	r1, r1, #24	@ tmp162, tmp162,
 535 00ae 8B42     		cmp	r3, r1	@ D.13970, tmp162
 536 00b0 14BF     		ite	ne	@
 537 00b2 4FF08071 		movne	r1, #16777216	@, D.13968,
 538 00b6 4FF48021 		moveq	r1, #262144	@, D.13968,
 539 00ba 03E0     		b	.L83	@
 540              	.L122:
 308:../STM32Cube_FW_F4_V1.4.0/Drivers/STM32F4xx_HAL_Driver/Src/stm32f4xx_hal_dma.c ****   __HAL_DMA_CLEAR_FLAG(hdma, __HAL_DMA_GET_TC_FLAG_INDEX(hdma));
 541              		.loc 1 308 0
 542 00bc 8D49     		ldr	r1, .L162+8	@ D.13968,
 543 00be 01E0     		b	.L83	@
 544              	.L123:
 545 00c0 4FF48071 		mov	r1, #256	@ D.13968,
 546              	.L83:
 308:../STM32Cube_FW_F4_V1.4.0/Drivers/STM32F4xx_HAL_Driver/Src/stm32f4xx_hal_dma.c ****   __HAL_DMA_CLEAR_FLAG(hdma, __HAL_DMA_GET_TC_FLAG_INDEX(hdma));
 547              		.loc 1 308 0 discriminator 151
 548 00c4 914C     		ldr	r4, .L162+32	@ tmp163,
 549              		.loc 1 309 0 is_stmt 1 discriminator 151
 550 00c6 9342     		cmp	r3, r2	@ D.13970, tmp240
 308:../STM32Cube_FW_F4_V1.4.0/Drivers/STM32F4xx_HAL_Driver/Src/stm32f4xx_hal_dma.c ****   __HAL_DMA_CLEAR_FLAG(hdma, __HAL_DMA_GET_TC_FLAG_INDEX(hdma));
 551              		.loc 1 308 0 discriminator 151
 552 00c8 E160     		str	r1, [r4, #12]	@ D.13968, MEM[(struct DMA_TypeDef *)1073897472B].HIFCR
 553              		.loc 1 309 0 discriminator 151
 554 00ca 3DD1     		bne	.L84	@,
 555              		.loc 1 309 0 is_stmt 0
 556 00cc 2021     		movs	r1, #32	@ D.13968,
 557 00ce 48E0     		b	.L85	@
 558              	.L82:
 308:../STM32Cube_FW_F4_V1.4.0/Drivers/STM32F4xx_HAL_Driver/Src/stm32f4xx_hal_dma.c ****   __HAL_DMA_CLEAR_FLAG(hdma, __HAL_DMA_GET_TC_FLAG_INDEX(hdma));
 559              		.loc 1 308 0 is_stmt 1 discriminator 103
 560 00d0 8F4A     		ldr	r2, .L162+36	@ tmp165,
 561 00d2 9342     		cmp	r3, r2	@ D.13970, tmp165
 562 00d4 0AD0     		beq	.L125	@,
 308:../STM32Cube_FW_F4_V1.4.0/Drivers/STM32F4xx_HAL_Driver/Src/stm32f4xx_hal_dma.c ****   __HAL_DMA_CLEAR_FLAG(hdma, __HAL_DMA_GET_TC_FLAG_INDEX(hdma));
 563              		.loc 1 308 0 is_stmt 0 discriminator 159
 564 00d6 8F49     		ldr	r1, .L162+40	@ tmp166,
 565 00d8 8B42     		cmp	r3, r1	@ D.13970, tmp166
 566 00da 09D0     		beq	.L126	@,
 308:../STM32Cube_FW_F4_V1.4.0/Drivers/STM32F4xx_HAL_Driver/Src/stm32f4xx_hal_dma.c ****   __HAL_DMA_CLEAR_FLAG(hdma, __HAL_DMA_GET_TC_FLAG_INDEX(hdma));
 567              		.loc 1 308 0 discriminator 167
 568 00dc 1831     		adds	r1, r1, #24	@ tmp167, tmp167,
 569 00de 8B42     		cmp	r3, r1	@ D.13970, tmp167
 570 00e0 14BF     		ite	ne	@
 571 00e2 4FF08071 		movne	r1, #16777216	@, D.13968,
 572 00e6 4FF48021 		moveq	r1, #262144	@, D.13968,
 573 00ea 03E0     		b	.L86	@
 574              	.L125:
 308:../STM32Cube_FW_F4_V1.4.0/Drivers/STM32F4xx_HAL_Driver/Src/stm32f4xx_hal_dma.c ****   __HAL_DMA_CLEAR_FLAG(hdma, __HAL_DMA_GET_TC_FLAG_INDEX(hdma));
 575              		.loc 1 308 0
 576 00ec 8149     		ldr	r1, .L162+8	@ D.13968,
ARM GAS  C:\cygwin\tmp\cc1Jaa0f.s 			page 17


 577 00ee 01E0     		b	.L86	@
 578              	.L126:
 579 00f0 4FF48071 		mov	r1, #256	@ D.13968,
 580              	.L86:
 308:../STM32Cube_FW_F4_V1.4.0/Drivers/STM32F4xx_HAL_Driver/Src/stm32f4xx_hal_dma.c ****   __HAL_DMA_CLEAR_FLAG(hdma, __HAL_DMA_GET_TC_FLAG_INDEX(hdma));
 581              		.loc 1 308 0 discriminator 200
 582 00f4 854C     		ldr	r4, .L162+32	@ tmp168,
 583              		.loc 1 309 0 is_stmt 1 discriminator 200
 584 00f6 9342     		cmp	r3, r2	@ D.13970, tmp239
 308:../STM32Cube_FW_F4_V1.4.0/Drivers/STM32F4xx_HAL_Driver/Src/stm32f4xx_hal_dma.c ****   __HAL_DMA_CLEAR_FLAG(hdma, __HAL_DMA_GET_TC_FLAG_INDEX(hdma));
 585              		.loc 1 308 0 discriminator 200
 586 00f8 A160     		str	r1, [r4, #8]	@ D.13968, MEM[(struct DMA_TypeDef *)1073897472B].LIFCR
 587              		.loc 1 309 0 discriminator 200
 588 00fa 37D1     		bne	.L87	@,
 589              		.loc 1 309 0 is_stmt 0
 590 00fc 2021     		movs	r1, #32	@ D.13968,
 591 00fe 42E0     		b	.L88	@
 592              	.L76:
 593              		.loc 1 309 0 discriminator 15
 594 0100 7B49     		ldr	r1, .L162+4	@ tmp170,
 595 0102 8B42     		cmp	r3, r1	@ D.13970, tmp170
 596 0104 07D0     		beq	.L128	@,
 597              		.loc 1 309 0 discriminator 23
 598 0106 1831     		adds	r1, r1, #24	@ tmp171, tmp171,
 599 0108 8B42     		cmp	r3, r1	@ D.13970, tmp171
 600 010a 14BF     		ite	ne	@
 601 010c 4FF00061 		movne	r1, #134217728	@, D.13968,
 602 0110 4FF40011 		moveq	r1, #2097152	@, D.13968,
 603 0114 01E0     		b	.L77	@
 604              	.L128:
 605              		.loc 1 309 0
 606 0116 4FF40061 		mov	r1, #2048	@ D.13968,
 607              	.L77:
 310:../STM32Cube_FW_F4_V1.4.0/Drivers/STM32F4xx_HAL_Driver/Src/stm32f4xx_hal_dma.c ****   __HAL_DMA_CLEAR_FLAG(hdma, __HAL_DMA_GET_TE_FLAG_INDEX(hdma));
 608              		.loc 1 310 0 is_stmt 1 discriminator 50
 609 011a 9342     		cmp	r3, r2	@ D.13970, tmp236
 309:../STM32Cube_FW_F4_V1.4.0/Drivers/STM32F4xx_HAL_Driver/Src/stm32f4xx_hal_dma.c ****   __HAL_DMA_CLEAR_FLAG(hdma, __HAL_DMA_GET_TC_FLAG_INDEX(hdma));
 610              		.loc 1 309 0 discriminator 50
 611 011c E160     		str	r1, [r4, #12]	@ D.13968, MEM[(struct DMA_TypeDef *)1073898496B].HIFCR
 612              		.loc 1 310 0 discriminator 50
 613 011e 37D1     		bne	.L89	@,
 614              		.loc 1 310 0 is_stmt 0
 615 0120 0821     		movs	r1, #8	@ D.13968,
 616 0122 42E0     		b	.L90	@
 617              	.L80:
 309:../STM32Cube_FW_F4_V1.4.0/Drivers/STM32F4xx_HAL_Driver/Src/stm32f4xx_hal_dma.c ****   __HAL_DMA_CLEAR_FLAG(hdma, __HAL_DMA_GET_TC_FLAG_INDEX(hdma));
 618              		.loc 1 309 0 is_stmt 1 discriminator 61
 619 0124 7649     		ldr	r1, .L162+20	@ tmp174,
 620 0126 8B42     		cmp	r3, r1	@ D.13970, tmp174
 621 0128 07D0     		beq	.L130	@,
 309:../STM32Cube_FW_F4_V1.4.0/Drivers/STM32F4xx_HAL_Driver/Src/stm32f4xx_hal_dma.c ****   __HAL_DMA_CLEAR_FLAG(hdma, __HAL_DMA_GET_TC_FLAG_INDEX(hdma));
 622              		.loc 1 309 0 is_stmt 0 discriminator 69
 623 012a 1831     		adds	r1, r1, #24	@ tmp175, tmp175,
 624 012c 8B42     		cmp	r3, r1	@ D.13970, tmp175
 625 012e 14BF     		ite	ne	@
 626 0130 4FF00061 		movne	r1, #134217728	@, D.13968,
 627 0134 4FF40011 		moveq	r1, #2097152	@, D.13968,
ARM GAS  C:\cygwin\tmp\cc1Jaa0f.s 			page 18


 628 0138 01E0     		b	.L81	@
 629              	.L130:
 309:../STM32Cube_FW_F4_V1.4.0/Drivers/STM32F4xx_HAL_Driver/Src/stm32f4xx_hal_dma.c ****   __HAL_DMA_CLEAR_FLAG(hdma, __HAL_DMA_GET_TC_FLAG_INDEX(hdma));
 630              		.loc 1 309 0
 631 013a 4FF40061 		mov	r1, #2048	@ D.13968,
 632              	.L81:
 633              		.loc 1 310 0 is_stmt 1 discriminator 100
 634 013e 9342     		cmp	r3, r2	@ D.13970, tmp237
 309:../STM32Cube_FW_F4_V1.4.0/Drivers/STM32F4xx_HAL_Driver/Src/stm32f4xx_hal_dma.c ****   __HAL_DMA_CLEAR_FLAG(hdma, __HAL_DMA_GET_TC_FLAG_INDEX(hdma));
 635              		.loc 1 309 0 discriminator 100
 636 0140 A160     		str	r1, [r4, #8]	@ D.13968, MEM[(struct DMA_TypeDef *)1073898496B].LIFCR
 637              		.loc 1 310 0 discriminator 100
 638 0142 38D1     		bne	.L91	@,
 639              		.loc 1 310 0 is_stmt 0
 640 0144 0821     		movs	r1, #8	@ D.13968,
 641 0146 43E0     		b	.L92	@
 642              	.L84:
 309:../STM32Cube_FW_F4_V1.4.0/Drivers/STM32F4xx_HAL_Driver/Src/stm32f4xx_hal_dma.c ****   __HAL_DMA_CLEAR_FLAG(hdma, __HAL_DMA_GET_TC_FLAG_INDEX(hdma));
 643              		.loc 1 309 0 is_stmt 1 discriminator 114
 644 0148 6F49     		ldr	r1, .L162+28	@ tmp178,
 645 014a 8B42     		cmp	r3, r1	@ D.13970, tmp178
 646 014c 07D0     		beq	.L132	@,
 309:../STM32Cube_FW_F4_V1.4.0/Drivers/STM32F4xx_HAL_Driver/Src/stm32f4xx_hal_dma.c ****   __HAL_DMA_CLEAR_FLAG(hdma, __HAL_DMA_GET_TC_FLAG_INDEX(hdma));
 647              		.loc 1 309 0 is_stmt 0 discriminator 122
 648 014e 1831     		adds	r1, r1, #24	@ tmp179, tmp179,
 649 0150 8B42     		cmp	r3, r1	@ D.13970, tmp179
 650 0152 14BF     		ite	ne	@
 651 0154 4FF00061 		movne	r1, #134217728	@, D.13968,
 652 0158 4FF40011 		moveq	r1, #2097152	@, D.13968,
 653 015c 01E0     		b	.L85	@
 654              	.L132:
 309:../STM32Cube_FW_F4_V1.4.0/Drivers/STM32F4xx_HAL_Driver/Src/stm32f4xx_hal_dma.c ****   __HAL_DMA_CLEAR_FLAG(hdma, __HAL_DMA_GET_TC_FLAG_INDEX(hdma));
 655              		.loc 1 309 0
 656 015e 4FF40061 		mov	r1, #2048	@ D.13968,
 657              	.L85:
 658              		.loc 1 310 0 is_stmt 1 discriminator 151
 659 0162 9342     		cmp	r3, r2	@ D.13970, tmp240
 309:../STM32Cube_FW_F4_V1.4.0/Drivers/STM32F4xx_HAL_Driver/Src/stm32f4xx_hal_dma.c ****   __HAL_DMA_CLEAR_FLAG(hdma, __HAL_DMA_GET_TC_FLAG_INDEX(hdma));
 660              		.loc 1 309 0 discriminator 151
 661 0164 E160     		str	r1, [r4, #12]	@ D.13968, MEM[(struct DMA_TypeDef *)1073897472B].HIFCR
 662              		.loc 1 310 0 discriminator 151
 663 0166 39D1     		bne	.L93	@,
 664              		.loc 1 310 0 is_stmt 0
 665 0168 0821     		movs	r1, #8	@ D.13968,
 666 016a 44E0     		b	.L94	@
 667              	.L87:
 309:../STM32Cube_FW_F4_V1.4.0/Drivers/STM32F4xx_HAL_Driver/Src/stm32f4xx_hal_dma.c ****   __HAL_DMA_CLEAR_FLAG(hdma, __HAL_DMA_GET_TC_FLAG_INDEX(hdma));
 668              		.loc 1 309 0 is_stmt 1 discriminator 159
 669 016c 6949     		ldr	r1, .L162+40	@ tmp182,
 670 016e 8B42     		cmp	r3, r1	@ D.13970, tmp182
 671 0170 07D0     		beq	.L134	@,
 309:../STM32Cube_FW_F4_V1.4.0/Drivers/STM32F4xx_HAL_Driver/Src/stm32f4xx_hal_dma.c ****   __HAL_DMA_CLEAR_FLAG(hdma, __HAL_DMA_GET_TC_FLAG_INDEX(hdma));
 672              		.loc 1 309 0 is_stmt 0 discriminator 167
 673 0172 1831     		adds	r1, r1, #24	@ tmp183, tmp183,
 674 0174 8B42     		cmp	r3, r1	@ D.13970, tmp183
 675 0176 14BF     		ite	ne	@
 676 0178 4FF00061 		movne	r1, #134217728	@, D.13968,
ARM GAS  C:\cygwin\tmp\cc1Jaa0f.s 			page 19


 677 017c 4FF40011 		moveq	r1, #2097152	@, D.13968,
 678 0180 01E0     		b	.L88	@
 679              	.L134:
 309:../STM32Cube_FW_F4_V1.4.0/Drivers/STM32F4xx_HAL_Driver/Src/stm32f4xx_hal_dma.c ****   __HAL_DMA_CLEAR_FLAG(hdma, __HAL_DMA_GET_TC_FLAG_INDEX(hdma));
 680              		.loc 1 309 0
 681 0182 4FF40061 		mov	r1, #2048	@ D.13968,
 682              	.L88:
 683              		.loc 1 310 0 is_stmt 1 discriminator 200
 684 0186 9342     		cmp	r3, r2	@ D.13970, tmp239
 309:../STM32Cube_FW_F4_V1.4.0/Drivers/STM32F4xx_HAL_Driver/Src/stm32f4xx_hal_dma.c ****   __HAL_DMA_CLEAR_FLAG(hdma, __HAL_DMA_GET_TC_FLAG_INDEX(hdma));
 685              		.loc 1 309 0 discriminator 200
 686 0188 A160     		str	r1, [r4, #8]	@ D.13968, MEM[(struct DMA_TypeDef *)1073897472B].LIFCR
 687              		.loc 1 310 0 discriminator 200
 688 018a 3AD1     		bne	.L95	@,
 689              		.loc 1 310 0 is_stmt 0
 690 018c 0821     		movs	r1, #8	@ D.13968,
 691 018e 45E0     		b	.L96	@
 692              	.L89:
 693              		.loc 1 310 0 discriminator 15
 694 0190 5749     		ldr	r1, .L162+4	@ tmp186,
 695 0192 8B42     		cmp	r3, r1	@ D.13970, tmp186
 696 0194 07D0     		beq	.L136	@,
 697              		.loc 1 310 0 discriminator 23
 698 0196 1831     		adds	r1, r1, #24	@ tmp187, tmp187,
 699 0198 8B42     		cmp	r3, r1	@ D.13970, tmp187
 700 019a 14BF     		ite	ne	@
 701 019c 4FF00071 		movne	r1, #33554432	@, D.13968,
 702 01a0 4FF40021 		moveq	r1, #524288	@, D.13968,
 703 01a4 01E0     		b	.L90	@
 704              	.L136:
 705              		.loc 1 310 0
 706 01a6 4FF40071 		mov	r1, #512	@ D.13968,
 707              	.L90:
 708              		.loc 1 310 0 discriminator 50
 709 01aa 534C     		ldr	r4, .L162+12	@ tmp188,
 311:../STM32Cube_FW_F4_V1.4.0/Drivers/STM32F4xx_HAL_Driver/Src/stm32f4xx_hal_dma.c ****   __HAL_DMA_CLEAR_FLAG(hdma, __HAL_DMA_GET_FE_FLAG_INDEX(hdma));
 710              		.loc 1 311 0 is_stmt 1 discriminator 50
 711 01ac 9342     		cmp	r3, r2	@ D.13970, tmp236
 310:../STM32Cube_FW_F4_V1.4.0/Drivers/STM32F4xx_HAL_Driver/Src/stm32f4xx_hal_dma.c ****   __HAL_DMA_CLEAR_FLAG(hdma, __HAL_DMA_GET_TE_FLAG_INDEX(hdma));
 712              		.loc 1 310 0 discriminator 50
 713 01ae E160     		str	r1, [r4, #12]	@ D.13968, MEM[(struct DMA_TypeDef *)1073898496B].HIFCR
 714              		.loc 1 311 0 discriminator 50
 715 01b0 3AD1     		bne	.L97	@,
 716              		.loc 1 311 0 is_stmt 0
 717 01b2 5949     		ldr	r1, .L162+44	@ D.13968,
 718 01b4 44E0     		b	.L98	@
 719              	.L91:
 310:../STM32Cube_FW_F4_V1.4.0/Drivers/STM32F4xx_HAL_Driver/Src/stm32f4xx_hal_dma.c ****   __HAL_DMA_CLEAR_FLAG(hdma, __HAL_DMA_GET_TE_FLAG_INDEX(hdma));
 720              		.loc 1 310 0 is_stmt 1 discriminator 61
 721 01b6 5249     		ldr	r1, .L162+20	@ tmp190,
 722 01b8 8B42     		cmp	r3, r1	@ D.13970, tmp190
 723 01ba 07D0     		beq	.L138	@,
 310:../STM32Cube_FW_F4_V1.4.0/Drivers/STM32F4xx_HAL_Driver/Src/stm32f4xx_hal_dma.c ****   __HAL_DMA_CLEAR_FLAG(hdma, __HAL_DMA_GET_TE_FLAG_INDEX(hdma));
 724              		.loc 1 310 0 is_stmt 0 discriminator 69
 725 01bc 1831     		adds	r1, r1, #24	@ tmp191, tmp191,
 726 01be 8B42     		cmp	r3, r1	@ D.13970, tmp191
 727 01c0 14BF     		ite	ne	@
ARM GAS  C:\cygwin\tmp\cc1Jaa0f.s 			page 20


 728 01c2 4FF00071 		movne	r1, #33554432	@, D.13968,
 729 01c6 4FF40021 		moveq	r1, #524288	@, D.13968,
 730 01ca 01E0     		b	.L92	@
 731              	.L138:
 310:../STM32Cube_FW_F4_V1.4.0/Drivers/STM32F4xx_HAL_Driver/Src/stm32f4xx_hal_dma.c ****   __HAL_DMA_CLEAR_FLAG(hdma, __HAL_DMA_GET_TE_FLAG_INDEX(hdma));
 732              		.loc 1 310 0
 733 01cc 4FF40071 		mov	r1, #512	@ D.13968,
 734              	.L92:
 310:../STM32Cube_FW_F4_V1.4.0/Drivers/STM32F4xx_HAL_Driver/Src/stm32f4xx_hal_dma.c ****   __HAL_DMA_CLEAR_FLAG(hdma, __HAL_DMA_GET_TE_FLAG_INDEX(hdma));
 735              		.loc 1 310 0 discriminator 100
 736 01d0 494C     		ldr	r4, .L162+12	@ tmp192,
 737              		.loc 1 311 0 is_stmt 1 discriminator 100
 738 01d2 9342     		cmp	r3, r2	@ D.13970, tmp237
 310:../STM32Cube_FW_F4_V1.4.0/Drivers/STM32F4xx_HAL_Driver/Src/stm32f4xx_hal_dma.c ****   __HAL_DMA_CLEAR_FLAG(hdma, __HAL_DMA_GET_TE_FLAG_INDEX(hdma));
 739              		.loc 1 310 0 discriminator 100
 740 01d4 A160     		str	r1, [r4, #8]	@ D.13968, MEM[(struct DMA_TypeDef *)1073898496B].LIFCR
 741              		.loc 1 311 0 discriminator 100
 742 01d6 38D1     		bne	.L99	@,
 743              		.loc 1 311 0 is_stmt 0
 744 01d8 4F49     		ldr	r1, .L162+44	@ D.13968,
 745 01da 42E0     		b	.L100	@
 746              	.L93:
 310:../STM32Cube_FW_F4_V1.4.0/Drivers/STM32F4xx_HAL_Driver/Src/stm32f4xx_hal_dma.c ****   __HAL_DMA_CLEAR_FLAG(hdma, __HAL_DMA_GET_TE_FLAG_INDEX(hdma));
 747              		.loc 1 310 0 is_stmt 1 discriminator 114
 748 01dc 4A49     		ldr	r1, .L162+28	@ tmp194,
 749 01de 8B42     		cmp	r3, r1	@ D.13970, tmp194
 750 01e0 07D0     		beq	.L140	@,
 310:../STM32Cube_FW_F4_V1.4.0/Drivers/STM32F4xx_HAL_Driver/Src/stm32f4xx_hal_dma.c ****   __HAL_DMA_CLEAR_FLAG(hdma, __HAL_DMA_GET_TE_FLAG_INDEX(hdma));
 751              		.loc 1 310 0 is_stmt 0 discriminator 122
 752 01e2 1831     		adds	r1, r1, #24	@ tmp195, tmp195,
 753 01e4 8B42     		cmp	r3, r1	@ D.13970, tmp195
 754 01e6 14BF     		ite	ne	@
 755 01e8 4FF00071 		movne	r1, #33554432	@, D.13968,
 756 01ec 4FF40021 		moveq	r1, #524288	@, D.13968,
 757 01f0 01E0     		b	.L94	@
 758              	.L140:
 310:../STM32Cube_FW_F4_V1.4.0/Drivers/STM32F4xx_HAL_Driver/Src/stm32f4xx_hal_dma.c ****   __HAL_DMA_CLEAR_FLAG(hdma, __HAL_DMA_GET_TE_FLAG_INDEX(hdma));
 759              		.loc 1 310 0
 760 01f2 4FF40071 		mov	r1, #512	@ D.13968,
 761              	.L94:
 310:../STM32Cube_FW_F4_V1.4.0/Drivers/STM32F4xx_HAL_Driver/Src/stm32f4xx_hal_dma.c ****   __HAL_DMA_CLEAR_FLAG(hdma, __HAL_DMA_GET_TE_FLAG_INDEX(hdma));
 762              		.loc 1 310 0 discriminator 151
 763 01f6 454C     		ldr	r4, .L162+32	@ tmp196,
 764              		.loc 1 311 0 is_stmt 1 discriminator 151
 765 01f8 9342     		cmp	r3, r2	@ D.13970, tmp240
 310:../STM32Cube_FW_F4_V1.4.0/Drivers/STM32F4xx_HAL_Driver/Src/stm32f4xx_hal_dma.c ****   __HAL_DMA_CLEAR_FLAG(hdma, __HAL_DMA_GET_TE_FLAG_INDEX(hdma));
 766              		.loc 1 310 0 discriminator 151
 767 01fa E160     		str	r1, [r4, #12]	@ D.13968, MEM[(struct DMA_TypeDef *)1073897472B].HIFCR
 768              		.loc 1 311 0 discriminator 151
 769 01fc 36D1     		bne	.L101	@,
 770              		.loc 1 311 0 is_stmt 0
 771 01fe 4649     		ldr	r1, .L162+44	@ D.13968,
 772 0200 40E0     		b	.L102	@
 773              	.L95:
 310:../STM32Cube_FW_F4_V1.4.0/Drivers/STM32F4xx_HAL_Driver/Src/stm32f4xx_hal_dma.c ****   __HAL_DMA_CLEAR_FLAG(hdma, __HAL_DMA_GET_TE_FLAG_INDEX(hdma));
 774              		.loc 1 310 0 is_stmt 1 discriminator 159
 775 0202 4449     		ldr	r1, .L162+40	@ tmp198,
ARM GAS  C:\cygwin\tmp\cc1Jaa0f.s 			page 21


 776 0204 8B42     		cmp	r3, r1	@ D.13970, tmp198
 777 0206 07D0     		beq	.L142	@,
 310:../STM32Cube_FW_F4_V1.4.0/Drivers/STM32F4xx_HAL_Driver/Src/stm32f4xx_hal_dma.c ****   __HAL_DMA_CLEAR_FLAG(hdma, __HAL_DMA_GET_TE_FLAG_INDEX(hdma));
 778              		.loc 1 310 0 is_stmt 0 discriminator 167
 779 0208 1831     		adds	r1, r1, #24	@ tmp199, tmp199,
 780 020a 8B42     		cmp	r3, r1	@ D.13970, tmp199
 781 020c 14BF     		ite	ne	@
 782 020e 4FF00071 		movne	r1, #33554432	@, D.13968,
 783 0212 4FF40021 		moveq	r1, #524288	@, D.13968,
 784 0216 01E0     		b	.L96	@
 785              	.L142:
 310:../STM32Cube_FW_F4_V1.4.0/Drivers/STM32F4xx_HAL_Driver/Src/stm32f4xx_hal_dma.c ****   __HAL_DMA_CLEAR_FLAG(hdma, __HAL_DMA_GET_TE_FLAG_INDEX(hdma));
 786              		.loc 1 310 0
 787 0218 4FF40071 		mov	r1, #512	@ D.13968,
 788              	.L96:
 310:../STM32Cube_FW_F4_V1.4.0/Drivers/STM32F4xx_HAL_Driver/Src/stm32f4xx_hal_dma.c ****   __HAL_DMA_CLEAR_FLAG(hdma, __HAL_DMA_GET_TE_FLAG_INDEX(hdma));
 789              		.loc 1 310 0 discriminator 200
 790 021c 3B4C     		ldr	r4, .L162+32	@ tmp200,
 791              		.loc 1 311 0 is_stmt 1 discriminator 200
 792 021e 9342     		cmp	r3, r2	@ D.13970, tmp239
 310:../STM32Cube_FW_F4_V1.4.0/Drivers/STM32F4xx_HAL_Driver/Src/stm32f4xx_hal_dma.c ****   __HAL_DMA_CLEAR_FLAG(hdma, __HAL_DMA_GET_TE_FLAG_INDEX(hdma));
 793              		.loc 1 310 0 discriminator 200
 794 0220 A160     		str	r1, [r4, #8]	@ D.13968, MEM[(struct DMA_TypeDef *)1073897472B].LIFCR
 795              		.loc 1 311 0 discriminator 200
 796 0222 34D1     		bne	.L103	@,
 797              		.loc 1 311 0 is_stmt 0
 798 0224 3C49     		ldr	r1, .L162+44	@ D.13968,
 799 0226 3EE0     		b	.L104	@
 800              	.L97:
 801              		.loc 1 311 0 discriminator 15
 802 0228 3149     		ldr	r1, .L162+4	@ tmp202,
 803 022a 8B42     		cmp	r3, r1	@ D.13970, tmp202
 804 022c 07D0     		beq	.L144	@,
 805              		.loc 1 311 0 discriminator 23
 806 022e 1831     		adds	r1, r1, #24	@ tmp203, tmp203,
 807 0230 8B42     		cmp	r3, r1	@ D.13970, tmp203
 808 0232 14BF     		ite	ne	@
 809 0234 4FF48001 		movne	r1, #4194304	@, D.13968,
 810 0238 4FF48031 		moveq	r1, #65536	@, D.13968,
 811 023c 00E0     		b	.L98	@
 812              	.L144:
 813              		.loc 1 311 0
 814 023e 4021     		movs	r1, #64	@ D.13968,
 815              	.L98:
 312:../STM32Cube_FW_F4_V1.4.0/Drivers/STM32F4xx_HAL_Driver/Src/stm32f4xx_hal_dma.c ****   __HAL_DMA_CLEAR_FLAG(hdma, __HAL_DMA_GET_HT_FLAG_INDEX(hdma));
 816              		.loc 1 312 0 is_stmt 1 discriminator 50
 817 0240 9342     		cmp	r3, r2	@ D.13970, tmp236
 311:../STM32Cube_FW_F4_V1.4.0/Drivers/STM32F4xx_HAL_Driver/Src/stm32f4xx_hal_dma.c ****   __HAL_DMA_CLEAR_FLAG(hdma, __HAL_DMA_GET_FE_FLAG_INDEX(hdma));
 818              		.loc 1 311 0 discriminator 50
 819 0242 E160     		str	r1, [r4, #12]	@ D.13968, MEM[(struct DMA_TypeDef *)1073898496B].HIFCR
 820              		.loc 1 312 0 discriminator 50
 821 0244 34D1     		bne	.L105	@,
 822              		.loc 1 312 0 is_stmt 0
 823 0246 1023     		movs	r3, #16	@ D.13968,
 824 0248 3FE0     		b	.L106	@
 825              	.L99:
 311:../STM32Cube_FW_F4_V1.4.0/Drivers/STM32F4xx_HAL_Driver/Src/stm32f4xx_hal_dma.c ****   __HAL_DMA_CLEAR_FLAG(hdma, __HAL_DMA_GET_FE_FLAG_INDEX(hdma));
ARM GAS  C:\cygwin\tmp\cc1Jaa0f.s 			page 22


 826              		.loc 1 311 0 is_stmt 1 discriminator 61
 827 024a 2D49     		ldr	r1, .L162+20	@ tmp206,
 828 024c 8B42     		cmp	r3, r1	@ D.13970, tmp206
 829 024e 07D0     		beq	.L146	@,
 311:../STM32Cube_FW_F4_V1.4.0/Drivers/STM32F4xx_HAL_Driver/Src/stm32f4xx_hal_dma.c ****   __HAL_DMA_CLEAR_FLAG(hdma, __HAL_DMA_GET_FE_FLAG_INDEX(hdma));
 830              		.loc 1 311 0 is_stmt 0 discriminator 69
 831 0250 1831     		adds	r1, r1, #24	@ tmp207, tmp207,
 832 0252 8B42     		cmp	r3, r1	@ D.13970, tmp207
 833 0254 14BF     		ite	ne	@
 834 0256 4FF48001 		movne	r1, #4194304	@, D.13968,
 835 025a 4FF48031 		moveq	r1, #65536	@, D.13968,
 836 025e 00E0     		b	.L100	@
 837              	.L146:
 311:../STM32Cube_FW_F4_V1.4.0/Drivers/STM32F4xx_HAL_Driver/Src/stm32f4xx_hal_dma.c ****   __HAL_DMA_CLEAR_FLAG(hdma, __HAL_DMA_GET_FE_FLAG_INDEX(hdma));
 838              		.loc 1 311 0
 839 0260 4021     		movs	r1, #64	@ D.13968,
 840              	.L100:
 841              		.loc 1 312 0 is_stmt 1 discriminator 100
 842 0262 9342     		cmp	r3, r2	@ D.13970, tmp237
 311:../STM32Cube_FW_F4_V1.4.0/Drivers/STM32F4xx_HAL_Driver/Src/stm32f4xx_hal_dma.c ****   __HAL_DMA_CLEAR_FLAG(hdma, __HAL_DMA_GET_FE_FLAG_INDEX(hdma));
 843              		.loc 1 311 0 discriminator 100
 844 0264 A160     		str	r1, [r4, #8]	@ D.13968, MEM[(struct DMA_TypeDef *)1073898496B].LIFCR
 845              		.loc 1 312 0 discriminator 100
 846 0266 32D1     		bne	.L107	@,
 847              		.loc 1 312 0 is_stmt 0
 848 0268 1023     		movs	r3, #16	@ D.13968,
 849 026a 3DE0     		b	.L108	@
 850              	.L101:
 311:../STM32Cube_FW_F4_V1.4.0/Drivers/STM32F4xx_HAL_Driver/Src/stm32f4xx_hal_dma.c ****   __HAL_DMA_CLEAR_FLAG(hdma, __HAL_DMA_GET_FE_FLAG_INDEX(hdma));
 851              		.loc 1 311 0 is_stmt 1 discriminator 114
 852 026c 2649     		ldr	r1, .L162+28	@ tmp210,
 853 026e 8B42     		cmp	r3, r1	@ D.13970, tmp210
 854 0270 07D0     		beq	.L148	@,
 311:../STM32Cube_FW_F4_V1.4.0/Drivers/STM32F4xx_HAL_Driver/Src/stm32f4xx_hal_dma.c ****   __HAL_DMA_CLEAR_FLAG(hdma, __HAL_DMA_GET_FE_FLAG_INDEX(hdma));
 855              		.loc 1 311 0 is_stmt 0 discriminator 122
 856 0272 1831     		adds	r1, r1, #24	@ tmp211, tmp211,
 857 0274 8B42     		cmp	r3, r1	@ D.13970, tmp211
 858 0276 14BF     		ite	ne	@
 859 0278 4FF48001 		movne	r1, #4194304	@, D.13968,
 860 027c 4FF48031 		moveq	r1, #65536	@, D.13968,
 861 0280 00E0     		b	.L102	@
 862              	.L148:
 311:../STM32Cube_FW_F4_V1.4.0/Drivers/STM32F4xx_HAL_Driver/Src/stm32f4xx_hal_dma.c ****   __HAL_DMA_CLEAR_FLAG(hdma, __HAL_DMA_GET_FE_FLAG_INDEX(hdma));
 863              		.loc 1 311 0
 864 0282 4021     		movs	r1, #64	@ D.13968,
 865              	.L102:
 866              		.loc 1 312 0 is_stmt 1 discriminator 151
 867 0284 9342     		cmp	r3, r2	@ D.13970, tmp240
 311:../STM32Cube_FW_F4_V1.4.0/Drivers/STM32F4xx_HAL_Driver/Src/stm32f4xx_hal_dma.c ****   __HAL_DMA_CLEAR_FLAG(hdma, __HAL_DMA_GET_FE_FLAG_INDEX(hdma));
 868              		.loc 1 311 0 discriminator 151
 869 0286 E160     		str	r1, [r4, #12]	@ D.13968, MEM[(struct DMA_TypeDef *)1073897472B].HIFCR
 870              		.loc 1 312 0 discriminator 151
 871 0288 48D1     		bne	.L109	@,
 872              		.loc 1 312 0 is_stmt 0
 873 028a 1023     		movs	r3, #16	@ D.13968,
 874 028c 53E0     		b	.L110	@
 875              	.L103:
ARM GAS  C:\cygwin\tmp\cc1Jaa0f.s 			page 23


 311:../STM32Cube_FW_F4_V1.4.0/Drivers/STM32F4xx_HAL_Driver/Src/stm32f4xx_hal_dma.c ****   __HAL_DMA_CLEAR_FLAG(hdma, __HAL_DMA_GET_FE_FLAG_INDEX(hdma));
 876              		.loc 1 311 0 is_stmt 1 discriminator 159
 877 028e 2149     		ldr	r1, .L162+40	@ tmp214,
 878 0290 8B42     		cmp	r3, r1	@ D.13970, tmp214
 879 0292 07D0     		beq	.L150	@,
 311:../STM32Cube_FW_F4_V1.4.0/Drivers/STM32F4xx_HAL_Driver/Src/stm32f4xx_hal_dma.c ****   __HAL_DMA_CLEAR_FLAG(hdma, __HAL_DMA_GET_FE_FLAG_INDEX(hdma));
 880              		.loc 1 311 0 is_stmt 0 discriminator 167
 881 0294 1831     		adds	r1, r1, #24	@ tmp215, tmp215,
 882 0296 8B42     		cmp	r3, r1	@ D.13970, tmp215
 883 0298 14BF     		ite	ne	@
 884 029a 4FF48001 		movne	r1, #4194304	@, D.13968,
 885 029e 4FF48031 		moveq	r1, #65536	@, D.13968,
 886 02a2 00E0     		b	.L104	@
 887              	.L150:
 311:../STM32Cube_FW_F4_V1.4.0/Drivers/STM32F4xx_HAL_Driver/Src/stm32f4xx_hal_dma.c ****   __HAL_DMA_CLEAR_FLAG(hdma, __HAL_DMA_GET_FE_FLAG_INDEX(hdma));
 888              		.loc 1 311 0
 889 02a4 4021     		movs	r1, #64	@ D.13968,
 890              	.L104:
 891              		.loc 1 312 0 is_stmt 1 discriminator 200
 892 02a6 9342     		cmp	r3, r2	@ D.13970, tmp239
 311:../STM32Cube_FW_F4_V1.4.0/Drivers/STM32F4xx_HAL_Driver/Src/stm32f4xx_hal_dma.c ****   __HAL_DMA_CLEAR_FLAG(hdma, __HAL_DMA_GET_FE_FLAG_INDEX(hdma));
 893              		.loc 1 311 0 discriminator 200
 894 02a8 A160     		str	r1, [r4, #8]	@ D.13968, MEM[(struct DMA_TypeDef *)1073897472B].LIFCR
 895              		.loc 1 312 0 discriminator 200
 896 02aa 47D1     		bne	.L111	@,
 897              		.loc 1 312 0 is_stmt 0
 898 02ac 1023     		movs	r3, #16	@ D.13968,
 899 02ae 52E0     		b	.L112	@
 900              	.L105:
 901              		.loc 1 312 0 discriminator 15
 902 02b0 0F4A     		ldr	r2, .L162+4	@ tmp218,
 903 02b2 9342     		cmp	r3, r2	@ D.13970, tmp218
 904 02b4 07D0     		beq	.L152	@,
 905              		.loc 1 312 0 discriminator 23
 906 02b6 1832     		adds	r2, r2, #24	@ tmp219, tmp219,
 907 02b8 9342     		cmp	r3, r2	@ D.13970, tmp219
 908 02ba 0CBF     		ite	eq	@
 909 02bc 4FF48013 		moveq	r3, #1048576	@, D.13968,
 910 02c0 4FF08063 		movne	r3, #67108864	@, D.13968,
 911 02c4 01E0     		b	.L106	@
 912              	.L152:
 913              		.loc 1 312 0
 914 02c6 4FF48063 		mov	r3, #1024	@ D.13968,
 915              	.L106:
 916              		.loc 1 312 0 discriminator 50
 917 02ca 0B4A     		ldr	r2, .L162+12	@ tmp220,
 918 02cc 34E0     		b	.L161	@
 919              	.L107:
 920              		.loc 1 312 0 discriminator 61
 921 02ce 0C4A     		ldr	r2, .L162+20	@ tmp221,
 922 02d0 9342     		cmp	r3, r2	@ D.13970, tmp221
 923 02d2 07D0     		beq	.L154	@,
 924              		.loc 1 312 0 discriminator 69
 925 02d4 1832     		adds	r2, r2, #24	@ tmp222, tmp222,
 926 02d6 9342     		cmp	r3, r2	@ D.13970, tmp222
 927 02d8 0CBF     		ite	eq	@
 928 02da 4FF48013 		moveq	r3, #1048576	@, D.13968,
ARM GAS  C:\cygwin\tmp\cc1Jaa0f.s 			page 24


 929 02de 4FF08063 		movne	r3, #67108864	@, D.13968,
 930 02e2 01E0     		b	.L108	@
 931              	.L154:
 932              		.loc 1 312 0
 933 02e4 4FF48063 		mov	r3, #1024	@ D.13968,
 934              	.L108:
 935              		.loc 1 312 0 discriminator 100
 936 02e8 034A     		ldr	r2, .L162+12	@ tmp223,
 937 02ea 35E0     		b	.L160	@
 938              	.L163:
 939              		.align	2
 940              	.L162:
 941 02ec 58640240 		.word	1073898584
 942 02f0 88640240 		.word	1073898632
 943 02f4 04008000 		.word	8388612
 944 02f8 00640240 		.word	1073898496
 945 02fc B8600240 		.word	1073897656
 946 0300 28640240 		.word	1073898536
 947 0304 58600240 		.word	1073897560
 948 0308 88600240 		.word	1073897608
 949 030c 00600240 		.word	1073897472
 950 0310 10600240 		.word	1073897488
 951 0314 28600240 		.word	1073897512
 952 0318 01008000 		.word	8388609
 953              	.L109:
 954              		.loc 1 312 0 discriminator 114
 955 031c 144A     		ldr	r2, .L164	@ tmp224,
 956 031e 9342     		cmp	r3, r2	@ D.13970, tmp224
 957 0320 07D0     		beq	.L156	@,
 958              		.loc 1 312 0 discriminator 122
 959 0322 1832     		adds	r2, r2, #24	@ tmp225, tmp225,
 960 0324 9342     		cmp	r3, r2	@ D.13970, tmp225
 961 0326 0CBF     		ite	eq	@
 962 0328 4FF48013 		moveq	r3, #1048576	@, D.13968,
 963 032c 4FF08063 		movne	r3, #67108864	@, D.13968,
 964 0330 01E0     		b	.L110	@
 965              	.L156:
 966              		.loc 1 312 0
 967 0332 4FF48063 		mov	r3, #1024	@ D.13968,
 968              	.L110:
 969              		.loc 1 312 0 discriminator 151
 970 0336 0F4A     		ldr	r2, .L164+4	@ tmp226,
 971              	.L161:
 972 0338 D360     		str	r3, [r2, #12]	@ D.13968,
 973 033a 0EE0     		b	.L113	@
 974              	.L111:
 975              		.loc 1 312 0 discriminator 159
 976 033c 0E4A     		ldr	r2, .L164+8	@ tmp227,
 977 033e 9342     		cmp	r3, r2	@ D.13970, tmp227
 978 0340 07D0     		beq	.L158	@,
 979              		.loc 1 312 0 discriminator 167
 980 0342 1832     		adds	r2, r2, #24	@ tmp228, tmp228,
 981 0344 9342     		cmp	r3, r2	@ D.13970, tmp228
 982 0346 0CBF     		ite	eq	@
 983 0348 4FF48013 		moveq	r3, #1048576	@, D.13968,
 984 034c 4FF08063 		movne	r3, #67108864	@, D.13968,
 985 0350 01E0     		b	.L112	@
ARM GAS  C:\cygwin\tmp\cc1Jaa0f.s 			page 25


 986              	.L158:
 987              		.loc 1 312 0
 988 0352 4FF48063 		mov	r3, #1024	@ D.13968,
 989              	.L112:
 990              		.loc 1 312 0 discriminator 200
 991 0356 074A     		ldr	r2, .L164+4	@ tmp229,
 992              	.L160:
 993 0358 9360     		str	r3, [r2, #8]	@ D.13968,
 994              	.L113:
 313:../STM32Cube_FW_F4_V1.4.0/Drivers/STM32F4xx_HAL_Driver/Src/stm32f4xx_hal_dma.c **** 
 314:../STM32Cube_FW_F4_V1.4.0/Drivers/STM32F4xx_HAL_Driver/Src/stm32f4xx_hal_dma.c ****   /* Initialize the error code */
 315:../STM32Cube_FW_F4_V1.4.0/Drivers/STM32F4xx_HAL_Driver/Src/stm32f4xx_hal_dma.c ****   hdma->ErrorCode = HAL_DMA_ERROR_NONE;
 995              		.loc 1 315 0 is_stmt 1
 996 035a 0023     		movs	r3, #0	@ tmp230,
 997 035c C364     		str	r3, [r0, #76]	@ tmp230, hdma_253(D)->ErrorCode
 316:../STM32Cube_FW_F4_V1.4.0/Drivers/STM32F4xx_HAL_Driver/Src/stm32f4xx_hal_dma.c **** 
 317:../STM32Cube_FW_F4_V1.4.0/Drivers/STM32F4xx_HAL_Driver/Src/stm32f4xx_hal_dma.c ****   /* Initialize the DMA state */
 318:../STM32Cube_FW_F4_V1.4.0/Drivers/STM32F4xx_HAL_Driver/Src/stm32f4xx_hal_dma.c ****   hdma->State = HAL_DMA_STATE_RESET;
 319:../STM32Cube_FW_F4_V1.4.0/Drivers/STM32F4xx_HAL_Driver/Src/stm32f4xx_hal_dma.c **** 
 320:../STM32Cube_FW_F4_V1.4.0/Drivers/STM32F4xx_HAL_Driver/Src/stm32f4xx_hal_dma.c ****   /* Release Lock */
 321:../STM32Cube_FW_F4_V1.4.0/Drivers/STM32F4xx_HAL_Driver/Src/stm32f4xx_hal_dma.c ****   __HAL_UNLOCK(hdma);
 998              		.loc 1 321 0
 999 035e 80F83430 		strb	r3, [r0, #52]	@ tmp230, hdma_253(D)->Lock
 318:../STM32Cube_FW_F4_V1.4.0/Drivers/STM32F4xx_HAL_Driver/Src/stm32f4xx_hal_dma.c **** 
 1000              		.loc 1 318 0
 1001 0362 80F83530 		strb	r3, [r0, #53]	@ tmp230, hdma_253(D)->State
 322:../STM32Cube_FW_F4_V1.4.0/Drivers/STM32F4xx_HAL_Driver/Src/stm32f4xx_hal_dma.c **** 
 323:../STM32Cube_FW_F4_V1.4.0/Drivers/STM32F4xx_HAL_Driver/Src/stm32f4xx_hal_dma.c ****   return HAL_OK;
 1002              		.loc 1 323 0
 1003 0366 1846     		mov	r0, r3	@ D.13967, tmp230
 1004              	.LVL29:
 1005 0368 10BD     		pop	{r4, pc}	@
 1006              	.LVL30:
 1007              	.L115:
 277:../STM32Cube_FW_F4_V1.4.0/Drivers/STM32F4xx_HAL_Driver/Src/stm32f4xx_hal_dma.c ****   }
 1008              		.loc 1 277 0
 1009 036a 0120     		movs	r0, #1	@ D.13967,
 1010              	.LVL31:
 324:../STM32Cube_FW_F4_V1.4.0/Drivers/STM32F4xx_HAL_Driver/Src/stm32f4xx_hal_dma.c **** }
 1011              		.loc 1 324 0
 1012 036c 10BD     		pop	{r4, pc}	@
 1013              	.L165:
 1014 036e 00BF     		.align	2
 1015              	.L164:
 1016 0370 88600240 		.word	1073897608
 1017 0374 00600240 		.word	1073897472
 1018 0378 28600240 		.word	1073897512
 1019              		.cfi_endproc
 1020              	.LFE124:
 1021              		.size	HAL_DMA_DeInit, .-HAL_DMA_DeInit
 1022              		.section	.text.HAL_DMA_Start,"ax",%progbits
 1023              		.align	1
 1024              		.global	HAL_DMA_Start
 1025              		.thumb
 1026              		.thumb_func
 1027              		.type	HAL_DMA_Start, %function
 1028              	HAL_DMA_Start:
ARM GAS  C:\cygwin\tmp\cc1Jaa0f.s 			page 26


 1029              	.LFB125:
 325:../STM32Cube_FW_F4_V1.4.0/Drivers/STM32F4xx_HAL_Driver/Src/stm32f4xx_hal_dma.c **** 
 326:../STM32Cube_FW_F4_V1.4.0/Drivers/STM32F4xx_HAL_Driver/Src/stm32f4xx_hal_dma.c **** /**
 327:../STM32Cube_FW_F4_V1.4.0/Drivers/STM32F4xx_HAL_Driver/Src/stm32f4xx_hal_dma.c ****   * @}
 328:../STM32Cube_FW_F4_V1.4.0/Drivers/STM32F4xx_HAL_Driver/Src/stm32f4xx_hal_dma.c ****   */
 329:../STM32Cube_FW_F4_V1.4.0/Drivers/STM32F4xx_HAL_Driver/Src/stm32f4xx_hal_dma.c **** 
 330:../STM32Cube_FW_F4_V1.4.0/Drivers/STM32F4xx_HAL_Driver/Src/stm32f4xx_hal_dma.c **** /** @addtogroup DMA_Exported_Functions_Group2
 331:../STM32Cube_FW_F4_V1.4.0/Drivers/STM32F4xx_HAL_Driver/Src/stm32f4xx_hal_dma.c ****   *
 332:../STM32Cube_FW_F4_V1.4.0/Drivers/STM32F4xx_HAL_Driver/Src/stm32f4xx_hal_dma.c **** @verbatim   
 333:../STM32Cube_FW_F4_V1.4.0/Drivers/STM32F4xx_HAL_Driver/Src/stm32f4xx_hal_dma.c ****  ===============================================================================
 334:../STM32Cube_FW_F4_V1.4.0/Drivers/STM32F4xx_HAL_Driver/Src/stm32f4xx_hal_dma.c ****                       #####  IO operation functions  #####
 335:../STM32Cube_FW_F4_V1.4.0/Drivers/STM32F4xx_HAL_Driver/Src/stm32f4xx_hal_dma.c ****  ===============================================================================  
 336:../STM32Cube_FW_F4_V1.4.0/Drivers/STM32F4xx_HAL_Driver/Src/stm32f4xx_hal_dma.c ****     [..]  This section provides functions allowing to:
 337:../STM32Cube_FW_F4_V1.4.0/Drivers/STM32F4xx_HAL_Driver/Src/stm32f4xx_hal_dma.c ****       (+) Configure the source, destination address and data length and Start DMA transfer
 338:../STM32Cube_FW_F4_V1.4.0/Drivers/STM32F4xx_HAL_Driver/Src/stm32f4xx_hal_dma.c ****       (+) Configure the source, destination address and data length and 
 339:../STM32Cube_FW_F4_V1.4.0/Drivers/STM32F4xx_HAL_Driver/Src/stm32f4xx_hal_dma.c ****           Start DMA transfer with interrupt
 340:../STM32Cube_FW_F4_V1.4.0/Drivers/STM32F4xx_HAL_Driver/Src/stm32f4xx_hal_dma.c ****       (+) Abort DMA transfer
 341:../STM32Cube_FW_F4_V1.4.0/Drivers/STM32F4xx_HAL_Driver/Src/stm32f4xx_hal_dma.c ****       (+) Poll for transfer complete
 342:../STM32Cube_FW_F4_V1.4.0/Drivers/STM32F4xx_HAL_Driver/Src/stm32f4xx_hal_dma.c ****       (+) Handle DMA interrupt request  
 343:../STM32Cube_FW_F4_V1.4.0/Drivers/STM32F4xx_HAL_Driver/Src/stm32f4xx_hal_dma.c **** 
 344:../STM32Cube_FW_F4_V1.4.0/Drivers/STM32F4xx_HAL_Driver/Src/stm32f4xx_hal_dma.c **** @endverbatim
 345:../STM32Cube_FW_F4_V1.4.0/Drivers/STM32F4xx_HAL_Driver/Src/stm32f4xx_hal_dma.c ****   * @{
 346:../STM32Cube_FW_F4_V1.4.0/Drivers/STM32F4xx_HAL_Driver/Src/stm32f4xx_hal_dma.c ****   */
 347:../STM32Cube_FW_F4_V1.4.0/Drivers/STM32F4xx_HAL_Driver/Src/stm32f4xx_hal_dma.c **** 
 348:../STM32Cube_FW_F4_V1.4.0/Drivers/STM32F4xx_HAL_Driver/Src/stm32f4xx_hal_dma.c **** /**
 349:../STM32Cube_FW_F4_V1.4.0/Drivers/STM32F4xx_HAL_Driver/Src/stm32f4xx_hal_dma.c ****   * @brief  Starts the DMA Transfer.
 350:../STM32Cube_FW_F4_V1.4.0/Drivers/STM32F4xx_HAL_Driver/Src/stm32f4xx_hal_dma.c ****   * @param  hdma      : pointer to a DMA_HandleTypeDef structure that contains
 351:../STM32Cube_FW_F4_V1.4.0/Drivers/STM32F4xx_HAL_Driver/Src/stm32f4xx_hal_dma.c ****   *                     the configuration information for the specified DMA Stream.  
 352:../STM32Cube_FW_F4_V1.4.0/Drivers/STM32F4xx_HAL_Driver/Src/stm32f4xx_hal_dma.c ****   * @param  SrcAddress: The source memory Buffer address
 353:../STM32Cube_FW_F4_V1.4.0/Drivers/STM32F4xx_HAL_Driver/Src/stm32f4xx_hal_dma.c ****   * @param  DstAddress: The destination memory Buffer address
 354:../STM32Cube_FW_F4_V1.4.0/Drivers/STM32F4xx_HAL_Driver/Src/stm32f4xx_hal_dma.c ****   * @param  DataLength: The length of data to be transferred from source to destination
 355:../STM32Cube_FW_F4_V1.4.0/Drivers/STM32F4xx_HAL_Driver/Src/stm32f4xx_hal_dma.c ****   * @retval HAL status
 356:../STM32Cube_FW_F4_V1.4.0/Drivers/STM32F4xx_HAL_Driver/Src/stm32f4xx_hal_dma.c ****   */
 357:../STM32Cube_FW_F4_V1.4.0/Drivers/STM32F4xx_HAL_Driver/Src/stm32f4xx_hal_dma.c **** HAL_StatusTypeDef HAL_DMA_Start(DMA_HandleTypeDef *hdma, uint32_t SrcAddress, uint32_t DstAddress, 
 358:../STM32Cube_FW_F4_V1.4.0/Drivers/STM32F4xx_HAL_Driver/Src/stm32f4xx_hal_dma.c **** {
 1030              		.loc 1 358 0
 1031              		.cfi_startproc
 1032              		@ args = 0, pretend = 0, frame = 0
 1033              		@ frame_needed = 0, uses_anonymous_args = 0
 1034              	.LVL32:
 1035 0000 F8B5     		push	{r3, r4, r5, r6, r7, lr}	@
 1036              		.cfi_def_cfa_offset 24
 1037              		.cfi_offset 3, -24
 1038              		.cfi_offset 4, -20
 1039              		.cfi_offset 5, -16
 1040              		.cfi_offset 6, -12
 1041              		.cfi_offset 7, -8
 1042              		.cfi_offset 14, -4
 1043              		.loc 1 358 0
 1044 0002 1F46     		mov	r7, r3	@ DataLength, DataLength
 359:../STM32Cube_FW_F4_V1.4.0/Drivers/STM32F4xx_HAL_Driver/Src/stm32f4xx_hal_dma.c ****   /* Process locked */
 360:../STM32Cube_FW_F4_V1.4.0/Drivers/STM32F4xx_HAL_Driver/Src/stm32f4xx_hal_dma.c ****   __HAL_LOCK(hdma);
 1045              		.loc 1 360 0
 1046 0004 90F83430 		ldrb	r3, [r0, #52]	@ zero_extendqisi2	@ hdma_5(D)->Lock, hdma_5(D)->Lock
 1047              	.LVL33:
 1048 0008 012B     		cmp	r3, #1	@ hdma_5(D)->Lock,
 358:../STM32Cube_FW_F4_V1.4.0/Drivers/STM32F4xx_HAL_Driver/Src/stm32f4xx_hal_dma.c ****   /* Process locked */
ARM GAS  C:\cygwin\tmp\cc1Jaa0f.s 			page 27


 1049              		.loc 1 358 0
 1050 000a 0446     		mov	r4, r0	@ hdma, hdma
 1051 000c 0E46     		mov	r6, r1	@ SrcAddress, SrcAddress
 1052 000e 1546     		mov	r5, r2	@ DstAddress, DstAddress
 1053 0010 4FF00200 		mov	r0, #2	@ D.13977,
 1054              	.LVL34:
 1055              		.loc 1 360 0
 1056 0014 24D0     		beq	.L167	@,
 1057              		.loc 1 360 0 is_stmt 0 discriminator 2
 1058 0016 0123     		movs	r3, #1	@ tmp127,
 1059 0018 84F83430 		strb	r3, [r4, #52]	@ tmp127, hdma_5(D)->Lock
 361:../STM32Cube_FW_F4_V1.4.0/Drivers/STM32F4xx_HAL_Driver/Src/stm32f4xx_hal_dma.c **** 
 362:../STM32Cube_FW_F4_V1.4.0/Drivers/STM32F4xx_HAL_Driver/Src/stm32f4xx_hal_dma.c ****   /* Change DMA peripheral state */
 363:../STM32Cube_FW_F4_V1.4.0/Drivers/STM32F4xx_HAL_Driver/Src/stm32f4xx_hal_dma.c ****   hdma->State = HAL_DMA_STATE_BUSY;
 364:../STM32Cube_FW_F4_V1.4.0/Drivers/STM32F4xx_HAL_Driver/Src/stm32f4xx_hal_dma.c **** 
 365:../STM32Cube_FW_F4_V1.4.0/Drivers/STM32F4xx_HAL_Driver/Src/stm32f4xx_hal_dma.c ****    /* Check the parameters */
 366:../STM32Cube_FW_F4_V1.4.0/Drivers/STM32F4xx_HAL_Driver/Src/stm32f4xx_hal_dma.c ****   assert_param(IS_DMA_BUFFER_SIZE(DataLength));
 1060              		.loc 1 366 0 is_stmt 1 discriminator 2
 1061 001c 7A1E     		subs	r2, r7, #1	@ D.13979, DataLength,
 1062              	.LVL35:
 1063 001e 4FF6FE73 		movw	r3, #65534	@ tmp132,
 1064 0022 9A42     		cmp	r2, r3	@ D.13979, tmp132
 363:../STM32Cube_FW_F4_V1.4.0/Drivers/STM32F4xx_HAL_Driver/Src/stm32f4xx_hal_dma.c **** 
 1065              		.loc 1 363 0 discriminator 2
 1066 0024 84F83500 		strb	r0, [r4, #53]	@ D.13977, hdma_5(D)->State
 1067              		.loc 1 366 0 discriminator 2
 1068 0028 04D9     		bls	.L168	@,
 1069              		.loc 1 366 0 is_stmt 0 discriminator 1
 1070 002a 0E48     		ldr	r0, .L172	@,
 1071 002c 4FF4B771 		mov	r1, #366	@,
 1072              	.LVL36:
 1073 0030 FFF7FEFF 		bl	assert_failed	@
 1074              	.LVL37:
 1075              	.L168:
 367:../STM32Cube_FW_F4_V1.4.0/Drivers/STM32F4xx_HAL_Driver/Src/stm32f4xx_hal_dma.c **** 
 368:../STM32Cube_FW_F4_V1.4.0/Drivers/STM32F4xx_HAL_Driver/Src/stm32f4xx_hal_dma.c ****   /* Disable the peripheral */
 369:../STM32Cube_FW_F4_V1.4.0/Drivers/STM32F4xx_HAL_Driver/Src/stm32f4xx_hal_dma.c ****   __HAL_DMA_DISABLE(hdma);
 1076              		.loc 1 369 0 is_stmt 1
 1077 0034 2168     		ldr	r1, [r4]	@ D.13980, hdma_5(D)->Instance
 1078              	.LBB4:
 1079              	.LBB5:
 370:../STM32Cube_FW_F4_V1.4.0/Drivers/STM32F4xx_HAL_Driver/Src/stm32f4xx_hal_dma.c **** 
 371:../STM32Cube_FW_F4_V1.4.0/Drivers/STM32F4xx_HAL_Driver/Src/stm32f4xx_hal_dma.c ****   /* Configure the source, destination address and the data length */
 372:../STM32Cube_FW_F4_V1.4.0/Drivers/STM32F4xx_HAL_Driver/Src/stm32f4xx_hal_dma.c ****   DMA_SetConfig(hdma, SrcAddress, DstAddress, DataLength);
 373:../STM32Cube_FW_F4_V1.4.0/Drivers/STM32F4xx_HAL_Driver/Src/stm32f4xx_hal_dma.c **** 
 374:../STM32Cube_FW_F4_V1.4.0/Drivers/STM32F4xx_HAL_Driver/Src/stm32f4xx_hal_dma.c ****   /* Enable the Peripheral */
 375:../STM32Cube_FW_F4_V1.4.0/Drivers/STM32F4xx_HAL_Driver/Src/stm32f4xx_hal_dma.c ****   __HAL_DMA_ENABLE(hdma);
 376:../STM32Cube_FW_F4_V1.4.0/Drivers/STM32F4xx_HAL_Driver/Src/stm32f4xx_hal_dma.c **** 
 377:../STM32Cube_FW_F4_V1.4.0/Drivers/STM32F4xx_HAL_Driver/Src/stm32f4xx_hal_dma.c ****   return HAL_OK; 
 378:../STM32Cube_FW_F4_V1.4.0/Drivers/STM32F4xx_HAL_Driver/Src/stm32f4xx_hal_dma.c **** }
 379:../STM32Cube_FW_F4_V1.4.0/Drivers/STM32F4xx_HAL_Driver/Src/stm32f4xx_hal_dma.c **** 
 380:../STM32Cube_FW_F4_V1.4.0/Drivers/STM32F4xx_HAL_Driver/Src/stm32f4xx_hal_dma.c **** /**
 381:../STM32Cube_FW_F4_V1.4.0/Drivers/STM32F4xx_HAL_Driver/Src/stm32f4xx_hal_dma.c ****   * @brief  Start the DMA Transfer with interrupt enabled.
 382:../STM32Cube_FW_F4_V1.4.0/Drivers/STM32F4xx_HAL_Driver/Src/stm32f4xx_hal_dma.c ****   * @param  hdma:       pointer to a DMA_HandleTypeDef structure that contains
 383:../STM32Cube_FW_F4_V1.4.0/Drivers/STM32F4xx_HAL_Driver/Src/stm32f4xx_hal_dma.c ****   *                     the configuration information for the specified DMA Stream.  
 384:../STM32Cube_FW_F4_V1.4.0/Drivers/STM32F4xx_HAL_Driver/Src/stm32f4xx_hal_dma.c ****   * @param  SrcAddress: The source memory Buffer address
 385:../STM32Cube_FW_F4_V1.4.0/Drivers/STM32F4xx_HAL_Driver/Src/stm32f4xx_hal_dma.c ****   * @param  DstAddress: The destination memory Buffer address
ARM GAS  C:\cygwin\tmp\cc1Jaa0f.s 			page 28


 386:../STM32Cube_FW_F4_V1.4.0/Drivers/STM32F4xx_HAL_Driver/Src/stm32f4xx_hal_dma.c ****   * @param  DataLength: The length of data to be transferred from source to destination
 387:../STM32Cube_FW_F4_V1.4.0/Drivers/STM32F4xx_HAL_Driver/Src/stm32f4xx_hal_dma.c ****   * @retval HAL status
 388:../STM32Cube_FW_F4_V1.4.0/Drivers/STM32F4xx_HAL_Driver/Src/stm32f4xx_hal_dma.c ****   */
 389:../STM32Cube_FW_F4_V1.4.0/Drivers/STM32F4xx_HAL_Driver/Src/stm32f4xx_hal_dma.c **** HAL_StatusTypeDef HAL_DMA_Start_IT(DMA_HandleTypeDef *hdma, uint32_t SrcAddress, uint32_t DstAddres
 390:../STM32Cube_FW_F4_V1.4.0/Drivers/STM32F4xx_HAL_Driver/Src/stm32f4xx_hal_dma.c **** {
 391:../STM32Cube_FW_F4_V1.4.0/Drivers/STM32F4xx_HAL_Driver/Src/stm32f4xx_hal_dma.c ****   /* Process locked */
 392:../STM32Cube_FW_F4_V1.4.0/Drivers/STM32F4xx_HAL_Driver/Src/stm32f4xx_hal_dma.c ****   __HAL_LOCK(hdma);
 393:../STM32Cube_FW_F4_V1.4.0/Drivers/STM32F4xx_HAL_Driver/Src/stm32f4xx_hal_dma.c **** 
 394:../STM32Cube_FW_F4_V1.4.0/Drivers/STM32F4xx_HAL_Driver/Src/stm32f4xx_hal_dma.c ****   /* Change DMA peripheral state */
 395:../STM32Cube_FW_F4_V1.4.0/Drivers/STM32F4xx_HAL_Driver/Src/stm32f4xx_hal_dma.c ****   hdma->State = HAL_DMA_STATE_BUSY;
 396:../STM32Cube_FW_F4_V1.4.0/Drivers/STM32F4xx_HAL_Driver/Src/stm32f4xx_hal_dma.c **** 
 397:../STM32Cube_FW_F4_V1.4.0/Drivers/STM32F4xx_HAL_Driver/Src/stm32f4xx_hal_dma.c ****    /* Check the parameters */
 398:../STM32Cube_FW_F4_V1.4.0/Drivers/STM32F4xx_HAL_Driver/Src/stm32f4xx_hal_dma.c ****   assert_param(IS_DMA_BUFFER_SIZE(DataLength));
 399:../STM32Cube_FW_F4_V1.4.0/Drivers/STM32F4xx_HAL_Driver/Src/stm32f4xx_hal_dma.c **** 
 400:../STM32Cube_FW_F4_V1.4.0/Drivers/STM32F4xx_HAL_Driver/Src/stm32f4xx_hal_dma.c ****   /* Disable the peripheral */
 401:../STM32Cube_FW_F4_V1.4.0/Drivers/STM32F4xx_HAL_Driver/Src/stm32f4xx_hal_dma.c ****   __HAL_DMA_DISABLE(hdma);
 402:../STM32Cube_FW_F4_V1.4.0/Drivers/STM32F4xx_HAL_Driver/Src/stm32f4xx_hal_dma.c **** 
 403:../STM32Cube_FW_F4_V1.4.0/Drivers/STM32F4xx_HAL_Driver/Src/stm32f4xx_hal_dma.c ****   /* Configure the source, destination address and the data length */
 404:../STM32Cube_FW_F4_V1.4.0/Drivers/STM32F4xx_HAL_Driver/Src/stm32f4xx_hal_dma.c ****   DMA_SetConfig(hdma, SrcAddress, DstAddress, DataLength);
 405:../STM32Cube_FW_F4_V1.4.0/Drivers/STM32F4xx_HAL_Driver/Src/stm32f4xx_hal_dma.c **** 
 406:../STM32Cube_FW_F4_V1.4.0/Drivers/STM32F4xx_HAL_Driver/Src/stm32f4xx_hal_dma.c ****   /* Enable the transfer complete interrupt */
 407:../STM32Cube_FW_F4_V1.4.0/Drivers/STM32F4xx_HAL_Driver/Src/stm32f4xx_hal_dma.c ****   __HAL_DMA_ENABLE_IT(hdma, DMA_IT_TC);
 408:../STM32Cube_FW_F4_V1.4.0/Drivers/STM32F4xx_HAL_Driver/Src/stm32f4xx_hal_dma.c **** 
 409:../STM32Cube_FW_F4_V1.4.0/Drivers/STM32F4xx_HAL_Driver/Src/stm32f4xx_hal_dma.c ****   /* Enable the Half transfer complete interrupt */
 410:../STM32Cube_FW_F4_V1.4.0/Drivers/STM32F4xx_HAL_Driver/Src/stm32f4xx_hal_dma.c ****   __HAL_DMA_ENABLE_IT(hdma, DMA_IT_HT);  
 411:../STM32Cube_FW_F4_V1.4.0/Drivers/STM32F4xx_HAL_Driver/Src/stm32f4xx_hal_dma.c **** 
 412:../STM32Cube_FW_F4_V1.4.0/Drivers/STM32F4xx_HAL_Driver/Src/stm32f4xx_hal_dma.c ****   /* Enable the transfer Error interrupt */
 413:../STM32Cube_FW_F4_V1.4.0/Drivers/STM32F4xx_HAL_Driver/Src/stm32f4xx_hal_dma.c ****   __HAL_DMA_ENABLE_IT(hdma, DMA_IT_TE);
 414:../STM32Cube_FW_F4_V1.4.0/Drivers/STM32F4xx_HAL_Driver/Src/stm32f4xx_hal_dma.c **** 
 415:../STM32Cube_FW_F4_V1.4.0/Drivers/STM32F4xx_HAL_Driver/Src/stm32f4xx_hal_dma.c ****   /* Enable the FIFO Error interrupt */
 416:../STM32Cube_FW_F4_V1.4.0/Drivers/STM32F4xx_HAL_Driver/Src/stm32f4xx_hal_dma.c ****   __HAL_DMA_ENABLE_IT(hdma, DMA_IT_FE);
 417:../STM32Cube_FW_F4_V1.4.0/Drivers/STM32F4xx_HAL_Driver/Src/stm32f4xx_hal_dma.c **** 
 418:../STM32Cube_FW_F4_V1.4.0/Drivers/STM32F4xx_HAL_Driver/Src/stm32f4xx_hal_dma.c ****   /* Enable the direct mode Error interrupt */
 419:../STM32Cube_FW_F4_V1.4.0/Drivers/STM32F4xx_HAL_Driver/Src/stm32f4xx_hal_dma.c ****   __HAL_DMA_ENABLE_IT(hdma, DMA_IT_DME);
 420:../STM32Cube_FW_F4_V1.4.0/Drivers/STM32F4xx_HAL_Driver/Src/stm32f4xx_hal_dma.c **** 
 421:../STM32Cube_FW_F4_V1.4.0/Drivers/STM32F4xx_HAL_Driver/Src/stm32f4xx_hal_dma.c ****    /* Enable the Peripheral */
 422:../STM32Cube_FW_F4_V1.4.0/Drivers/STM32F4xx_HAL_Driver/Src/stm32f4xx_hal_dma.c ****   __HAL_DMA_ENABLE(hdma);
 423:../STM32Cube_FW_F4_V1.4.0/Drivers/STM32F4xx_HAL_Driver/Src/stm32f4xx_hal_dma.c **** 
 424:../STM32Cube_FW_F4_V1.4.0/Drivers/STM32F4xx_HAL_Driver/Src/stm32f4xx_hal_dma.c ****   return HAL_OK;
 425:../STM32Cube_FW_F4_V1.4.0/Drivers/STM32F4xx_HAL_Driver/Src/stm32f4xx_hal_dma.c **** } 
 426:../STM32Cube_FW_F4_V1.4.0/Drivers/STM32F4xx_HAL_Driver/Src/stm32f4xx_hal_dma.c **** 
 427:../STM32Cube_FW_F4_V1.4.0/Drivers/STM32F4xx_HAL_Driver/Src/stm32f4xx_hal_dma.c **** /**
 428:../STM32Cube_FW_F4_V1.4.0/Drivers/STM32F4xx_HAL_Driver/Src/stm32f4xx_hal_dma.c ****   * @brief  Aborts the DMA Transfer.
 429:../STM32Cube_FW_F4_V1.4.0/Drivers/STM32F4xx_HAL_Driver/Src/stm32f4xx_hal_dma.c ****   * @param  hdma  : pointer to a DMA_HandleTypeDef structure that contains
 430:../STM32Cube_FW_F4_V1.4.0/Drivers/STM32F4xx_HAL_Driver/Src/stm32f4xx_hal_dma.c ****   *                 the configuration information for the specified DMA Stream.
 431:../STM32Cube_FW_F4_V1.4.0/Drivers/STM32F4xx_HAL_Driver/Src/stm32f4xx_hal_dma.c ****   *                   
 432:../STM32Cube_FW_F4_V1.4.0/Drivers/STM32F4xx_HAL_Driver/Src/stm32f4xx_hal_dma.c ****   * @note  After disabling a DMA Stream, a check for wait until the DMA Stream is 
 433:../STM32Cube_FW_F4_V1.4.0/Drivers/STM32F4xx_HAL_Driver/Src/stm32f4xx_hal_dma.c ****   *        effectively disabled is added. If a Stream is disabled 
 434:../STM32Cube_FW_F4_V1.4.0/Drivers/STM32F4xx_HAL_Driver/Src/stm32f4xx_hal_dma.c ****   *        while a data transfer is ongoing, the current data will be transferred
 435:../STM32Cube_FW_F4_V1.4.0/Drivers/STM32F4xx_HAL_Driver/Src/stm32f4xx_hal_dma.c ****   *        and the Stream will be effectively disabled only after the transfer of
 436:../STM32Cube_FW_F4_V1.4.0/Drivers/STM32F4xx_HAL_Driver/Src/stm32f4xx_hal_dma.c ****   *        this single data is finished.  
 437:../STM32Cube_FW_F4_V1.4.0/Drivers/STM32F4xx_HAL_Driver/Src/stm32f4xx_hal_dma.c ****   * @retval HAL status
 438:../STM32Cube_FW_F4_V1.4.0/Drivers/STM32F4xx_HAL_Driver/Src/stm32f4xx_hal_dma.c ****   */
 439:../STM32Cube_FW_F4_V1.4.0/Drivers/STM32F4xx_HAL_Driver/Src/stm32f4xx_hal_dma.c **** HAL_StatusTypeDef HAL_DMA_Abort(DMA_HandleTypeDef *hdma)
 440:../STM32Cube_FW_F4_V1.4.0/Drivers/STM32F4xx_HAL_Driver/Src/stm32f4xx_hal_dma.c **** {
 441:../STM32Cube_FW_F4_V1.4.0/Drivers/STM32F4xx_HAL_Driver/Src/stm32f4xx_hal_dma.c ****   uint32_t tickstart = 0;
 442:../STM32Cube_FW_F4_V1.4.0/Drivers/STM32F4xx_HAL_Driver/Src/stm32f4xx_hal_dma.c **** 
ARM GAS  C:\cygwin\tmp\cc1Jaa0f.s 			page 29


 443:../STM32Cube_FW_F4_V1.4.0/Drivers/STM32F4xx_HAL_Driver/Src/stm32f4xx_hal_dma.c ****   /* Disable the stream */
 444:../STM32Cube_FW_F4_V1.4.0/Drivers/STM32F4xx_HAL_Driver/Src/stm32f4xx_hal_dma.c ****   __HAL_DMA_DISABLE(hdma);
 445:../STM32Cube_FW_F4_V1.4.0/Drivers/STM32F4xx_HAL_Driver/Src/stm32f4xx_hal_dma.c **** 
 446:../STM32Cube_FW_F4_V1.4.0/Drivers/STM32F4xx_HAL_Driver/Src/stm32f4xx_hal_dma.c ****   /* Get tick */
 447:../STM32Cube_FW_F4_V1.4.0/Drivers/STM32F4xx_HAL_Driver/Src/stm32f4xx_hal_dma.c ****   tickstart = HAL_GetTick();
 448:../STM32Cube_FW_F4_V1.4.0/Drivers/STM32F4xx_HAL_Driver/Src/stm32f4xx_hal_dma.c **** 
 449:../STM32Cube_FW_F4_V1.4.0/Drivers/STM32F4xx_HAL_Driver/Src/stm32f4xx_hal_dma.c ****   /* Check if the DMA Stream is effectively disabled */
 450:../STM32Cube_FW_F4_V1.4.0/Drivers/STM32F4xx_HAL_Driver/Src/stm32f4xx_hal_dma.c ****   while((hdma->Instance->CR & DMA_SxCR_EN) != 0)
 451:../STM32Cube_FW_F4_V1.4.0/Drivers/STM32F4xx_HAL_Driver/Src/stm32f4xx_hal_dma.c ****   {
 452:../STM32Cube_FW_F4_V1.4.0/Drivers/STM32F4xx_HAL_Driver/Src/stm32f4xx_hal_dma.c ****     /* Check for the Timeout */
 453:../STM32Cube_FW_F4_V1.4.0/Drivers/STM32F4xx_HAL_Driver/Src/stm32f4xx_hal_dma.c ****     if((HAL_GetTick() - tickstart ) > HAL_TIMEOUT_DMA_ABORT)
 454:../STM32Cube_FW_F4_V1.4.0/Drivers/STM32F4xx_HAL_Driver/Src/stm32f4xx_hal_dma.c ****     {
 455:../STM32Cube_FW_F4_V1.4.0/Drivers/STM32F4xx_HAL_Driver/Src/stm32f4xx_hal_dma.c ****       /* Update error code */
 456:../STM32Cube_FW_F4_V1.4.0/Drivers/STM32F4xx_HAL_Driver/Src/stm32f4xx_hal_dma.c ****       hdma->ErrorCode |= HAL_DMA_ERROR_TIMEOUT;
 457:../STM32Cube_FW_F4_V1.4.0/Drivers/STM32F4xx_HAL_Driver/Src/stm32f4xx_hal_dma.c ****       
 458:../STM32Cube_FW_F4_V1.4.0/Drivers/STM32F4xx_HAL_Driver/Src/stm32f4xx_hal_dma.c ****       /* Process Unlocked */
 459:../STM32Cube_FW_F4_V1.4.0/Drivers/STM32F4xx_HAL_Driver/Src/stm32f4xx_hal_dma.c ****       __HAL_UNLOCK(hdma);
 460:../STM32Cube_FW_F4_V1.4.0/Drivers/STM32F4xx_HAL_Driver/Src/stm32f4xx_hal_dma.c ****       
 461:../STM32Cube_FW_F4_V1.4.0/Drivers/STM32F4xx_HAL_Driver/Src/stm32f4xx_hal_dma.c ****       /* Change the DMA state */
 462:../STM32Cube_FW_F4_V1.4.0/Drivers/STM32F4xx_HAL_Driver/Src/stm32f4xx_hal_dma.c ****       hdma->State = HAL_DMA_STATE_TIMEOUT;
 463:../STM32Cube_FW_F4_V1.4.0/Drivers/STM32F4xx_HAL_Driver/Src/stm32f4xx_hal_dma.c ****       
 464:../STM32Cube_FW_F4_V1.4.0/Drivers/STM32F4xx_HAL_Driver/Src/stm32f4xx_hal_dma.c ****       return HAL_TIMEOUT;
 465:../STM32Cube_FW_F4_V1.4.0/Drivers/STM32F4xx_HAL_Driver/Src/stm32f4xx_hal_dma.c ****     }
 466:../STM32Cube_FW_F4_V1.4.0/Drivers/STM32F4xx_HAL_Driver/Src/stm32f4xx_hal_dma.c ****   }
 467:../STM32Cube_FW_F4_V1.4.0/Drivers/STM32F4xx_HAL_Driver/Src/stm32f4xx_hal_dma.c ****   /* Process Unlocked */
 468:../STM32Cube_FW_F4_V1.4.0/Drivers/STM32F4xx_HAL_Driver/Src/stm32f4xx_hal_dma.c ****   __HAL_UNLOCK(hdma);
 469:../STM32Cube_FW_F4_V1.4.0/Drivers/STM32F4xx_HAL_Driver/Src/stm32f4xx_hal_dma.c **** 
 470:../STM32Cube_FW_F4_V1.4.0/Drivers/STM32F4xx_HAL_Driver/Src/stm32f4xx_hal_dma.c ****   /* Change the DMA state*/
 471:../STM32Cube_FW_F4_V1.4.0/Drivers/STM32F4xx_HAL_Driver/Src/stm32f4xx_hal_dma.c ****   hdma->State = HAL_DMA_STATE_READY;
 472:../STM32Cube_FW_F4_V1.4.0/Drivers/STM32F4xx_HAL_Driver/Src/stm32f4xx_hal_dma.c **** 
 473:../STM32Cube_FW_F4_V1.4.0/Drivers/STM32F4xx_HAL_Driver/Src/stm32f4xx_hal_dma.c ****   return HAL_OK;
 474:../STM32Cube_FW_F4_V1.4.0/Drivers/STM32F4xx_HAL_Driver/Src/stm32f4xx_hal_dma.c **** }
 475:../STM32Cube_FW_F4_V1.4.0/Drivers/STM32F4xx_HAL_Driver/Src/stm32f4xx_hal_dma.c **** 
 476:../STM32Cube_FW_F4_V1.4.0/Drivers/STM32F4xx_HAL_Driver/Src/stm32f4xx_hal_dma.c **** /**
 477:../STM32Cube_FW_F4_V1.4.0/Drivers/STM32F4xx_HAL_Driver/Src/stm32f4xx_hal_dma.c ****   * @brief  Polling for transfer complete.
 478:../STM32Cube_FW_F4_V1.4.0/Drivers/STM32F4xx_HAL_Driver/Src/stm32f4xx_hal_dma.c ****   * @param  hdma:          pointer to a DMA_HandleTypeDef structure that contains
 479:../STM32Cube_FW_F4_V1.4.0/Drivers/STM32F4xx_HAL_Driver/Src/stm32f4xx_hal_dma.c ****   *                        the configuration information for the specified DMA Stream.
 480:../STM32Cube_FW_F4_V1.4.0/Drivers/STM32F4xx_HAL_Driver/Src/stm32f4xx_hal_dma.c ****   * @param  CompleteLevel: Specifies the DMA level complete.  
 481:../STM32Cube_FW_F4_V1.4.0/Drivers/STM32F4xx_HAL_Driver/Src/stm32f4xx_hal_dma.c ****   * @param  Timeout:       Timeout duration.
 482:../STM32Cube_FW_F4_V1.4.0/Drivers/STM32F4xx_HAL_Driver/Src/stm32f4xx_hal_dma.c ****   * @retval HAL status
 483:../STM32Cube_FW_F4_V1.4.0/Drivers/STM32F4xx_HAL_Driver/Src/stm32f4xx_hal_dma.c ****   */
 484:../STM32Cube_FW_F4_V1.4.0/Drivers/STM32F4xx_HAL_Driver/Src/stm32f4xx_hal_dma.c **** HAL_StatusTypeDef HAL_DMA_PollForTransfer(DMA_HandleTypeDef *hdma, uint32_t CompleteLevel, uint32_t
 485:../STM32Cube_FW_F4_V1.4.0/Drivers/STM32F4xx_HAL_Driver/Src/stm32f4xx_hal_dma.c **** {
 486:../STM32Cube_FW_F4_V1.4.0/Drivers/STM32F4xx_HAL_Driver/Src/stm32f4xx_hal_dma.c ****   uint32_t temp, tmp, tmp1, tmp2;
 487:../STM32Cube_FW_F4_V1.4.0/Drivers/STM32F4xx_HAL_Driver/Src/stm32f4xx_hal_dma.c ****   uint32_t tickstart = 0; 
 488:../STM32Cube_FW_F4_V1.4.0/Drivers/STM32F4xx_HAL_Driver/Src/stm32f4xx_hal_dma.c **** 
 489:../STM32Cube_FW_F4_V1.4.0/Drivers/STM32F4xx_HAL_Driver/Src/stm32f4xx_hal_dma.c ****   /* Get the level transfer complete flag */
 490:../STM32Cube_FW_F4_V1.4.0/Drivers/STM32F4xx_HAL_Driver/Src/stm32f4xx_hal_dma.c ****   if(CompleteLevel == HAL_DMA_FULL_TRANSFER)
 491:../STM32Cube_FW_F4_V1.4.0/Drivers/STM32F4xx_HAL_Driver/Src/stm32f4xx_hal_dma.c ****   {
 492:../STM32Cube_FW_F4_V1.4.0/Drivers/STM32F4xx_HAL_Driver/Src/stm32f4xx_hal_dma.c ****     /* Transfer Complete flag */
 493:../STM32Cube_FW_F4_V1.4.0/Drivers/STM32F4xx_HAL_Driver/Src/stm32f4xx_hal_dma.c ****     temp = __HAL_DMA_GET_TC_FLAG_INDEX(hdma);
 494:../STM32Cube_FW_F4_V1.4.0/Drivers/STM32F4xx_HAL_Driver/Src/stm32f4xx_hal_dma.c ****   }
 495:../STM32Cube_FW_F4_V1.4.0/Drivers/STM32F4xx_HAL_Driver/Src/stm32f4xx_hal_dma.c ****   else
 496:../STM32Cube_FW_F4_V1.4.0/Drivers/STM32F4xx_HAL_Driver/Src/stm32f4xx_hal_dma.c ****   {
 497:../STM32Cube_FW_F4_V1.4.0/Drivers/STM32F4xx_HAL_Driver/Src/stm32f4xx_hal_dma.c ****     /* Half Transfer Complete flag */
 498:../STM32Cube_FW_F4_V1.4.0/Drivers/STM32F4xx_HAL_Driver/Src/stm32f4xx_hal_dma.c ****     temp = __HAL_DMA_GET_HT_FLAG_INDEX(hdma);
 499:../STM32Cube_FW_F4_V1.4.0/Drivers/STM32F4xx_HAL_Driver/Src/stm32f4xx_hal_dma.c ****   }
ARM GAS  C:\cygwin\tmp\cc1Jaa0f.s 			page 30


 500:../STM32Cube_FW_F4_V1.4.0/Drivers/STM32F4xx_HAL_Driver/Src/stm32f4xx_hal_dma.c **** 
 501:../STM32Cube_FW_F4_V1.4.0/Drivers/STM32F4xx_HAL_Driver/Src/stm32f4xx_hal_dma.c ****   /* Get tick */
 502:../STM32Cube_FW_F4_V1.4.0/Drivers/STM32F4xx_HAL_Driver/Src/stm32f4xx_hal_dma.c ****   tickstart = HAL_GetTick();
 503:../STM32Cube_FW_F4_V1.4.0/Drivers/STM32F4xx_HAL_Driver/Src/stm32f4xx_hal_dma.c **** 
 504:../STM32Cube_FW_F4_V1.4.0/Drivers/STM32F4xx_HAL_Driver/Src/stm32f4xx_hal_dma.c ****   while(__HAL_DMA_GET_FLAG(hdma, temp) == RESET)
 505:../STM32Cube_FW_F4_V1.4.0/Drivers/STM32F4xx_HAL_Driver/Src/stm32f4xx_hal_dma.c ****   {
 506:../STM32Cube_FW_F4_V1.4.0/Drivers/STM32F4xx_HAL_Driver/Src/stm32f4xx_hal_dma.c ****     tmp  = __HAL_DMA_GET_FLAG(hdma, __HAL_DMA_GET_TE_FLAG_INDEX(hdma));
 507:../STM32Cube_FW_F4_V1.4.0/Drivers/STM32F4xx_HAL_Driver/Src/stm32f4xx_hal_dma.c ****     tmp1 = __HAL_DMA_GET_FLAG(hdma, __HAL_DMA_GET_FE_FLAG_INDEX(hdma));
 508:../STM32Cube_FW_F4_V1.4.0/Drivers/STM32F4xx_HAL_Driver/Src/stm32f4xx_hal_dma.c ****     tmp2 = __HAL_DMA_GET_FLAG(hdma, __HAL_DMA_GET_DME_FLAG_INDEX(hdma));
 509:../STM32Cube_FW_F4_V1.4.0/Drivers/STM32F4xx_HAL_Driver/Src/stm32f4xx_hal_dma.c ****     if((tmp != RESET) || (tmp1 != RESET) || (tmp2 != RESET))
 510:../STM32Cube_FW_F4_V1.4.0/Drivers/STM32F4xx_HAL_Driver/Src/stm32f4xx_hal_dma.c ****     {
 511:../STM32Cube_FW_F4_V1.4.0/Drivers/STM32F4xx_HAL_Driver/Src/stm32f4xx_hal_dma.c ****       if(tmp != RESET)
 512:../STM32Cube_FW_F4_V1.4.0/Drivers/STM32F4xx_HAL_Driver/Src/stm32f4xx_hal_dma.c ****       {
 513:../STM32Cube_FW_F4_V1.4.0/Drivers/STM32F4xx_HAL_Driver/Src/stm32f4xx_hal_dma.c ****         /* Update error code */
 514:../STM32Cube_FW_F4_V1.4.0/Drivers/STM32F4xx_HAL_Driver/Src/stm32f4xx_hal_dma.c ****         hdma->ErrorCode |= HAL_DMA_ERROR_TE;
 515:../STM32Cube_FW_F4_V1.4.0/Drivers/STM32F4xx_HAL_Driver/Src/stm32f4xx_hal_dma.c **** 
 516:../STM32Cube_FW_F4_V1.4.0/Drivers/STM32F4xx_HAL_Driver/Src/stm32f4xx_hal_dma.c ****         /* Clear the transfer error flag */
 517:../STM32Cube_FW_F4_V1.4.0/Drivers/STM32F4xx_HAL_Driver/Src/stm32f4xx_hal_dma.c ****         __HAL_DMA_CLEAR_FLAG(hdma, __HAL_DMA_GET_TE_FLAG_INDEX(hdma));
 518:../STM32Cube_FW_F4_V1.4.0/Drivers/STM32F4xx_HAL_Driver/Src/stm32f4xx_hal_dma.c ****       }
 519:../STM32Cube_FW_F4_V1.4.0/Drivers/STM32F4xx_HAL_Driver/Src/stm32f4xx_hal_dma.c ****       if(tmp1 != RESET)
 520:../STM32Cube_FW_F4_V1.4.0/Drivers/STM32F4xx_HAL_Driver/Src/stm32f4xx_hal_dma.c ****       {
 521:../STM32Cube_FW_F4_V1.4.0/Drivers/STM32F4xx_HAL_Driver/Src/stm32f4xx_hal_dma.c ****         /* Update error code */
 522:../STM32Cube_FW_F4_V1.4.0/Drivers/STM32F4xx_HAL_Driver/Src/stm32f4xx_hal_dma.c ****         hdma->ErrorCode |= HAL_DMA_ERROR_FE;
 523:../STM32Cube_FW_F4_V1.4.0/Drivers/STM32F4xx_HAL_Driver/Src/stm32f4xx_hal_dma.c ****  
 524:../STM32Cube_FW_F4_V1.4.0/Drivers/STM32F4xx_HAL_Driver/Src/stm32f4xx_hal_dma.c ****         /* Clear the FIFO error flag */
 525:../STM32Cube_FW_F4_V1.4.0/Drivers/STM32F4xx_HAL_Driver/Src/stm32f4xx_hal_dma.c ****         __HAL_DMA_CLEAR_FLAG(hdma, __HAL_DMA_GET_FE_FLAG_INDEX(hdma));
 526:../STM32Cube_FW_F4_V1.4.0/Drivers/STM32F4xx_HAL_Driver/Src/stm32f4xx_hal_dma.c ****       }
 527:../STM32Cube_FW_F4_V1.4.0/Drivers/STM32F4xx_HAL_Driver/Src/stm32f4xx_hal_dma.c ****       if(tmp2 != RESET)
 528:../STM32Cube_FW_F4_V1.4.0/Drivers/STM32F4xx_HAL_Driver/Src/stm32f4xx_hal_dma.c ****       {
 529:../STM32Cube_FW_F4_V1.4.0/Drivers/STM32F4xx_HAL_Driver/Src/stm32f4xx_hal_dma.c ****         /* Update error code */
 530:../STM32Cube_FW_F4_V1.4.0/Drivers/STM32F4xx_HAL_Driver/Src/stm32f4xx_hal_dma.c ****         hdma->ErrorCode |= HAL_DMA_ERROR_DME;
 531:../STM32Cube_FW_F4_V1.4.0/Drivers/STM32F4xx_HAL_Driver/Src/stm32f4xx_hal_dma.c **** 
 532:../STM32Cube_FW_F4_V1.4.0/Drivers/STM32F4xx_HAL_Driver/Src/stm32f4xx_hal_dma.c ****         /* Clear the Direct Mode error flag */
 533:../STM32Cube_FW_F4_V1.4.0/Drivers/STM32F4xx_HAL_Driver/Src/stm32f4xx_hal_dma.c ****         __HAL_DMA_CLEAR_FLAG(hdma, __HAL_DMA_GET_DME_FLAG_INDEX(hdma));
 534:../STM32Cube_FW_F4_V1.4.0/Drivers/STM32F4xx_HAL_Driver/Src/stm32f4xx_hal_dma.c ****       }
 535:../STM32Cube_FW_F4_V1.4.0/Drivers/STM32F4xx_HAL_Driver/Src/stm32f4xx_hal_dma.c ****       /* Change the DMA state */
 536:../STM32Cube_FW_F4_V1.4.0/Drivers/STM32F4xx_HAL_Driver/Src/stm32f4xx_hal_dma.c ****       hdma->State= HAL_DMA_STATE_ERROR;
 537:../STM32Cube_FW_F4_V1.4.0/Drivers/STM32F4xx_HAL_Driver/Src/stm32f4xx_hal_dma.c ****       
 538:../STM32Cube_FW_F4_V1.4.0/Drivers/STM32F4xx_HAL_Driver/Src/stm32f4xx_hal_dma.c ****       /* Process Unlocked */
 539:../STM32Cube_FW_F4_V1.4.0/Drivers/STM32F4xx_HAL_Driver/Src/stm32f4xx_hal_dma.c ****       __HAL_UNLOCK(hdma);
 540:../STM32Cube_FW_F4_V1.4.0/Drivers/STM32F4xx_HAL_Driver/Src/stm32f4xx_hal_dma.c **** 
 541:../STM32Cube_FW_F4_V1.4.0/Drivers/STM32F4xx_HAL_Driver/Src/stm32f4xx_hal_dma.c ****       return HAL_ERROR;
 542:../STM32Cube_FW_F4_V1.4.0/Drivers/STM32F4xx_HAL_Driver/Src/stm32f4xx_hal_dma.c ****     }  
 543:../STM32Cube_FW_F4_V1.4.0/Drivers/STM32F4xx_HAL_Driver/Src/stm32f4xx_hal_dma.c ****     /* Check for the Timeout */
 544:../STM32Cube_FW_F4_V1.4.0/Drivers/STM32F4xx_HAL_Driver/Src/stm32f4xx_hal_dma.c ****     if(Timeout != HAL_MAX_DELAY)
 545:../STM32Cube_FW_F4_V1.4.0/Drivers/STM32F4xx_HAL_Driver/Src/stm32f4xx_hal_dma.c ****     {
 546:../STM32Cube_FW_F4_V1.4.0/Drivers/STM32F4xx_HAL_Driver/Src/stm32f4xx_hal_dma.c ****       if((Timeout == 0)||((HAL_GetTick() - tickstart ) > Timeout))
 547:../STM32Cube_FW_F4_V1.4.0/Drivers/STM32F4xx_HAL_Driver/Src/stm32f4xx_hal_dma.c ****       {
 548:../STM32Cube_FW_F4_V1.4.0/Drivers/STM32F4xx_HAL_Driver/Src/stm32f4xx_hal_dma.c ****         /* Update error code */
 549:../STM32Cube_FW_F4_V1.4.0/Drivers/STM32F4xx_HAL_Driver/Src/stm32f4xx_hal_dma.c ****         hdma->ErrorCode |= HAL_DMA_ERROR_TIMEOUT;
 550:../STM32Cube_FW_F4_V1.4.0/Drivers/STM32F4xx_HAL_Driver/Src/stm32f4xx_hal_dma.c **** 
 551:../STM32Cube_FW_F4_V1.4.0/Drivers/STM32F4xx_HAL_Driver/Src/stm32f4xx_hal_dma.c ****         /* Change the DMA state */
 552:../STM32Cube_FW_F4_V1.4.0/Drivers/STM32F4xx_HAL_Driver/Src/stm32f4xx_hal_dma.c ****         hdma->State = HAL_DMA_STATE_TIMEOUT;
 553:../STM32Cube_FW_F4_V1.4.0/Drivers/STM32F4xx_HAL_Driver/Src/stm32f4xx_hal_dma.c **** 
 554:../STM32Cube_FW_F4_V1.4.0/Drivers/STM32F4xx_HAL_Driver/Src/stm32f4xx_hal_dma.c ****         /* Process Unlocked */
 555:../STM32Cube_FW_F4_V1.4.0/Drivers/STM32F4xx_HAL_Driver/Src/stm32f4xx_hal_dma.c ****         __HAL_UNLOCK(hdma);
 556:../STM32Cube_FW_F4_V1.4.0/Drivers/STM32F4xx_HAL_Driver/Src/stm32f4xx_hal_dma.c ****         
ARM GAS  C:\cygwin\tmp\cc1Jaa0f.s 			page 31


 557:../STM32Cube_FW_F4_V1.4.0/Drivers/STM32F4xx_HAL_Driver/Src/stm32f4xx_hal_dma.c ****         return HAL_TIMEOUT;
 558:../STM32Cube_FW_F4_V1.4.0/Drivers/STM32F4xx_HAL_Driver/Src/stm32f4xx_hal_dma.c ****       }
 559:../STM32Cube_FW_F4_V1.4.0/Drivers/STM32F4xx_HAL_Driver/Src/stm32f4xx_hal_dma.c ****     }
 560:../STM32Cube_FW_F4_V1.4.0/Drivers/STM32F4xx_HAL_Driver/Src/stm32f4xx_hal_dma.c ****   }
 561:../STM32Cube_FW_F4_V1.4.0/Drivers/STM32F4xx_HAL_Driver/Src/stm32f4xx_hal_dma.c **** 
 562:../STM32Cube_FW_F4_V1.4.0/Drivers/STM32F4xx_HAL_Driver/Src/stm32f4xx_hal_dma.c ****   if(CompleteLevel == HAL_DMA_FULL_TRANSFER)
 563:../STM32Cube_FW_F4_V1.4.0/Drivers/STM32F4xx_HAL_Driver/Src/stm32f4xx_hal_dma.c ****   {
 564:../STM32Cube_FW_F4_V1.4.0/Drivers/STM32F4xx_HAL_Driver/Src/stm32f4xx_hal_dma.c ****     /* Multi_Buffering mode enabled */
 565:../STM32Cube_FW_F4_V1.4.0/Drivers/STM32F4xx_HAL_Driver/Src/stm32f4xx_hal_dma.c ****     if(((hdma->Instance->CR) & (uint32_t)(DMA_SxCR_DBM)) != 0)
 566:../STM32Cube_FW_F4_V1.4.0/Drivers/STM32F4xx_HAL_Driver/Src/stm32f4xx_hal_dma.c ****     {
 567:../STM32Cube_FW_F4_V1.4.0/Drivers/STM32F4xx_HAL_Driver/Src/stm32f4xx_hal_dma.c ****       /* Clear the half transfer complete flag */
 568:../STM32Cube_FW_F4_V1.4.0/Drivers/STM32F4xx_HAL_Driver/Src/stm32f4xx_hal_dma.c ****       __HAL_DMA_CLEAR_FLAG(hdma, __HAL_DMA_GET_HT_FLAG_INDEX(hdma));
 569:../STM32Cube_FW_F4_V1.4.0/Drivers/STM32F4xx_HAL_Driver/Src/stm32f4xx_hal_dma.c ****       /* Clear the transfer complete flag */
 570:../STM32Cube_FW_F4_V1.4.0/Drivers/STM32F4xx_HAL_Driver/Src/stm32f4xx_hal_dma.c ****       __HAL_DMA_CLEAR_FLAG(hdma, __HAL_DMA_GET_TC_FLAG_INDEX(hdma));
 571:../STM32Cube_FW_F4_V1.4.0/Drivers/STM32F4xx_HAL_Driver/Src/stm32f4xx_hal_dma.c **** 
 572:../STM32Cube_FW_F4_V1.4.0/Drivers/STM32F4xx_HAL_Driver/Src/stm32f4xx_hal_dma.c ****       /* Current memory buffer used is Memory 0 */
 573:../STM32Cube_FW_F4_V1.4.0/Drivers/STM32F4xx_HAL_Driver/Src/stm32f4xx_hal_dma.c ****       if((hdma->Instance->CR & DMA_SxCR_CT) == 0)
 574:../STM32Cube_FW_F4_V1.4.0/Drivers/STM32F4xx_HAL_Driver/Src/stm32f4xx_hal_dma.c ****       {
 575:../STM32Cube_FW_F4_V1.4.0/Drivers/STM32F4xx_HAL_Driver/Src/stm32f4xx_hal_dma.c ****         /* Change DMA peripheral state */
 576:../STM32Cube_FW_F4_V1.4.0/Drivers/STM32F4xx_HAL_Driver/Src/stm32f4xx_hal_dma.c ****         hdma->State = HAL_DMA_STATE_READY_MEM0;
 577:../STM32Cube_FW_F4_V1.4.0/Drivers/STM32F4xx_HAL_Driver/Src/stm32f4xx_hal_dma.c ****       }
 578:../STM32Cube_FW_F4_V1.4.0/Drivers/STM32F4xx_HAL_Driver/Src/stm32f4xx_hal_dma.c ****       /* Current memory buffer used is Memory 1 */
 579:../STM32Cube_FW_F4_V1.4.0/Drivers/STM32F4xx_HAL_Driver/Src/stm32f4xx_hal_dma.c ****       else if((hdma->Instance->CR & DMA_SxCR_CT) != 0)
 580:../STM32Cube_FW_F4_V1.4.0/Drivers/STM32F4xx_HAL_Driver/Src/stm32f4xx_hal_dma.c ****       {
 581:../STM32Cube_FW_F4_V1.4.0/Drivers/STM32F4xx_HAL_Driver/Src/stm32f4xx_hal_dma.c ****         /* Change DMA peripheral state */
 582:../STM32Cube_FW_F4_V1.4.0/Drivers/STM32F4xx_HAL_Driver/Src/stm32f4xx_hal_dma.c ****         hdma->State = HAL_DMA_STATE_READY_MEM1;
 583:../STM32Cube_FW_F4_V1.4.0/Drivers/STM32F4xx_HAL_Driver/Src/stm32f4xx_hal_dma.c ****       }
 584:../STM32Cube_FW_F4_V1.4.0/Drivers/STM32F4xx_HAL_Driver/Src/stm32f4xx_hal_dma.c ****     }
 585:../STM32Cube_FW_F4_V1.4.0/Drivers/STM32F4xx_HAL_Driver/Src/stm32f4xx_hal_dma.c ****     else
 586:../STM32Cube_FW_F4_V1.4.0/Drivers/STM32F4xx_HAL_Driver/Src/stm32f4xx_hal_dma.c ****     {
 587:../STM32Cube_FW_F4_V1.4.0/Drivers/STM32F4xx_HAL_Driver/Src/stm32f4xx_hal_dma.c ****       /* Clear the half transfer complete flag */
 588:../STM32Cube_FW_F4_V1.4.0/Drivers/STM32F4xx_HAL_Driver/Src/stm32f4xx_hal_dma.c ****       __HAL_DMA_CLEAR_FLAG(hdma, __HAL_DMA_GET_HT_FLAG_INDEX(hdma));
 589:../STM32Cube_FW_F4_V1.4.0/Drivers/STM32F4xx_HAL_Driver/Src/stm32f4xx_hal_dma.c ****       /* Clear the transfer complete flag */
 590:../STM32Cube_FW_F4_V1.4.0/Drivers/STM32F4xx_HAL_Driver/Src/stm32f4xx_hal_dma.c ****       __HAL_DMA_CLEAR_FLAG(hdma, __HAL_DMA_GET_TC_FLAG_INDEX(hdma)); 
 591:../STM32Cube_FW_F4_V1.4.0/Drivers/STM32F4xx_HAL_Driver/Src/stm32f4xx_hal_dma.c **** 
 592:../STM32Cube_FW_F4_V1.4.0/Drivers/STM32F4xx_HAL_Driver/Src/stm32f4xx_hal_dma.c ****       /* The selected Streamx EN bit is cleared (DMA is disabled and all transfers
 593:../STM32Cube_FW_F4_V1.4.0/Drivers/STM32F4xx_HAL_Driver/Src/stm32f4xx_hal_dma.c ****          are complete) */
 594:../STM32Cube_FW_F4_V1.4.0/Drivers/STM32F4xx_HAL_Driver/Src/stm32f4xx_hal_dma.c ****       hdma->State = HAL_DMA_STATE_READY_MEM0;
 595:../STM32Cube_FW_F4_V1.4.0/Drivers/STM32F4xx_HAL_Driver/Src/stm32f4xx_hal_dma.c ****     }
 596:../STM32Cube_FW_F4_V1.4.0/Drivers/STM32F4xx_HAL_Driver/Src/stm32f4xx_hal_dma.c ****     /* Process Unlocked */
 597:../STM32Cube_FW_F4_V1.4.0/Drivers/STM32F4xx_HAL_Driver/Src/stm32f4xx_hal_dma.c ****     __HAL_UNLOCK(hdma);
 598:../STM32Cube_FW_F4_V1.4.0/Drivers/STM32F4xx_HAL_Driver/Src/stm32f4xx_hal_dma.c ****   }
 599:../STM32Cube_FW_F4_V1.4.0/Drivers/STM32F4xx_HAL_Driver/Src/stm32f4xx_hal_dma.c ****   else
 600:../STM32Cube_FW_F4_V1.4.0/Drivers/STM32F4xx_HAL_Driver/Src/stm32f4xx_hal_dma.c ****   { 
 601:../STM32Cube_FW_F4_V1.4.0/Drivers/STM32F4xx_HAL_Driver/Src/stm32f4xx_hal_dma.c ****     /* Multi_Buffering mode enabled */
 602:../STM32Cube_FW_F4_V1.4.0/Drivers/STM32F4xx_HAL_Driver/Src/stm32f4xx_hal_dma.c ****     if(((hdma->Instance->CR) & (uint32_t)(DMA_SxCR_DBM)) != 0)
 603:../STM32Cube_FW_F4_V1.4.0/Drivers/STM32F4xx_HAL_Driver/Src/stm32f4xx_hal_dma.c ****     {
 604:../STM32Cube_FW_F4_V1.4.0/Drivers/STM32F4xx_HAL_Driver/Src/stm32f4xx_hal_dma.c ****       /* Clear the half transfer complete flag */
 605:../STM32Cube_FW_F4_V1.4.0/Drivers/STM32F4xx_HAL_Driver/Src/stm32f4xx_hal_dma.c ****       __HAL_DMA_CLEAR_FLAG(hdma, __HAL_DMA_GET_HT_FLAG_INDEX(hdma));
 606:../STM32Cube_FW_F4_V1.4.0/Drivers/STM32F4xx_HAL_Driver/Src/stm32f4xx_hal_dma.c **** 
 607:../STM32Cube_FW_F4_V1.4.0/Drivers/STM32F4xx_HAL_Driver/Src/stm32f4xx_hal_dma.c ****       /* Current memory buffer used is Memory 0 */
 608:../STM32Cube_FW_F4_V1.4.0/Drivers/STM32F4xx_HAL_Driver/Src/stm32f4xx_hal_dma.c ****       if((hdma->Instance->CR & DMA_SxCR_CT) == 0)
 609:../STM32Cube_FW_F4_V1.4.0/Drivers/STM32F4xx_HAL_Driver/Src/stm32f4xx_hal_dma.c ****       {
 610:../STM32Cube_FW_F4_V1.4.0/Drivers/STM32F4xx_HAL_Driver/Src/stm32f4xx_hal_dma.c ****         /* Change DMA peripheral state */
 611:../STM32Cube_FW_F4_V1.4.0/Drivers/STM32F4xx_HAL_Driver/Src/stm32f4xx_hal_dma.c ****         hdma->State = HAL_DMA_STATE_READY_HALF_MEM0;
 612:../STM32Cube_FW_F4_V1.4.0/Drivers/STM32F4xx_HAL_Driver/Src/stm32f4xx_hal_dma.c ****       }
 613:../STM32Cube_FW_F4_V1.4.0/Drivers/STM32F4xx_HAL_Driver/Src/stm32f4xx_hal_dma.c ****       /* Current memory buffer used is Memory 1 */
ARM GAS  C:\cygwin\tmp\cc1Jaa0f.s 			page 32


 614:../STM32Cube_FW_F4_V1.4.0/Drivers/STM32F4xx_HAL_Driver/Src/stm32f4xx_hal_dma.c ****       else if((hdma->Instance->CR & DMA_SxCR_CT) != 0)
 615:../STM32Cube_FW_F4_V1.4.0/Drivers/STM32F4xx_HAL_Driver/Src/stm32f4xx_hal_dma.c ****       {
 616:../STM32Cube_FW_F4_V1.4.0/Drivers/STM32F4xx_HAL_Driver/Src/stm32f4xx_hal_dma.c ****         /* Change DMA peripheral state */
 617:../STM32Cube_FW_F4_V1.4.0/Drivers/STM32F4xx_HAL_Driver/Src/stm32f4xx_hal_dma.c ****         hdma->State = HAL_DMA_STATE_READY_HALF_MEM1;
 618:../STM32Cube_FW_F4_V1.4.0/Drivers/STM32F4xx_HAL_Driver/Src/stm32f4xx_hal_dma.c ****       }
 619:../STM32Cube_FW_F4_V1.4.0/Drivers/STM32F4xx_HAL_Driver/Src/stm32f4xx_hal_dma.c ****     }
 620:../STM32Cube_FW_F4_V1.4.0/Drivers/STM32F4xx_HAL_Driver/Src/stm32f4xx_hal_dma.c ****     else
 621:../STM32Cube_FW_F4_V1.4.0/Drivers/STM32F4xx_HAL_Driver/Src/stm32f4xx_hal_dma.c ****     {
 622:../STM32Cube_FW_F4_V1.4.0/Drivers/STM32F4xx_HAL_Driver/Src/stm32f4xx_hal_dma.c ****       /* Clear the half transfer complete flag */
 623:../STM32Cube_FW_F4_V1.4.0/Drivers/STM32F4xx_HAL_Driver/Src/stm32f4xx_hal_dma.c ****       __HAL_DMA_CLEAR_FLAG(hdma, __HAL_DMA_GET_HT_FLAG_INDEX(hdma));
 624:../STM32Cube_FW_F4_V1.4.0/Drivers/STM32F4xx_HAL_Driver/Src/stm32f4xx_hal_dma.c **** 
 625:../STM32Cube_FW_F4_V1.4.0/Drivers/STM32F4xx_HAL_Driver/Src/stm32f4xx_hal_dma.c ****       /* Change DMA peripheral state */
 626:../STM32Cube_FW_F4_V1.4.0/Drivers/STM32F4xx_HAL_Driver/Src/stm32f4xx_hal_dma.c ****       hdma->State = HAL_DMA_STATE_READY_HALF_MEM0;
 627:../STM32Cube_FW_F4_V1.4.0/Drivers/STM32F4xx_HAL_Driver/Src/stm32f4xx_hal_dma.c ****     }
 628:../STM32Cube_FW_F4_V1.4.0/Drivers/STM32F4xx_HAL_Driver/Src/stm32f4xx_hal_dma.c ****   }
 629:../STM32Cube_FW_F4_V1.4.0/Drivers/STM32F4xx_HAL_Driver/Src/stm32f4xx_hal_dma.c ****   return HAL_OK;
 630:../STM32Cube_FW_F4_V1.4.0/Drivers/STM32F4xx_HAL_Driver/Src/stm32f4xx_hal_dma.c **** }
 631:../STM32Cube_FW_F4_V1.4.0/Drivers/STM32F4xx_HAL_Driver/Src/stm32f4xx_hal_dma.c **** 
 632:../STM32Cube_FW_F4_V1.4.0/Drivers/STM32F4xx_HAL_Driver/Src/stm32f4xx_hal_dma.c **** /**
 633:../STM32Cube_FW_F4_V1.4.0/Drivers/STM32F4xx_HAL_Driver/Src/stm32f4xx_hal_dma.c ****   * @brief  Handles DMA interrupt request.
 634:../STM32Cube_FW_F4_V1.4.0/Drivers/STM32F4xx_HAL_Driver/Src/stm32f4xx_hal_dma.c ****   * @param  hdma: pointer to a DMA_HandleTypeDef structure that contains
 635:../STM32Cube_FW_F4_V1.4.0/Drivers/STM32F4xx_HAL_Driver/Src/stm32f4xx_hal_dma.c ****   *               the configuration information for the specified DMA Stream.  
 636:../STM32Cube_FW_F4_V1.4.0/Drivers/STM32F4xx_HAL_Driver/Src/stm32f4xx_hal_dma.c ****   * @retval None
 637:../STM32Cube_FW_F4_V1.4.0/Drivers/STM32F4xx_HAL_Driver/Src/stm32f4xx_hal_dma.c ****   */
 638:../STM32Cube_FW_F4_V1.4.0/Drivers/STM32F4xx_HAL_Driver/Src/stm32f4xx_hal_dma.c **** void HAL_DMA_IRQHandler(DMA_HandleTypeDef *hdma)
 639:../STM32Cube_FW_F4_V1.4.0/Drivers/STM32F4xx_HAL_Driver/Src/stm32f4xx_hal_dma.c **** {
 640:../STM32Cube_FW_F4_V1.4.0/Drivers/STM32F4xx_HAL_Driver/Src/stm32f4xx_hal_dma.c ****   /* Transfer Error Interrupt management ***************************************/
 641:../STM32Cube_FW_F4_V1.4.0/Drivers/STM32F4xx_HAL_Driver/Src/stm32f4xx_hal_dma.c ****   if(__HAL_DMA_GET_FLAG(hdma, __HAL_DMA_GET_TE_FLAG_INDEX(hdma)) != RESET)
 642:../STM32Cube_FW_F4_V1.4.0/Drivers/STM32F4xx_HAL_Driver/Src/stm32f4xx_hal_dma.c ****   {
 643:../STM32Cube_FW_F4_V1.4.0/Drivers/STM32F4xx_HAL_Driver/Src/stm32f4xx_hal_dma.c ****     if(__HAL_DMA_GET_IT_SOURCE(hdma, DMA_IT_TE) != RESET)
 644:../STM32Cube_FW_F4_V1.4.0/Drivers/STM32F4xx_HAL_Driver/Src/stm32f4xx_hal_dma.c ****     {
 645:../STM32Cube_FW_F4_V1.4.0/Drivers/STM32F4xx_HAL_Driver/Src/stm32f4xx_hal_dma.c ****       /* Disable the transfer error interrupt */
 646:../STM32Cube_FW_F4_V1.4.0/Drivers/STM32F4xx_HAL_Driver/Src/stm32f4xx_hal_dma.c ****       __HAL_DMA_DISABLE_IT(hdma, DMA_IT_TE);
 647:../STM32Cube_FW_F4_V1.4.0/Drivers/STM32F4xx_HAL_Driver/Src/stm32f4xx_hal_dma.c **** 
 648:../STM32Cube_FW_F4_V1.4.0/Drivers/STM32F4xx_HAL_Driver/Src/stm32f4xx_hal_dma.c ****       /* Clear the transfer error flag */
 649:../STM32Cube_FW_F4_V1.4.0/Drivers/STM32F4xx_HAL_Driver/Src/stm32f4xx_hal_dma.c ****       __HAL_DMA_CLEAR_FLAG(hdma, __HAL_DMA_GET_TE_FLAG_INDEX(hdma));
 650:../STM32Cube_FW_F4_V1.4.0/Drivers/STM32F4xx_HAL_Driver/Src/stm32f4xx_hal_dma.c **** 
 651:../STM32Cube_FW_F4_V1.4.0/Drivers/STM32F4xx_HAL_Driver/Src/stm32f4xx_hal_dma.c ****       /* Update error code */
 652:../STM32Cube_FW_F4_V1.4.0/Drivers/STM32F4xx_HAL_Driver/Src/stm32f4xx_hal_dma.c ****       hdma->ErrorCode |= HAL_DMA_ERROR_TE;
 653:../STM32Cube_FW_F4_V1.4.0/Drivers/STM32F4xx_HAL_Driver/Src/stm32f4xx_hal_dma.c **** 
 654:../STM32Cube_FW_F4_V1.4.0/Drivers/STM32F4xx_HAL_Driver/Src/stm32f4xx_hal_dma.c ****       /* Change the DMA state */
 655:../STM32Cube_FW_F4_V1.4.0/Drivers/STM32F4xx_HAL_Driver/Src/stm32f4xx_hal_dma.c ****       hdma->State = HAL_DMA_STATE_ERROR;
 656:../STM32Cube_FW_F4_V1.4.0/Drivers/STM32F4xx_HAL_Driver/Src/stm32f4xx_hal_dma.c **** 
 657:../STM32Cube_FW_F4_V1.4.0/Drivers/STM32F4xx_HAL_Driver/Src/stm32f4xx_hal_dma.c ****       /* Process Unlocked */
 658:../STM32Cube_FW_F4_V1.4.0/Drivers/STM32F4xx_HAL_Driver/Src/stm32f4xx_hal_dma.c ****       __HAL_UNLOCK(hdma); 
 659:../STM32Cube_FW_F4_V1.4.0/Drivers/STM32F4xx_HAL_Driver/Src/stm32f4xx_hal_dma.c **** 
 660:../STM32Cube_FW_F4_V1.4.0/Drivers/STM32F4xx_HAL_Driver/Src/stm32f4xx_hal_dma.c ****       if(hdma->XferErrorCallback != NULL)
 661:../STM32Cube_FW_F4_V1.4.0/Drivers/STM32F4xx_HAL_Driver/Src/stm32f4xx_hal_dma.c ****       {
 662:../STM32Cube_FW_F4_V1.4.0/Drivers/STM32F4xx_HAL_Driver/Src/stm32f4xx_hal_dma.c ****         /* Transfer error callback */
 663:../STM32Cube_FW_F4_V1.4.0/Drivers/STM32F4xx_HAL_Driver/Src/stm32f4xx_hal_dma.c ****         hdma->XferErrorCallback(hdma);
 664:../STM32Cube_FW_F4_V1.4.0/Drivers/STM32F4xx_HAL_Driver/Src/stm32f4xx_hal_dma.c ****       }
 665:../STM32Cube_FW_F4_V1.4.0/Drivers/STM32F4xx_HAL_Driver/Src/stm32f4xx_hal_dma.c ****     }
 666:../STM32Cube_FW_F4_V1.4.0/Drivers/STM32F4xx_HAL_Driver/Src/stm32f4xx_hal_dma.c ****   }
 667:../STM32Cube_FW_F4_V1.4.0/Drivers/STM32F4xx_HAL_Driver/Src/stm32f4xx_hal_dma.c ****   /* FIFO Error Interrupt management ******************************************/
 668:../STM32Cube_FW_F4_V1.4.0/Drivers/STM32F4xx_HAL_Driver/Src/stm32f4xx_hal_dma.c ****   if(__HAL_DMA_GET_FLAG(hdma, __HAL_DMA_GET_FE_FLAG_INDEX(hdma)) != RESET)
 669:../STM32Cube_FW_F4_V1.4.0/Drivers/STM32F4xx_HAL_Driver/Src/stm32f4xx_hal_dma.c ****   {
 670:../STM32Cube_FW_F4_V1.4.0/Drivers/STM32F4xx_HAL_Driver/Src/stm32f4xx_hal_dma.c ****     if(__HAL_DMA_GET_IT_SOURCE(hdma, DMA_IT_FE) != RESET)
ARM GAS  C:\cygwin\tmp\cc1Jaa0f.s 			page 33


 671:../STM32Cube_FW_F4_V1.4.0/Drivers/STM32F4xx_HAL_Driver/Src/stm32f4xx_hal_dma.c ****     {
 672:../STM32Cube_FW_F4_V1.4.0/Drivers/STM32F4xx_HAL_Driver/Src/stm32f4xx_hal_dma.c ****       /* Disable the FIFO Error interrupt */
 673:../STM32Cube_FW_F4_V1.4.0/Drivers/STM32F4xx_HAL_Driver/Src/stm32f4xx_hal_dma.c ****       __HAL_DMA_DISABLE_IT(hdma, DMA_IT_FE);
 674:../STM32Cube_FW_F4_V1.4.0/Drivers/STM32F4xx_HAL_Driver/Src/stm32f4xx_hal_dma.c **** 
 675:../STM32Cube_FW_F4_V1.4.0/Drivers/STM32F4xx_HAL_Driver/Src/stm32f4xx_hal_dma.c ****       /* Clear the FIFO error flag */
 676:../STM32Cube_FW_F4_V1.4.0/Drivers/STM32F4xx_HAL_Driver/Src/stm32f4xx_hal_dma.c ****       __HAL_DMA_CLEAR_FLAG(hdma, __HAL_DMA_GET_FE_FLAG_INDEX(hdma));
 677:../STM32Cube_FW_F4_V1.4.0/Drivers/STM32F4xx_HAL_Driver/Src/stm32f4xx_hal_dma.c **** 
 678:../STM32Cube_FW_F4_V1.4.0/Drivers/STM32F4xx_HAL_Driver/Src/stm32f4xx_hal_dma.c ****       /* Update error code */
 679:../STM32Cube_FW_F4_V1.4.0/Drivers/STM32F4xx_HAL_Driver/Src/stm32f4xx_hal_dma.c ****       hdma->ErrorCode |= HAL_DMA_ERROR_FE;
 680:../STM32Cube_FW_F4_V1.4.0/Drivers/STM32F4xx_HAL_Driver/Src/stm32f4xx_hal_dma.c **** 
 681:../STM32Cube_FW_F4_V1.4.0/Drivers/STM32F4xx_HAL_Driver/Src/stm32f4xx_hal_dma.c ****       /* Change the DMA state */
 682:../STM32Cube_FW_F4_V1.4.0/Drivers/STM32F4xx_HAL_Driver/Src/stm32f4xx_hal_dma.c ****       hdma->State = HAL_DMA_STATE_ERROR;
 683:../STM32Cube_FW_F4_V1.4.0/Drivers/STM32F4xx_HAL_Driver/Src/stm32f4xx_hal_dma.c **** 
 684:../STM32Cube_FW_F4_V1.4.0/Drivers/STM32F4xx_HAL_Driver/Src/stm32f4xx_hal_dma.c ****       /* Process Unlocked */
 685:../STM32Cube_FW_F4_V1.4.0/Drivers/STM32F4xx_HAL_Driver/Src/stm32f4xx_hal_dma.c ****       __HAL_UNLOCK(hdma);
 686:../STM32Cube_FW_F4_V1.4.0/Drivers/STM32F4xx_HAL_Driver/Src/stm32f4xx_hal_dma.c **** 
 687:../STM32Cube_FW_F4_V1.4.0/Drivers/STM32F4xx_HAL_Driver/Src/stm32f4xx_hal_dma.c ****       if(hdma->XferErrorCallback != NULL)
 688:../STM32Cube_FW_F4_V1.4.0/Drivers/STM32F4xx_HAL_Driver/Src/stm32f4xx_hal_dma.c ****       {
 689:../STM32Cube_FW_F4_V1.4.0/Drivers/STM32F4xx_HAL_Driver/Src/stm32f4xx_hal_dma.c ****         /* Transfer error callback */
 690:../STM32Cube_FW_F4_V1.4.0/Drivers/STM32F4xx_HAL_Driver/Src/stm32f4xx_hal_dma.c ****         hdma->XferErrorCallback(hdma);
 691:../STM32Cube_FW_F4_V1.4.0/Drivers/STM32F4xx_HAL_Driver/Src/stm32f4xx_hal_dma.c ****       }
 692:../STM32Cube_FW_F4_V1.4.0/Drivers/STM32F4xx_HAL_Driver/Src/stm32f4xx_hal_dma.c ****     }
 693:../STM32Cube_FW_F4_V1.4.0/Drivers/STM32F4xx_HAL_Driver/Src/stm32f4xx_hal_dma.c ****   }
 694:../STM32Cube_FW_F4_V1.4.0/Drivers/STM32F4xx_HAL_Driver/Src/stm32f4xx_hal_dma.c ****   /* Direct Mode Error Interrupt management ***********************************/
 695:../STM32Cube_FW_F4_V1.4.0/Drivers/STM32F4xx_HAL_Driver/Src/stm32f4xx_hal_dma.c ****   if(__HAL_DMA_GET_FLAG(hdma, __HAL_DMA_GET_DME_FLAG_INDEX(hdma)) != RESET)
 696:../STM32Cube_FW_F4_V1.4.0/Drivers/STM32F4xx_HAL_Driver/Src/stm32f4xx_hal_dma.c ****   {
 697:../STM32Cube_FW_F4_V1.4.0/Drivers/STM32F4xx_HAL_Driver/Src/stm32f4xx_hal_dma.c ****     if(__HAL_DMA_GET_IT_SOURCE(hdma, DMA_IT_DME) != RESET)
 698:../STM32Cube_FW_F4_V1.4.0/Drivers/STM32F4xx_HAL_Driver/Src/stm32f4xx_hal_dma.c ****     {
 699:../STM32Cube_FW_F4_V1.4.0/Drivers/STM32F4xx_HAL_Driver/Src/stm32f4xx_hal_dma.c ****       /* Disable the direct mode Error interrupt */
 700:../STM32Cube_FW_F4_V1.4.0/Drivers/STM32F4xx_HAL_Driver/Src/stm32f4xx_hal_dma.c ****       __HAL_DMA_DISABLE_IT(hdma, DMA_IT_DME);
 701:../STM32Cube_FW_F4_V1.4.0/Drivers/STM32F4xx_HAL_Driver/Src/stm32f4xx_hal_dma.c **** 
 702:../STM32Cube_FW_F4_V1.4.0/Drivers/STM32F4xx_HAL_Driver/Src/stm32f4xx_hal_dma.c ****       /* Clear the direct mode error flag */
 703:../STM32Cube_FW_F4_V1.4.0/Drivers/STM32F4xx_HAL_Driver/Src/stm32f4xx_hal_dma.c ****       __HAL_DMA_CLEAR_FLAG(hdma, __HAL_DMA_GET_DME_FLAG_INDEX(hdma));
 704:../STM32Cube_FW_F4_V1.4.0/Drivers/STM32F4xx_HAL_Driver/Src/stm32f4xx_hal_dma.c **** 
 705:../STM32Cube_FW_F4_V1.4.0/Drivers/STM32F4xx_HAL_Driver/Src/stm32f4xx_hal_dma.c ****       /* Update error code */
 706:../STM32Cube_FW_F4_V1.4.0/Drivers/STM32F4xx_HAL_Driver/Src/stm32f4xx_hal_dma.c ****       hdma->ErrorCode |= HAL_DMA_ERROR_DME;
 707:../STM32Cube_FW_F4_V1.4.0/Drivers/STM32F4xx_HAL_Driver/Src/stm32f4xx_hal_dma.c **** 
 708:../STM32Cube_FW_F4_V1.4.0/Drivers/STM32F4xx_HAL_Driver/Src/stm32f4xx_hal_dma.c ****       /* Change the DMA state */
 709:../STM32Cube_FW_F4_V1.4.0/Drivers/STM32F4xx_HAL_Driver/Src/stm32f4xx_hal_dma.c ****       hdma->State = HAL_DMA_STATE_ERROR;
 710:../STM32Cube_FW_F4_V1.4.0/Drivers/STM32F4xx_HAL_Driver/Src/stm32f4xx_hal_dma.c **** 
 711:../STM32Cube_FW_F4_V1.4.0/Drivers/STM32F4xx_HAL_Driver/Src/stm32f4xx_hal_dma.c ****       /* Process Unlocked */
 712:../STM32Cube_FW_F4_V1.4.0/Drivers/STM32F4xx_HAL_Driver/Src/stm32f4xx_hal_dma.c ****       __HAL_UNLOCK(hdma);
 713:../STM32Cube_FW_F4_V1.4.0/Drivers/STM32F4xx_HAL_Driver/Src/stm32f4xx_hal_dma.c **** 
 714:../STM32Cube_FW_F4_V1.4.0/Drivers/STM32F4xx_HAL_Driver/Src/stm32f4xx_hal_dma.c ****       if(hdma->XferErrorCallback != NULL)
 715:../STM32Cube_FW_F4_V1.4.0/Drivers/STM32F4xx_HAL_Driver/Src/stm32f4xx_hal_dma.c ****       {
 716:../STM32Cube_FW_F4_V1.4.0/Drivers/STM32F4xx_HAL_Driver/Src/stm32f4xx_hal_dma.c ****         /* Transfer error callback */
 717:../STM32Cube_FW_F4_V1.4.0/Drivers/STM32F4xx_HAL_Driver/Src/stm32f4xx_hal_dma.c ****         hdma->XferErrorCallback(hdma);
 718:../STM32Cube_FW_F4_V1.4.0/Drivers/STM32F4xx_HAL_Driver/Src/stm32f4xx_hal_dma.c ****       }
 719:../STM32Cube_FW_F4_V1.4.0/Drivers/STM32F4xx_HAL_Driver/Src/stm32f4xx_hal_dma.c ****     }
 720:../STM32Cube_FW_F4_V1.4.0/Drivers/STM32F4xx_HAL_Driver/Src/stm32f4xx_hal_dma.c ****   }
 721:../STM32Cube_FW_F4_V1.4.0/Drivers/STM32F4xx_HAL_Driver/Src/stm32f4xx_hal_dma.c ****   /* Half Transfer Complete Interrupt management ******************************/
 722:../STM32Cube_FW_F4_V1.4.0/Drivers/STM32F4xx_HAL_Driver/Src/stm32f4xx_hal_dma.c ****   if(__HAL_DMA_GET_FLAG(hdma, __HAL_DMA_GET_HT_FLAG_INDEX(hdma)) != RESET)
 723:../STM32Cube_FW_F4_V1.4.0/Drivers/STM32F4xx_HAL_Driver/Src/stm32f4xx_hal_dma.c ****   {
 724:../STM32Cube_FW_F4_V1.4.0/Drivers/STM32F4xx_HAL_Driver/Src/stm32f4xx_hal_dma.c ****     if(__HAL_DMA_GET_IT_SOURCE(hdma, DMA_IT_HT) != RESET)
 725:../STM32Cube_FW_F4_V1.4.0/Drivers/STM32F4xx_HAL_Driver/Src/stm32f4xx_hal_dma.c ****     { 
 726:../STM32Cube_FW_F4_V1.4.0/Drivers/STM32F4xx_HAL_Driver/Src/stm32f4xx_hal_dma.c ****       /* Multi_Buffering mode enabled */
 727:../STM32Cube_FW_F4_V1.4.0/Drivers/STM32F4xx_HAL_Driver/Src/stm32f4xx_hal_dma.c ****       if(((hdma->Instance->CR) & (uint32_t)(DMA_SxCR_DBM)) != 0)
ARM GAS  C:\cygwin\tmp\cc1Jaa0f.s 			page 34


 728:../STM32Cube_FW_F4_V1.4.0/Drivers/STM32F4xx_HAL_Driver/Src/stm32f4xx_hal_dma.c ****       {
 729:../STM32Cube_FW_F4_V1.4.0/Drivers/STM32F4xx_HAL_Driver/Src/stm32f4xx_hal_dma.c ****         /* Clear the half transfer complete flag */
 730:../STM32Cube_FW_F4_V1.4.0/Drivers/STM32F4xx_HAL_Driver/Src/stm32f4xx_hal_dma.c ****         __HAL_DMA_CLEAR_FLAG(hdma, __HAL_DMA_GET_HT_FLAG_INDEX(hdma));
 731:../STM32Cube_FW_F4_V1.4.0/Drivers/STM32F4xx_HAL_Driver/Src/stm32f4xx_hal_dma.c **** 
 732:../STM32Cube_FW_F4_V1.4.0/Drivers/STM32F4xx_HAL_Driver/Src/stm32f4xx_hal_dma.c ****         /* Current memory buffer used is Memory 0 */
 733:../STM32Cube_FW_F4_V1.4.0/Drivers/STM32F4xx_HAL_Driver/Src/stm32f4xx_hal_dma.c ****         if((hdma->Instance->CR & DMA_SxCR_CT) == 0)
 734:../STM32Cube_FW_F4_V1.4.0/Drivers/STM32F4xx_HAL_Driver/Src/stm32f4xx_hal_dma.c ****         {
 735:../STM32Cube_FW_F4_V1.4.0/Drivers/STM32F4xx_HAL_Driver/Src/stm32f4xx_hal_dma.c ****           /* Change DMA peripheral state */
 736:../STM32Cube_FW_F4_V1.4.0/Drivers/STM32F4xx_HAL_Driver/Src/stm32f4xx_hal_dma.c ****           hdma->State = HAL_DMA_STATE_READY_HALF_MEM0;
 737:../STM32Cube_FW_F4_V1.4.0/Drivers/STM32F4xx_HAL_Driver/Src/stm32f4xx_hal_dma.c ****         }
 738:../STM32Cube_FW_F4_V1.4.0/Drivers/STM32F4xx_HAL_Driver/Src/stm32f4xx_hal_dma.c ****         /* Current memory buffer used is Memory 1 */
 739:../STM32Cube_FW_F4_V1.4.0/Drivers/STM32F4xx_HAL_Driver/Src/stm32f4xx_hal_dma.c ****         else if((hdma->Instance->CR & DMA_SxCR_CT) != 0)
 740:../STM32Cube_FW_F4_V1.4.0/Drivers/STM32F4xx_HAL_Driver/Src/stm32f4xx_hal_dma.c ****         {
 741:../STM32Cube_FW_F4_V1.4.0/Drivers/STM32F4xx_HAL_Driver/Src/stm32f4xx_hal_dma.c ****           /* Change DMA peripheral state */
 742:../STM32Cube_FW_F4_V1.4.0/Drivers/STM32F4xx_HAL_Driver/Src/stm32f4xx_hal_dma.c ****           hdma->State = HAL_DMA_STATE_READY_HALF_MEM1;
 743:../STM32Cube_FW_F4_V1.4.0/Drivers/STM32F4xx_HAL_Driver/Src/stm32f4xx_hal_dma.c ****         }
 744:../STM32Cube_FW_F4_V1.4.0/Drivers/STM32F4xx_HAL_Driver/Src/stm32f4xx_hal_dma.c ****       }
 745:../STM32Cube_FW_F4_V1.4.0/Drivers/STM32F4xx_HAL_Driver/Src/stm32f4xx_hal_dma.c ****       else
 746:../STM32Cube_FW_F4_V1.4.0/Drivers/STM32F4xx_HAL_Driver/Src/stm32f4xx_hal_dma.c ****       {
 747:../STM32Cube_FW_F4_V1.4.0/Drivers/STM32F4xx_HAL_Driver/Src/stm32f4xx_hal_dma.c ****         /* Disable the half transfer interrupt if the DMA mode is not CIRCULAR */
 748:../STM32Cube_FW_F4_V1.4.0/Drivers/STM32F4xx_HAL_Driver/Src/stm32f4xx_hal_dma.c ****         if((hdma->Instance->CR & DMA_SxCR_CIRC) == 0)
 749:../STM32Cube_FW_F4_V1.4.0/Drivers/STM32F4xx_HAL_Driver/Src/stm32f4xx_hal_dma.c ****         {
 750:../STM32Cube_FW_F4_V1.4.0/Drivers/STM32F4xx_HAL_Driver/Src/stm32f4xx_hal_dma.c ****           /* Disable the half transfer interrupt */
 751:../STM32Cube_FW_F4_V1.4.0/Drivers/STM32F4xx_HAL_Driver/Src/stm32f4xx_hal_dma.c ****           __HAL_DMA_DISABLE_IT(hdma, DMA_IT_HT);
 752:../STM32Cube_FW_F4_V1.4.0/Drivers/STM32F4xx_HAL_Driver/Src/stm32f4xx_hal_dma.c ****         }
 753:../STM32Cube_FW_F4_V1.4.0/Drivers/STM32F4xx_HAL_Driver/Src/stm32f4xx_hal_dma.c ****         /* Clear the half transfer complete flag */
 754:../STM32Cube_FW_F4_V1.4.0/Drivers/STM32F4xx_HAL_Driver/Src/stm32f4xx_hal_dma.c ****         __HAL_DMA_CLEAR_FLAG(hdma, __HAL_DMA_GET_HT_FLAG_INDEX(hdma));
 755:../STM32Cube_FW_F4_V1.4.0/Drivers/STM32F4xx_HAL_Driver/Src/stm32f4xx_hal_dma.c **** 
 756:../STM32Cube_FW_F4_V1.4.0/Drivers/STM32F4xx_HAL_Driver/Src/stm32f4xx_hal_dma.c ****         /* Change DMA peripheral state */
 757:../STM32Cube_FW_F4_V1.4.0/Drivers/STM32F4xx_HAL_Driver/Src/stm32f4xx_hal_dma.c ****         hdma->State = HAL_DMA_STATE_READY_HALF_MEM0;
 758:../STM32Cube_FW_F4_V1.4.0/Drivers/STM32F4xx_HAL_Driver/Src/stm32f4xx_hal_dma.c ****       }
 759:../STM32Cube_FW_F4_V1.4.0/Drivers/STM32F4xx_HAL_Driver/Src/stm32f4xx_hal_dma.c **** 
 760:../STM32Cube_FW_F4_V1.4.0/Drivers/STM32F4xx_HAL_Driver/Src/stm32f4xx_hal_dma.c ****       if(hdma->XferHalfCpltCallback != NULL)
 761:../STM32Cube_FW_F4_V1.4.0/Drivers/STM32F4xx_HAL_Driver/Src/stm32f4xx_hal_dma.c ****       {
 762:../STM32Cube_FW_F4_V1.4.0/Drivers/STM32F4xx_HAL_Driver/Src/stm32f4xx_hal_dma.c ****         /* Half transfer callback */
 763:../STM32Cube_FW_F4_V1.4.0/Drivers/STM32F4xx_HAL_Driver/Src/stm32f4xx_hal_dma.c ****         hdma->XferHalfCpltCallback(hdma);
 764:../STM32Cube_FW_F4_V1.4.0/Drivers/STM32F4xx_HAL_Driver/Src/stm32f4xx_hal_dma.c ****       }
 765:../STM32Cube_FW_F4_V1.4.0/Drivers/STM32F4xx_HAL_Driver/Src/stm32f4xx_hal_dma.c ****     }
 766:../STM32Cube_FW_F4_V1.4.0/Drivers/STM32F4xx_HAL_Driver/Src/stm32f4xx_hal_dma.c ****   }
 767:../STM32Cube_FW_F4_V1.4.0/Drivers/STM32F4xx_HAL_Driver/Src/stm32f4xx_hal_dma.c ****   /* Transfer Complete Interrupt management ***********************************/
 768:../STM32Cube_FW_F4_V1.4.0/Drivers/STM32F4xx_HAL_Driver/Src/stm32f4xx_hal_dma.c ****   if(__HAL_DMA_GET_FLAG(hdma, __HAL_DMA_GET_TC_FLAG_INDEX(hdma)) != RESET)
 769:../STM32Cube_FW_F4_V1.4.0/Drivers/STM32F4xx_HAL_Driver/Src/stm32f4xx_hal_dma.c ****   {
 770:../STM32Cube_FW_F4_V1.4.0/Drivers/STM32F4xx_HAL_Driver/Src/stm32f4xx_hal_dma.c ****     if(__HAL_DMA_GET_IT_SOURCE(hdma, DMA_IT_TC) != RESET)
 771:../STM32Cube_FW_F4_V1.4.0/Drivers/STM32F4xx_HAL_Driver/Src/stm32f4xx_hal_dma.c ****     {
 772:../STM32Cube_FW_F4_V1.4.0/Drivers/STM32F4xx_HAL_Driver/Src/stm32f4xx_hal_dma.c ****       if(((hdma->Instance->CR) & (uint32_t)(DMA_SxCR_DBM)) != 0)
 773:../STM32Cube_FW_F4_V1.4.0/Drivers/STM32F4xx_HAL_Driver/Src/stm32f4xx_hal_dma.c ****       {
 774:../STM32Cube_FW_F4_V1.4.0/Drivers/STM32F4xx_HAL_Driver/Src/stm32f4xx_hal_dma.c ****         /* Clear the transfer complete flag */
 775:../STM32Cube_FW_F4_V1.4.0/Drivers/STM32F4xx_HAL_Driver/Src/stm32f4xx_hal_dma.c ****         __HAL_DMA_CLEAR_FLAG(hdma, __HAL_DMA_GET_TC_FLAG_INDEX(hdma));
 776:../STM32Cube_FW_F4_V1.4.0/Drivers/STM32F4xx_HAL_Driver/Src/stm32f4xx_hal_dma.c **** 
 777:../STM32Cube_FW_F4_V1.4.0/Drivers/STM32F4xx_HAL_Driver/Src/stm32f4xx_hal_dma.c ****         /* Current memory buffer used is Memory 1 */
 778:../STM32Cube_FW_F4_V1.4.0/Drivers/STM32F4xx_HAL_Driver/Src/stm32f4xx_hal_dma.c ****         if((hdma->Instance->CR & DMA_SxCR_CT) == 0)
 779:../STM32Cube_FW_F4_V1.4.0/Drivers/STM32F4xx_HAL_Driver/Src/stm32f4xx_hal_dma.c ****         {
 780:../STM32Cube_FW_F4_V1.4.0/Drivers/STM32F4xx_HAL_Driver/Src/stm32f4xx_hal_dma.c ****           if(hdma->XferM1CpltCallback != NULL)
 781:../STM32Cube_FW_F4_V1.4.0/Drivers/STM32F4xx_HAL_Driver/Src/stm32f4xx_hal_dma.c ****           {
 782:../STM32Cube_FW_F4_V1.4.0/Drivers/STM32F4xx_HAL_Driver/Src/stm32f4xx_hal_dma.c ****             /* Transfer complete Callback for memory1 */
 783:../STM32Cube_FW_F4_V1.4.0/Drivers/STM32F4xx_HAL_Driver/Src/stm32f4xx_hal_dma.c ****             hdma->XferM1CpltCallback(hdma);
 784:../STM32Cube_FW_F4_V1.4.0/Drivers/STM32F4xx_HAL_Driver/Src/stm32f4xx_hal_dma.c ****           }
ARM GAS  C:\cygwin\tmp\cc1Jaa0f.s 			page 35


 785:../STM32Cube_FW_F4_V1.4.0/Drivers/STM32F4xx_HAL_Driver/Src/stm32f4xx_hal_dma.c ****         }
 786:../STM32Cube_FW_F4_V1.4.0/Drivers/STM32F4xx_HAL_Driver/Src/stm32f4xx_hal_dma.c ****         /* Current memory buffer used is Memory 0 */
 787:../STM32Cube_FW_F4_V1.4.0/Drivers/STM32F4xx_HAL_Driver/Src/stm32f4xx_hal_dma.c ****         else if((hdma->Instance->CR & DMA_SxCR_CT) != 0) 
 788:../STM32Cube_FW_F4_V1.4.0/Drivers/STM32F4xx_HAL_Driver/Src/stm32f4xx_hal_dma.c ****         {
 789:../STM32Cube_FW_F4_V1.4.0/Drivers/STM32F4xx_HAL_Driver/Src/stm32f4xx_hal_dma.c ****           if(hdma->XferCpltCallback != NULL)
 790:../STM32Cube_FW_F4_V1.4.0/Drivers/STM32F4xx_HAL_Driver/Src/stm32f4xx_hal_dma.c ****           {
 791:../STM32Cube_FW_F4_V1.4.0/Drivers/STM32F4xx_HAL_Driver/Src/stm32f4xx_hal_dma.c ****             /* Transfer complete Callback for memory0 */
 792:../STM32Cube_FW_F4_V1.4.0/Drivers/STM32F4xx_HAL_Driver/Src/stm32f4xx_hal_dma.c ****             hdma->XferCpltCallback(hdma);
 793:../STM32Cube_FW_F4_V1.4.0/Drivers/STM32F4xx_HAL_Driver/Src/stm32f4xx_hal_dma.c ****           }
 794:../STM32Cube_FW_F4_V1.4.0/Drivers/STM32F4xx_HAL_Driver/Src/stm32f4xx_hal_dma.c ****         }
 795:../STM32Cube_FW_F4_V1.4.0/Drivers/STM32F4xx_HAL_Driver/Src/stm32f4xx_hal_dma.c ****       }
 796:../STM32Cube_FW_F4_V1.4.0/Drivers/STM32F4xx_HAL_Driver/Src/stm32f4xx_hal_dma.c ****       /* Disable the transfer complete interrupt if the DMA mode is not CIRCULAR */
 797:../STM32Cube_FW_F4_V1.4.0/Drivers/STM32F4xx_HAL_Driver/Src/stm32f4xx_hal_dma.c ****       else
 798:../STM32Cube_FW_F4_V1.4.0/Drivers/STM32F4xx_HAL_Driver/Src/stm32f4xx_hal_dma.c ****       {
 799:../STM32Cube_FW_F4_V1.4.0/Drivers/STM32F4xx_HAL_Driver/Src/stm32f4xx_hal_dma.c ****         if((hdma->Instance->CR & DMA_SxCR_CIRC) == 0)
 800:../STM32Cube_FW_F4_V1.4.0/Drivers/STM32F4xx_HAL_Driver/Src/stm32f4xx_hal_dma.c ****         {
 801:../STM32Cube_FW_F4_V1.4.0/Drivers/STM32F4xx_HAL_Driver/Src/stm32f4xx_hal_dma.c ****           /* Disable the transfer complete interrupt */
 802:../STM32Cube_FW_F4_V1.4.0/Drivers/STM32F4xx_HAL_Driver/Src/stm32f4xx_hal_dma.c ****           __HAL_DMA_DISABLE_IT(hdma, DMA_IT_TC);
 803:../STM32Cube_FW_F4_V1.4.0/Drivers/STM32F4xx_HAL_Driver/Src/stm32f4xx_hal_dma.c ****         }
 804:../STM32Cube_FW_F4_V1.4.0/Drivers/STM32F4xx_HAL_Driver/Src/stm32f4xx_hal_dma.c ****         /* Clear the transfer complete flag */
 805:../STM32Cube_FW_F4_V1.4.0/Drivers/STM32F4xx_HAL_Driver/Src/stm32f4xx_hal_dma.c ****         __HAL_DMA_CLEAR_FLAG(hdma, __HAL_DMA_GET_TC_FLAG_INDEX(hdma));
 806:../STM32Cube_FW_F4_V1.4.0/Drivers/STM32F4xx_HAL_Driver/Src/stm32f4xx_hal_dma.c **** 
 807:../STM32Cube_FW_F4_V1.4.0/Drivers/STM32F4xx_HAL_Driver/Src/stm32f4xx_hal_dma.c ****         /* Update error code */
 808:../STM32Cube_FW_F4_V1.4.0/Drivers/STM32F4xx_HAL_Driver/Src/stm32f4xx_hal_dma.c ****         hdma->ErrorCode |= HAL_DMA_ERROR_NONE;
 809:../STM32Cube_FW_F4_V1.4.0/Drivers/STM32F4xx_HAL_Driver/Src/stm32f4xx_hal_dma.c **** 
 810:../STM32Cube_FW_F4_V1.4.0/Drivers/STM32F4xx_HAL_Driver/Src/stm32f4xx_hal_dma.c ****         /* Change the DMA state */
 811:../STM32Cube_FW_F4_V1.4.0/Drivers/STM32F4xx_HAL_Driver/Src/stm32f4xx_hal_dma.c ****         hdma->State = HAL_DMA_STATE_READY_MEM0;
 812:../STM32Cube_FW_F4_V1.4.0/Drivers/STM32F4xx_HAL_Driver/Src/stm32f4xx_hal_dma.c **** 
 813:../STM32Cube_FW_F4_V1.4.0/Drivers/STM32F4xx_HAL_Driver/Src/stm32f4xx_hal_dma.c ****         /* Process Unlocked */
 814:../STM32Cube_FW_F4_V1.4.0/Drivers/STM32F4xx_HAL_Driver/Src/stm32f4xx_hal_dma.c ****         __HAL_UNLOCK(hdma);      
 815:../STM32Cube_FW_F4_V1.4.0/Drivers/STM32F4xx_HAL_Driver/Src/stm32f4xx_hal_dma.c **** 
 816:../STM32Cube_FW_F4_V1.4.0/Drivers/STM32F4xx_HAL_Driver/Src/stm32f4xx_hal_dma.c ****         if(hdma->XferCpltCallback != NULL)
 817:../STM32Cube_FW_F4_V1.4.0/Drivers/STM32F4xx_HAL_Driver/Src/stm32f4xx_hal_dma.c ****         {
 818:../STM32Cube_FW_F4_V1.4.0/Drivers/STM32F4xx_HAL_Driver/Src/stm32f4xx_hal_dma.c ****           /* Transfer complete callback */
 819:../STM32Cube_FW_F4_V1.4.0/Drivers/STM32F4xx_HAL_Driver/Src/stm32f4xx_hal_dma.c ****           hdma->XferCpltCallback(hdma);
 820:../STM32Cube_FW_F4_V1.4.0/Drivers/STM32F4xx_HAL_Driver/Src/stm32f4xx_hal_dma.c ****         }
 821:../STM32Cube_FW_F4_V1.4.0/Drivers/STM32F4xx_HAL_Driver/Src/stm32f4xx_hal_dma.c ****       }
 822:../STM32Cube_FW_F4_V1.4.0/Drivers/STM32F4xx_HAL_Driver/Src/stm32f4xx_hal_dma.c ****     }
 823:../STM32Cube_FW_F4_V1.4.0/Drivers/STM32F4xx_HAL_Driver/Src/stm32f4xx_hal_dma.c ****   }
 824:../STM32Cube_FW_F4_V1.4.0/Drivers/STM32F4xx_HAL_Driver/Src/stm32f4xx_hal_dma.c **** }
 825:../STM32Cube_FW_F4_V1.4.0/Drivers/STM32F4xx_HAL_Driver/Src/stm32f4xx_hal_dma.c **** 
 826:../STM32Cube_FW_F4_V1.4.0/Drivers/STM32F4xx_HAL_Driver/Src/stm32f4xx_hal_dma.c **** /**
 827:../STM32Cube_FW_F4_V1.4.0/Drivers/STM32F4xx_HAL_Driver/Src/stm32f4xx_hal_dma.c ****   * @}
 828:../STM32Cube_FW_F4_V1.4.0/Drivers/STM32F4xx_HAL_Driver/Src/stm32f4xx_hal_dma.c ****   */
 829:../STM32Cube_FW_F4_V1.4.0/Drivers/STM32F4xx_HAL_Driver/Src/stm32f4xx_hal_dma.c **** 
 830:../STM32Cube_FW_F4_V1.4.0/Drivers/STM32F4xx_HAL_Driver/Src/stm32f4xx_hal_dma.c **** /** @addtogroup DMA_Exported_Functions_Group3
 831:../STM32Cube_FW_F4_V1.4.0/Drivers/STM32F4xx_HAL_Driver/Src/stm32f4xx_hal_dma.c ****   *
 832:../STM32Cube_FW_F4_V1.4.0/Drivers/STM32F4xx_HAL_Driver/Src/stm32f4xx_hal_dma.c **** @verbatim
 833:../STM32Cube_FW_F4_V1.4.0/Drivers/STM32F4xx_HAL_Driver/Src/stm32f4xx_hal_dma.c ****  ===============================================================================
 834:../STM32Cube_FW_F4_V1.4.0/Drivers/STM32F4xx_HAL_Driver/Src/stm32f4xx_hal_dma.c ****                     ##### State and Errors functions #####
 835:../STM32Cube_FW_F4_V1.4.0/Drivers/STM32F4xx_HAL_Driver/Src/stm32f4xx_hal_dma.c ****  ===============================================================================
 836:../STM32Cube_FW_F4_V1.4.0/Drivers/STM32F4xx_HAL_Driver/Src/stm32f4xx_hal_dma.c ****     [..]
 837:../STM32Cube_FW_F4_V1.4.0/Drivers/STM32F4xx_HAL_Driver/Src/stm32f4xx_hal_dma.c ****     This subsection provides functions allowing to
 838:../STM32Cube_FW_F4_V1.4.0/Drivers/STM32F4xx_HAL_Driver/Src/stm32f4xx_hal_dma.c ****       (+) Check the DMA state
 839:../STM32Cube_FW_F4_V1.4.0/Drivers/STM32F4xx_HAL_Driver/Src/stm32f4xx_hal_dma.c ****       (+) Get error code
 840:../STM32Cube_FW_F4_V1.4.0/Drivers/STM32F4xx_HAL_Driver/Src/stm32f4xx_hal_dma.c **** 
 841:../STM32Cube_FW_F4_V1.4.0/Drivers/STM32F4xx_HAL_Driver/Src/stm32f4xx_hal_dma.c **** @endverbatim
ARM GAS  C:\cygwin\tmp\cc1Jaa0f.s 			page 36


 842:../STM32Cube_FW_F4_V1.4.0/Drivers/STM32F4xx_HAL_Driver/Src/stm32f4xx_hal_dma.c ****   * @{
 843:../STM32Cube_FW_F4_V1.4.0/Drivers/STM32F4xx_HAL_Driver/Src/stm32f4xx_hal_dma.c ****   */
 844:../STM32Cube_FW_F4_V1.4.0/Drivers/STM32F4xx_HAL_Driver/Src/stm32f4xx_hal_dma.c **** 
 845:../STM32Cube_FW_F4_V1.4.0/Drivers/STM32F4xx_HAL_Driver/Src/stm32f4xx_hal_dma.c **** /**
 846:../STM32Cube_FW_F4_V1.4.0/Drivers/STM32F4xx_HAL_Driver/Src/stm32f4xx_hal_dma.c ****   * @brief  Returns the DMA state.
 847:../STM32Cube_FW_F4_V1.4.0/Drivers/STM32F4xx_HAL_Driver/Src/stm32f4xx_hal_dma.c ****   * @param  hdma: pointer to a DMA_HandleTypeDef structure that contains
 848:../STM32Cube_FW_F4_V1.4.0/Drivers/STM32F4xx_HAL_Driver/Src/stm32f4xx_hal_dma.c ****   *               the configuration information for the specified DMA Stream.
 849:../STM32Cube_FW_F4_V1.4.0/Drivers/STM32F4xx_HAL_Driver/Src/stm32f4xx_hal_dma.c ****   * @retval HAL state
 850:../STM32Cube_FW_F4_V1.4.0/Drivers/STM32F4xx_HAL_Driver/Src/stm32f4xx_hal_dma.c ****   */
 851:../STM32Cube_FW_F4_V1.4.0/Drivers/STM32F4xx_HAL_Driver/Src/stm32f4xx_hal_dma.c **** HAL_DMA_StateTypeDef HAL_DMA_GetState(DMA_HandleTypeDef *hdma)
 852:../STM32Cube_FW_F4_V1.4.0/Drivers/STM32F4xx_HAL_Driver/Src/stm32f4xx_hal_dma.c **** {
 853:../STM32Cube_FW_F4_V1.4.0/Drivers/STM32F4xx_HAL_Driver/Src/stm32f4xx_hal_dma.c ****   return hdma->State;
 854:../STM32Cube_FW_F4_V1.4.0/Drivers/STM32F4xx_HAL_Driver/Src/stm32f4xx_hal_dma.c **** }
 855:../STM32Cube_FW_F4_V1.4.0/Drivers/STM32F4xx_HAL_Driver/Src/stm32f4xx_hal_dma.c **** 
 856:../STM32Cube_FW_F4_V1.4.0/Drivers/STM32F4xx_HAL_Driver/Src/stm32f4xx_hal_dma.c **** /**
 857:../STM32Cube_FW_F4_V1.4.0/Drivers/STM32F4xx_HAL_Driver/Src/stm32f4xx_hal_dma.c ****   * @brief  Return the DMA error code
 858:../STM32Cube_FW_F4_V1.4.0/Drivers/STM32F4xx_HAL_Driver/Src/stm32f4xx_hal_dma.c ****   * @param  hdma : pointer to a DMA_HandleTypeDef structure that contains
 859:../STM32Cube_FW_F4_V1.4.0/Drivers/STM32F4xx_HAL_Driver/Src/stm32f4xx_hal_dma.c ****   *              the configuration information for the specified DMA Stream.
 860:../STM32Cube_FW_F4_V1.4.0/Drivers/STM32F4xx_HAL_Driver/Src/stm32f4xx_hal_dma.c ****   * @retval DMA Error Code
 861:../STM32Cube_FW_F4_V1.4.0/Drivers/STM32F4xx_HAL_Driver/Src/stm32f4xx_hal_dma.c ****   */
 862:../STM32Cube_FW_F4_V1.4.0/Drivers/STM32F4xx_HAL_Driver/Src/stm32f4xx_hal_dma.c **** uint32_t HAL_DMA_GetError(DMA_HandleTypeDef *hdma)
 863:../STM32Cube_FW_F4_V1.4.0/Drivers/STM32F4xx_HAL_Driver/Src/stm32f4xx_hal_dma.c **** {
 864:../STM32Cube_FW_F4_V1.4.0/Drivers/STM32F4xx_HAL_Driver/Src/stm32f4xx_hal_dma.c ****   return hdma->ErrorCode;
 865:../STM32Cube_FW_F4_V1.4.0/Drivers/STM32F4xx_HAL_Driver/Src/stm32f4xx_hal_dma.c **** }
 866:../STM32Cube_FW_F4_V1.4.0/Drivers/STM32F4xx_HAL_Driver/Src/stm32f4xx_hal_dma.c **** 
 867:../STM32Cube_FW_F4_V1.4.0/Drivers/STM32F4xx_HAL_Driver/Src/stm32f4xx_hal_dma.c **** /**
 868:../STM32Cube_FW_F4_V1.4.0/Drivers/STM32F4xx_HAL_Driver/Src/stm32f4xx_hal_dma.c ****   * @}
 869:../STM32Cube_FW_F4_V1.4.0/Drivers/STM32F4xx_HAL_Driver/Src/stm32f4xx_hal_dma.c ****   */
 870:../STM32Cube_FW_F4_V1.4.0/Drivers/STM32F4xx_HAL_Driver/Src/stm32f4xx_hal_dma.c **** 
 871:../STM32Cube_FW_F4_V1.4.0/Drivers/STM32F4xx_HAL_Driver/Src/stm32f4xx_hal_dma.c **** /**
 872:../STM32Cube_FW_F4_V1.4.0/Drivers/STM32F4xx_HAL_Driver/Src/stm32f4xx_hal_dma.c ****   * @}
 873:../STM32Cube_FW_F4_V1.4.0/Drivers/STM32F4xx_HAL_Driver/Src/stm32f4xx_hal_dma.c ****   */
 874:../STM32Cube_FW_F4_V1.4.0/Drivers/STM32F4xx_HAL_Driver/Src/stm32f4xx_hal_dma.c ****   
 875:../STM32Cube_FW_F4_V1.4.0/Drivers/STM32F4xx_HAL_Driver/Src/stm32f4xx_hal_dma.c **** /** @addtogroup DMA_Private_Functions
 876:../STM32Cube_FW_F4_V1.4.0/Drivers/STM32F4xx_HAL_Driver/Src/stm32f4xx_hal_dma.c ****   * @{
 877:../STM32Cube_FW_F4_V1.4.0/Drivers/STM32F4xx_HAL_Driver/Src/stm32f4xx_hal_dma.c ****   */
 878:../STM32Cube_FW_F4_V1.4.0/Drivers/STM32F4xx_HAL_Driver/Src/stm32f4xx_hal_dma.c **** 
 879:../STM32Cube_FW_F4_V1.4.0/Drivers/STM32F4xx_HAL_Driver/Src/stm32f4xx_hal_dma.c **** /**
 880:../STM32Cube_FW_F4_V1.4.0/Drivers/STM32F4xx_HAL_Driver/Src/stm32f4xx_hal_dma.c ****   * @brief  Sets the DMA Transfer parameter.
 881:../STM32Cube_FW_F4_V1.4.0/Drivers/STM32F4xx_HAL_Driver/Src/stm32f4xx_hal_dma.c ****   * @param  hdma:       pointer to a DMA_HandleTypeDef structure that contains
 882:../STM32Cube_FW_F4_V1.4.0/Drivers/STM32F4xx_HAL_Driver/Src/stm32f4xx_hal_dma.c ****   *                     the configuration information for the specified DMA Stream.
 883:../STM32Cube_FW_F4_V1.4.0/Drivers/STM32F4xx_HAL_Driver/Src/stm32f4xx_hal_dma.c ****   * @param  SrcAddress: The source memory Buffer address
 884:../STM32Cube_FW_F4_V1.4.0/Drivers/STM32F4xx_HAL_Driver/Src/stm32f4xx_hal_dma.c ****   * @param  DstAddress: The destination memory Buffer address
 885:../STM32Cube_FW_F4_V1.4.0/Drivers/STM32F4xx_HAL_Driver/Src/stm32f4xx_hal_dma.c ****   * @param  DataLength: The length of data to be transferred from source to destination
 886:../STM32Cube_FW_F4_V1.4.0/Drivers/STM32F4xx_HAL_Driver/Src/stm32f4xx_hal_dma.c ****   * @retval HAL status
 887:../STM32Cube_FW_F4_V1.4.0/Drivers/STM32F4xx_HAL_Driver/Src/stm32f4xx_hal_dma.c ****   */
 888:../STM32Cube_FW_F4_V1.4.0/Drivers/STM32F4xx_HAL_Driver/Src/stm32f4xx_hal_dma.c **** static void DMA_SetConfig(DMA_HandleTypeDef *hdma, uint32_t SrcAddress, uint32_t DstAddress, uint32
 889:../STM32Cube_FW_F4_V1.4.0/Drivers/STM32F4xx_HAL_Driver/Src/stm32f4xx_hal_dma.c **** {
 890:../STM32Cube_FW_F4_V1.4.0/Drivers/STM32F4xx_HAL_Driver/Src/stm32f4xx_hal_dma.c ****   /* Clear DBM bit */
 891:../STM32Cube_FW_F4_V1.4.0/Drivers/STM32F4xx_HAL_Driver/Src/stm32f4xx_hal_dma.c ****   hdma->Instance->CR &= (uint32_t)(~DMA_SxCR_DBM);
 892:../STM32Cube_FW_F4_V1.4.0/Drivers/STM32F4xx_HAL_Driver/Src/stm32f4xx_hal_dma.c **** 
 893:../STM32Cube_FW_F4_V1.4.0/Drivers/STM32F4xx_HAL_Driver/Src/stm32f4xx_hal_dma.c ****   /* Configure DMA Stream data length */
 894:../STM32Cube_FW_F4_V1.4.0/Drivers/STM32F4xx_HAL_Driver/Src/stm32f4xx_hal_dma.c ****   hdma->Instance->NDTR = DataLength;
 895:../STM32Cube_FW_F4_V1.4.0/Drivers/STM32F4xx_HAL_Driver/Src/stm32f4xx_hal_dma.c **** 
 896:../STM32Cube_FW_F4_V1.4.0/Drivers/STM32F4xx_HAL_Driver/Src/stm32f4xx_hal_dma.c ****   /* Peripheral to Memory */
 897:../STM32Cube_FW_F4_V1.4.0/Drivers/STM32F4xx_HAL_Driver/Src/stm32f4xx_hal_dma.c ****   if((hdma->Init.Direction) == DMA_MEMORY_TO_PERIPH)
 1080              		.loc 1 897 0
ARM GAS  C:\cygwin\tmp\cc1Jaa0f.s 			page 37


 1081 0036 A368     		ldr	r3, [r4, #8]	@ hdma_5(D)->Init.Direction, hdma_5(D)->Init.Direction
 1082              	.LBE5:
 1083              	.LBE4:
 369:../STM32Cube_FW_F4_V1.4.0/Drivers/STM32F4xx_HAL_Driver/Src/stm32f4xx_hal_dma.c **** 
 1084              		.loc 1 369 0
 1085 0038 0868     		ldr	r0, [r1]	@ D.13979, _12->CR
 1086 003a 20F00100 		bic	r0, r0, #1	@ D.13979, D.13979,
 1087 003e 0860     		str	r0, [r1]	@ D.13979, _12->CR
 1088              	.LVL38:
 1089              	.LBB7:
 1090              	.LBB6:
 891:../STM32Cube_FW_F4_V1.4.0/Drivers/STM32F4xx_HAL_Driver/Src/stm32f4xx_hal_dma.c **** 
 1091              		.loc 1 891 0
 1092 0040 0868     		ldr	r0, [r1]	@ D.13979, _12->CR
 1093              		.loc 1 897 0
 1094 0042 402B     		cmp	r3, #64	@ hdma_5(D)->Init.Direction,
 891:../STM32Cube_FW_F4_V1.4.0/Drivers/STM32F4xx_HAL_Driver/Src/stm32f4xx_hal_dma.c **** 
 1095              		.loc 1 891 0
 1096 0044 20F48020 		bic	r0, r0, #262144	@ D.13979, D.13979,
 1097 0048 0860     		str	r0, [r1]	@ D.13979, _12->CR
 894:../STM32Cube_FW_F4_V1.4.0/Drivers/STM32F4xx_HAL_Driver/Src/stm32f4xx_hal_dma.c **** 
 1098              		.loc 1 894 0
 1099 004a 4F60     		str	r7, [r1, #4]	@ DataLength, _12->NDTR
 898:../STM32Cube_FW_F4_V1.4.0/Drivers/STM32F4xx_HAL_Driver/Src/stm32f4xx_hal_dma.c ****   {
 899:../STM32Cube_FW_F4_V1.4.0/Drivers/STM32F4xx_HAL_Driver/Src/stm32f4xx_hal_dma.c ****     /* Configure DMA Stream destination address */
 900:../STM32Cube_FW_F4_V1.4.0/Drivers/STM32F4xx_HAL_Driver/Src/stm32f4xx_hal_dma.c ****     hdma->Instance->PAR = DstAddress;
 1100              		.loc 1 900 0
 1101 004c 0BBF     		itete	eq
 1102 004e 8D60     		streq	r5, [r1, #8]	@ DstAddress, _12->PAR
 901:../STM32Cube_FW_F4_V1.4.0/Drivers/STM32F4xx_HAL_Driver/Src/stm32f4xx_hal_dma.c **** 
 902:../STM32Cube_FW_F4_V1.4.0/Drivers/STM32F4xx_HAL_Driver/Src/stm32f4xx_hal_dma.c ****     /* Configure DMA Stream source address */
 903:../STM32Cube_FW_F4_V1.4.0/Drivers/STM32F4xx_HAL_Driver/Src/stm32f4xx_hal_dma.c ****     hdma->Instance->M0AR = SrcAddress;
 904:../STM32Cube_FW_F4_V1.4.0/Drivers/STM32F4xx_HAL_Driver/Src/stm32f4xx_hal_dma.c ****   }
 905:../STM32Cube_FW_F4_V1.4.0/Drivers/STM32F4xx_HAL_Driver/Src/stm32f4xx_hal_dma.c ****   /* Memory to Peripheral */
 906:../STM32Cube_FW_F4_V1.4.0/Drivers/STM32F4xx_HAL_Driver/Src/stm32f4xx_hal_dma.c ****   else
 907:../STM32Cube_FW_F4_V1.4.0/Drivers/STM32F4xx_HAL_Driver/Src/stm32f4xx_hal_dma.c ****   {
 908:../STM32Cube_FW_F4_V1.4.0/Drivers/STM32F4xx_HAL_Driver/Src/stm32f4xx_hal_dma.c ****     /* Configure DMA Stream source address */
 909:../STM32Cube_FW_F4_V1.4.0/Drivers/STM32F4xx_HAL_Driver/Src/stm32f4xx_hal_dma.c ****     hdma->Instance->PAR = SrcAddress;
 1103              		.loc 1 909 0
 1104 0050 8E60     		strne	r6, [r1, #8]	@ SrcAddress, _12->PAR
 903:../STM32Cube_FW_F4_V1.4.0/Drivers/STM32F4xx_HAL_Driver/Src/stm32f4xx_hal_dma.c ****   }
 1105              		.loc 1 903 0
 1106 0052 CE60     		streq	r6, [r1, #12]	@ SrcAddress, _12->M0AR
 910:../STM32Cube_FW_F4_V1.4.0/Drivers/STM32F4xx_HAL_Driver/Src/stm32f4xx_hal_dma.c ****     
 911:../STM32Cube_FW_F4_V1.4.0/Drivers/STM32F4xx_HAL_Driver/Src/stm32f4xx_hal_dma.c ****     /* Configure DMA Stream destination address */
 912:../STM32Cube_FW_F4_V1.4.0/Drivers/STM32F4xx_HAL_Driver/Src/stm32f4xx_hal_dma.c ****     hdma->Instance->M0AR = DstAddress;
 1107              		.loc 1 912 0
 1108 0054 CD60     		strne	r5, [r1, #12]	@ DstAddress, _12->M0AR
 1109              	.LBE6:
 1110              	.LBE7:
 375:../STM32Cube_FW_F4_V1.4.0/Drivers/STM32F4xx_HAL_Driver/Src/stm32f4xx_hal_dma.c **** 
 1111              		.loc 1 375 0
 1112 0056 0B68     		ldr	r3, [r1]	@ D.13979, _12->CR
 1113 0058 43F00103 		orr	r3, r3, #1	@ D.13979, D.13979,
 1114 005c 0B60     		str	r3, [r1]	@ D.13979, _12->CR
 377:../STM32Cube_FW_F4_V1.4.0/Drivers/STM32F4xx_HAL_Driver/Src/stm32f4xx_hal_dma.c **** }
 1115              		.loc 1 377 0
ARM GAS  C:\cygwin\tmp\cc1Jaa0f.s 			page 38


 1116 005e 0020     		movs	r0, #0	@ D.13977,
 1117              	.LVL39:
 1118              	.L167:
 378:../STM32Cube_FW_F4_V1.4.0/Drivers/STM32F4xx_HAL_Driver/Src/stm32f4xx_hal_dma.c **** 
 1119              		.loc 1 378 0
 1120 0060 F8BD     		pop	{r3, r4, r5, r6, r7, pc}	@
 1121              	.LVL40:
 1122              	.L173:
 1123 0062 00BF     		.align	2
 1124              	.L172:
 1125 0064 00000000 		.word	.LC0
 1126              		.cfi_endproc
 1127              	.LFE125:
 1128              		.size	HAL_DMA_Start, .-HAL_DMA_Start
 1129              		.section	.text.HAL_DMA_Start_IT,"ax",%progbits
 1130              		.align	1
 1131              		.global	HAL_DMA_Start_IT
 1132              		.thumb
 1133              		.thumb_func
 1134              		.type	HAL_DMA_Start_IT, %function
 1135              	HAL_DMA_Start_IT:
 1136              	.LFB126:
 390:../STM32Cube_FW_F4_V1.4.0/Drivers/STM32F4xx_HAL_Driver/Src/stm32f4xx_hal_dma.c ****   /* Process locked */
 1137              		.loc 1 390 0
 1138              		.cfi_startproc
 1139              		@ args = 0, pretend = 0, frame = 0
 1140              		@ frame_needed = 0, uses_anonymous_args = 0
 1141              	.LVL41:
 1142 0000 F8B5     		push	{r3, r4, r5, r6, r7, lr}	@
 1143              		.cfi_def_cfa_offset 24
 1144              		.cfi_offset 3, -24
 1145              		.cfi_offset 4, -20
 1146              		.cfi_offset 5, -16
 1147              		.cfi_offset 6, -12
 1148              		.cfi_offset 7, -8
 1149              		.cfi_offset 14, -4
 390:../STM32Cube_FW_F4_V1.4.0/Drivers/STM32F4xx_HAL_Driver/Src/stm32f4xx_hal_dma.c ****   /* Process locked */
 1150              		.loc 1 390 0
 1151 0002 1F46     		mov	r7, r3	@ DataLength, DataLength
 392:../STM32Cube_FW_F4_V1.4.0/Drivers/STM32F4xx_HAL_Driver/Src/stm32f4xx_hal_dma.c **** 
 1152              		.loc 1 392 0
 1153 0004 90F83430 		ldrb	r3, [r0, #52]	@ zero_extendqisi2	@ hdma_5(D)->Lock, hdma_5(D)->Lock
 1154              	.LVL42:
 1155 0008 012B     		cmp	r3, #1	@ hdma_5(D)->Lock,
 390:../STM32Cube_FW_F4_V1.4.0/Drivers/STM32F4xx_HAL_Driver/Src/stm32f4xx_hal_dma.c ****   /* Process locked */
 1156              		.loc 1 390 0
 1157 000a 0446     		mov	r4, r0	@ hdma, hdma
 1158 000c 0E46     		mov	r6, r1	@ SrcAddress, SrcAddress
 1159 000e 1546     		mov	r5, r2	@ DstAddress, DstAddress
 1160 0010 4FF00200 		mov	r0, #2	@ D.13987,
 1161              	.LVL43:
 392:../STM32Cube_FW_F4_V1.4.0/Drivers/STM32F4xx_HAL_Driver/Src/stm32f4xx_hal_dma.c **** 
 1162              		.loc 1 392 0
 1163 0014 38D0     		beq	.L175	@,
 392:../STM32Cube_FW_F4_V1.4.0/Drivers/STM32F4xx_HAL_Driver/Src/stm32f4xx_hal_dma.c **** 
 1164              		.loc 1 392 0 is_stmt 0 discriminator 2
 1165 0016 0123     		movs	r3, #1	@ tmp137,
ARM GAS  C:\cygwin\tmp\cc1Jaa0f.s 			page 39


 1166 0018 84F83430 		strb	r3, [r4, #52]	@ tmp137, hdma_5(D)->Lock
 398:../STM32Cube_FW_F4_V1.4.0/Drivers/STM32F4xx_HAL_Driver/Src/stm32f4xx_hal_dma.c **** 
 1167              		.loc 1 398 0 is_stmt 1 discriminator 2
 1168 001c 7A1E     		subs	r2, r7, #1	@ D.13989, DataLength,
 1169              	.LVL44:
 1170 001e 4FF6FE73 		movw	r3, #65534	@ tmp142,
 1171 0022 9A42     		cmp	r2, r3	@ D.13989, tmp142
 395:../STM32Cube_FW_F4_V1.4.0/Drivers/STM32F4xx_HAL_Driver/Src/stm32f4xx_hal_dma.c **** 
 1172              		.loc 1 395 0 discriminator 2
 1173 0024 84F83500 		strb	r0, [r4, #53]	@ D.13987, hdma_5(D)->State
 398:../STM32Cube_FW_F4_V1.4.0/Drivers/STM32F4xx_HAL_Driver/Src/stm32f4xx_hal_dma.c **** 
 1174              		.loc 1 398 0 discriminator 2
 1175 0028 04D9     		bls	.L176	@,
 398:../STM32Cube_FW_F4_V1.4.0/Drivers/STM32F4xx_HAL_Driver/Src/stm32f4xx_hal_dma.c **** 
 1176              		.loc 1 398 0 is_stmt 0 discriminator 1
 1177 002a 1848     		ldr	r0, .L180	@,
 1178 002c 4FF4C771 		mov	r1, #398	@,
 1179              	.LVL45:
 1180 0030 FFF7FEFF 		bl	assert_failed	@
 1181              	.LVL46:
 1182              	.L176:
 401:../STM32Cube_FW_F4_V1.4.0/Drivers/STM32F4xx_HAL_Driver/Src/stm32f4xx_hal_dma.c **** 
 1183              		.loc 1 401 0 is_stmt 1
 1184 0034 2168     		ldr	r1, [r4]	@ D.13990, hdma_5(D)->Instance
 1185              	.LBB10:
 1186              	.LBB11:
 897:../STM32Cube_FW_F4_V1.4.0/Drivers/STM32F4xx_HAL_Driver/Src/stm32f4xx_hal_dma.c ****   {
 1187              		.loc 1 897 0
 1188 0036 A368     		ldr	r3, [r4, #8]	@ hdma_5(D)->Init.Direction, hdma_5(D)->Init.Direction
 1189              	.LBE11:
 1190              	.LBE10:
 401:../STM32Cube_FW_F4_V1.4.0/Drivers/STM32F4xx_HAL_Driver/Src/stm32f4xx_hal_dma.c **** 
 1191              		.loc 1 401 0
 1192 0038 0868     		ldr	r0, [r1]	@ D.13989, _12->CR
 1193 003a 20F00100 		bic	r0, r0, #1	@ D.13989, D.13989,
 1194 003e 0860     		str	r0, [r1]	@ D.13989, _12->CR
 1195              	.LVL47:
 1196              	.LBB13:
 1197              	.LBB12:
 891:../STM32Cube_FW_F4_V1.4.0/Drivers/STM32F4xx_HAL_Driver/Src/stm32f4xx_hal_dma.c **** 
 1198              		.loc 1 891 0
 1199 0040 0868     		ldr	r0, [r1]	@ D.13989, _12->CR
 897:../STM32Cube_FW_F4_V1.4.0/Drivers/STM32F4xx_HAL_Driver/Src/stm32f4xx_hal_dma.c ****   {
 1200              		.loc 1 897 0
 1201 0042 402B     		cmp	r3, #64	@ hdma_5(D)->Init.Direction,
 891:../STM32Cube_FW_F4_V1.4.0/Drivers/STM32F4xx_HAL_Driver/Src/stm32f4xx_hal_dma.c **** 
 1202              		.loc 1 891 0
 1203 0044 20F48020 		bic	r0, r0, #262144	@ D.13989, D.13989,
 1204 0048 0860     		str	r0, [r1]	@ D.13989, _12->CR
 894:../STM32Cube_FW_F4_V1.4.0/Drivers/STM32F4xx_HAL_Driver/Src/stm32f4xx_hal_dma.c **** 
 1205              		.loc 1 894 0
 1206 004a 4F60     		str	r7, [r1, #4]	@ DataLength, _12->NDTR
 900:../STM32Cube_FW_F4_V1.4.0/Drivers/STM32F4xx_HAL_Driver/Src/stm32f4xx_hal_dma.c **** 
 1207              		.loc 1 900 0
 1208 004c 0BBF     		itete	eq
 1209 004e 8D60     		streq	r5, [r1, #8]	@ DstAddress, _12->PAR
 909:../STM32Cube_FW_F4_V1.4.0/Drivers/STM32F4xx_HAL_Driver/Src/stm32f4xx_hal_dma.c ****     
ARM GAS  C:\cygwin\tmp\cc1Jaa0f.s 			page 40


 1210              		.loc 1 909 0
 1211 0050 8E60     		strne	r6, [r1, #8]	@ SrcAddress, _12->PAR
 903:../STM32Cube_FW_F4_V1.4.0/Drivers/STM32F4xx_HAL_Driver/Src/stm32f4xx_hal_dma.c ****   }
 1212              		.loc 1 903 0
 1213 0052 CE60     		streq	r6, [r1, #12]	@ SrcAddress, _12->M0AR
 1214              		.loc 1 912 0
 1215 0054 CD60     		strne	r5, [r1, #12]	@ DstAddress, _12->M0AR
 1216              	.LBE12:
 1217              	.LBE13:
 407:../STM32Cube_FW_F4_V1.4.0/Drivers/STM32F4xx_HAL_Driver/Src/stm32f4xx_hal_dma.c **** 
 1218              		.loc 1 407 0
 1219 0056 0B68     		ldr	r3, [r1]	@ D.13989, _12->CR
 1220 0058 43F01003 		orr	r3, r3, #16	@ D.13989, D.13989,
 1221 005c 0B60     		str	r3, [r1]	@ D.13989, _12->CR
 410:../STM32Cube_FW_F4_V1.4.0/Drivers/STM32F4xx_HAL_Driver/Src/stm32f4xx_hal_dma.c **** 
 1222              		.loc 1 410 0
 1223 005e 0B68     		ldr	r3, [r1]	@ D.13989, _12->CR
 1224 0060 43F00803 		orr	r3, r3, #8	@ D.13989, D.13989,
 1225 0064 0B60     		str	r3, [r1]	@ D.13989, _12->CR
 413:../STM32Cube_FW_F4_V1.4.0/Drivers/STM32F4xx_HAL_Driver/Src/stm32f4xx_hal_dma.c **** 
 1226              		.loc 1 413 0
 1227 0066 0B68     		ldr	r3, [r1]	@ D.13989, _12->CR
 1228 0068 43F00403 		orr	r3, r3, #4	@ D.13989, D.13989,
 1229 006c 0B60     		str	r3, [r1]	@ D.13989, _12->CR
 416:../STM32Cube_FW_F4_V1.4.0/Drivers/STM32F4xx_HAL_Driver/Src/stm32f4xx_hal_dma.c **** 
 1230              		.loc 1 416 0
 1231 006e 4B69     		ldr	r3, [r1, #20]	@ D.13989, _12->FCR
 1232 0070 43F08003 		orr	r3, r3, #128	@ D.13989, D.13989,
 1233 0074 4B61     		str	r3, [r1, #20]	@ D.13989, _12->FCR
 419:../STM32Cube_FW_F4_V1.4.0/Drivers/STM32F4xx_HAL_Driver/Src/stm32f4xx_hal_dma.c **** 
 1234              		.loc 1 419 0
 1235 0076 0B68     		ldr	r3, [r1]	@ D.13989, _12->CR
 1236 0078 43F00203 		orr	r3, r3, #2	@ D.13989, D.13989,
 1237 007c 0B60     		str	r3, [r1]	@ D.13989, _12->CR
 422:../STM32Cube_FW_F4_V1.4.0/Drivers/STM32F4xx_HAL_Driver/Src/stm32f4xx_hal_dma.c **** 
 1238              		.loc 1 422 0
 1239 007e 0B68     		ldr	r3, [r1]	@ D.13989, _12->CR
 1240 0080 43F00103 		orr	r3, r3, #1	@ D.13989, D.13989,
 1241 0084 0B60     		str	r3, [r1]	@ D.13989, _12->CR
 424:../STM32Cube_FW_F4_V1.4.0/Drivers/STM32F4xx_HAL_Driver/Src/stm32f4xx_hal_dma.c **** } 
 1242              		.loc 1 424 0
 1243 0086 0020     		movs	r0, #0	@ D.13987,
 1244              	.LVL48:
 1245              	.L175:
 425:../STM32Cube_FW_F4_V1.4.0/Drivers/STM32F4xx_HAL_Driver/Src/stm32f4xx_hal_dma.c **** 
 1246              		.loc 1 425 0
 1247 0088 F8BD     		pop	{r3, r4, r5, r6, r7, pc}	@
 1248              	.LVL49:
 1249              	.L181:
 1250 008a 00BF     		.align	2
 1251              	.L180:
 1252 008c 00000000 		.word	.LC0
 1253              		.cfi_endproc
 1254              	.LFE126:
 1255              		.size	HAL_DMA_Start_IT, .-HAL_DMA_Start_IT
 1256              		.section	.text.HAL_DMA_Abort,"ax",%progbits
 1257              		.align	1
ARM GAS  C:\cygwin\tmp\cc1Jaa0f.s 			page 41


 1258              		.global	HAL_DMA_Abort
 1259              		.thumb
 1260              		.thumb_func
 1261              		.type	HAL_DMA_Abort, %function
 1262              	HAL_DMA_Abort:
 1263              	.LFB127:
 440:../STM32Cube_FW_F4_V1.4.0/Drivers/STM32F4xx_HAL_Driver/Src/stm32f4xx_hal_dma.c ****   uint32_t tickstart = 0;
 1264              		.loc 1 440 0
 1265              		.cfi_startproc
 1266              		@ args = 0, pretend = 0, frame = 0
 1267              		@ frame_needed = 0, uses_anonymous_args = 0
 1268              	.LVL50:
 444:../STM32Cube_FW_F4_V1.4.0/Drivers/STM32F4xx_HAL_Driver/Src/stm32f4xx_hal_dma.c **** 
 1269              		.loc 1 444 0
 1270 0000 0268     		ldr	r2, [r0]	@ D.13994, hdma_5(D)->Instance
 440:../STM32Cube_FW_F4_V1.4.0/Drivers/STM32F4xx_HAL_Driver/Src/stm32f4xx_hal_dma.c ****   uint32_t tickstart = 0;
 1271              		.loc 1 440 0
 1272 0002 38B5     		push	{r3, r4, r5, lr}	@
 1273              		.cfi_def_cfa_offset 16
 1274              		.cfi_offset 3, -16
 1275              		.cfi_offset 4, -12
 1276              		.cfi_offset 5, -8
 1277              		.cfi_offset 14, -4
 444:../STM32Cube_FW_F4_V1.4.0/Drivers/STM32F4xx_HAL_Driver/Src/stm32f4xx_hal_dma.c **** 
 1278              		.loc 1 444 0
 1279 0004 1368     		ldr	r3, [r2]	@ D.13995, _6->CR
 1280 0006 23F00103 		bic	r3, r3, #1	@ D.13995, D.13995,
 1281 000a 1360     		str	r3, [r2]	@ D.13995, _6->CR
 440:../STM32Cube_FW_F4_V1.4.0/Drivers/STM32F4xx_HAL_Driver/Src/stm32f4xx_hal_dma.c ****   uint32_t tickstart = 0;
 1282              		.loc 1 440 0
 1283 000c 0446     		mov	r4, r0	@ hdma, hdma
 447:../STM32Cube_FW_F4_V1.4.0/Drivers/STM32F4xx_HAL_Driver/Src/stm32f4xx_hal_dma.c **** 
 1284              		.loc 1 447 0
 1285 000e FFF7FEFF 		bl	HAL_GetTick	@
 1286              	.LVL51:
 1287 0012 0546     		mov	r5, r0	@ tickstart,
 1288              	.LVL52:
 1289              	.L183:
 450:../STM32Cube_FW_F4_V1.4.0/Drivers/STM32F4xx_HAL_Driver/Src/stm32f4xx_hal_dma.c ****   {
 1290              		.loc 1 450 0
 1291 0014 2368     		ldr	r3, [r4]	@ D.13994, hdma_5(D)->Instance
 1292 0016 1868     		ldr	r0, [r3]	@ D.13995, _12->CR
 1293 0018 10F00100 		ands	r0, r0, #1	@ D.13995, D.13995,
 1294 001c 10D0     		beq	.L187	@,
 453:../STM32Cube_FW_F4_V1.4.0/Drivers/STM32F4xx_HAL_Driver/Src/stm32f4xx_hal_dma.c ****     {
 1295              		.loc 1 453 0
 1296 001e FFF7FEFF 		bl	HAL_GetTick	@
 1297              	.LVL53:
 1298 0022 401B     		subs	r0, r0, r5	@ D.13995,, tickstart
 1299 0024 B0F57A7F 		cmp	r0, #1000	@ D.13995,
 1300 0028 F4D9     		bls	.L183	@,
 456:../STM32Cube_FW_F4_V1.4.0/Drivers/STM32F4xx_HAL_Driver/Src/stm32f4xx_hal_dma.c ****       
 1301              		.loc 1 456 0
 1302 002a E36C     		ldr	r3, [r4, #76]	@ D.13995, hdma_5(D)->ErrorCode
 1303 002c 43F02003 		orr	r3, r3, #32	@ D.13995, D.13995,
 1304 0030 E364     		str	r3, [r4, #76]	@ D.13995, hdma_5(D)->ErrorCode
 462:../STM32Cube_FW_F4_V1.4.0/Drivers/STM32F4xx_HAL_Driver/Src/stm32f4xx_hal_dma.c ****       
ARM GAS  C:\cygwin\tmp\cc1Jaa0f.s 			page 42


 1305              		.loc 1 462 0
 1306 0032 0320     		movs	r0, #3	@ tmp127,
 459:../STM32Cube_FW_F4_V1.4.0/Drivers/STM32F4xx_HAL_Driver/Src/stm32f4xx_hal_dma.c ****       
 1307              		.loc 1 459 0
 1308 0034 0023     		movs	r3, #0	@ tmp125,
 1309 0036 84F83430 		strb	r3, [r4, #52]	@ tmp125, hdma_5(D)->Lock
 462:../STM32Cube_FW_F4_V1.4.0/Drivers/STM32F4xx_HAL_Driver/Src/stm32f4xx_hal_dma.c ****       
 1310              		.loc 1 462 0
 1311 003a 84F83500 		strb	r0, [r4, #53]	@ tmp127, hdma_5(D)->State
 464:../STM32Cube_FW_F4_V1.4.0/Drivers/STM32F4xx_HAL_Driver/Src/stm32f4xx_hal_dma.c ****     }
 1312              		.loc 1 464 0
 1313 003e 38BD     		pop	{r3, r4, r5, pc}	@
 1314              	.LVL54:
 1315              	.L187:
 471:../STM32Cube_FW_F4_V1.4.0/Drivers/STM32F4xx_HAL_Driver/Src/stm32f4xx_hal_dma.c **** 
 1316              		.loc 1 471 0
 1317 0040 0123     		movs	r3, #1	@ tmp132,
 468:../STM32Cube_FW_F4_V1.4.0/Drivers/STM32F4xx_HAL_Driver/Src/stm32f4xx_hal_dma.c **** 
 1318              		.loc 1 468 0
 1319 0042 84F83400 		strb	r0, [r4, #52]	@ D.13995, hdma_5(D)->Lock
 471:../STM32Cube_FW_F4_V1.4.0/Drivers/STM32F4xx_HAL_Driver/Src/stm32f4xx_hal_dma.c **** 
 1320              		.loc 1 471 0
 1321 0046 84F83530 		strb	r3, [r4, #53]	@ tmp132, hdma_5(D)->State
 474:../STM32Cube_FW_F4_V1.4.0/Drivers/STM32F4xx_HAL_Driver/Src/stm32f4xx_hal_dma.c **** 
 1322              		.loc 1 474 0
 1323 004a 38BD     		pop	{r3, r4, r5, pc}	@
 1324              		.cfi_endproc
 1325              	.LFE127:
 1326              		.size	HAL_DMA_Abort, .-HAL_DMA_Abort
 1327              		.section	.text.HAL_DMA_PollForTransfer,"ax",%progbits
 1328              		.align	1
 1329              		.global	HAL_DMA_PollForTransfer
 1330              		.thumb
 1331              		.thumb_func
 1332              		.type	HAL_DMA_PollForTransfer, %function
 1333              	HAL_DMA_PollForTransfer:
 1334              	.LFB128:
 485:../STM32Cube_FW_F4_V1.4.0/Drivers/STM32F4xx_HAL_Driver/Src/stm32f4xx_hal_dma.c ****   uint32_t temp, tmp, tmp1, tmp2;
 1335              		.loc 1 485 0
 1336              		.cfi_startproc
 1337              		@ args = 0, pretend = 0, frame = 0
 1338              		@ frame_needed = 0, uses_anonymous_args = 0
 1339              	.LVL55:
 1340 0000 2DE9F047 		push	{r4, r5, r6, r7, r8, r9, r10, lr}	@
 1341              		.cfi_def_cfa_offset 32
 1342              		.cfi_offset 4, -32
 1343              		.cfi_offset 5, -28
 1344              		.cfi_offset 6, -24
 1345              		.cfi_offset 7, -20
 1346              		.cfi_offset 8, -16
 1347              		.cfi_offset 9, -12
 1348              		.cfi_offset 10, -8
 1349              		.cfi_offset 14, -4
 1350 0004 0468     		ldr	r4, [r0]	@ hdma_640(D)->Instance, hdma_640(D)->Instance
 1351 0006 DFF80083 		ldr	r8, .L545+52	@ tmp552,
 485:../STM32Cube_FW_F4_V1.4.0/Drivers/STM32F4xx_HAL_Driver/Src/stm32f4xx_hal_dma.c ****   uint32_t temp, tmp, tmp1, tmp2;
 1352              		.loc 1 485 0
ARM GAS  C:\cygwin\tmp\cc1Jaa0f.s 			page 43


 1353 000a 0546     		mov	r5, r0	@ hdma, hdma
 1354 000c 1746     		mov	r7, r2	@ Timeout, Timeout
 490:../STM32Cube_FW_F4_V1.4.0/Drivers/STM32F4xx_HAL_Driver/Src/stm32f4xx_hal_dma.c ****   {
 1355              		.loc 1 490 0
 1356 000e 0E46     		mov	r6, r1	@ CompleteLevel, CompleteLevel
 493:../STM32Cube_FW_F4_V1.4.0/Drivers/STM32F4xx_HAL_Driver/Src/stm32f4xx_hal_dma.c ****   }
 1357              		.loc 1 493 0
 1358 0010 24F48064 		bic	r4, r4, #1024	@ D.13998, hdma_640(D)->Instance,
 490:../STM32Cube_FW_F4_V1.4.0/Drivers/STM32F4xx_HAL_Driver/Src/stm32f4xx_hal_dma.c ****   {
 1359              		.loc 1 490 0
 1360 0014 A9B9     		cbnz	r1, .L189	@ CompleteLevel,
 493:../STM32Cube_FW_F4_V1.4.0/Drivers/STM32F4xx_HAL_Driver/Src/stm32f4xx_hal_dma.c ****   }
 1361              		.loc 1 493 0
 1362 0016 4445     		cmp	r4, r8	@ D.13998, tmp552
 1363 0018 29D0     		beq	.L311	@,
 493:../STM32Cube_FW_F4_V1.4.0/Drivers/STM32F4xx_HAL_Driver/Src/stm32f4xx_hal_dma.c ****   }
 1364              		.loc 1 493 0 is_stmt 0 discriminator 3
 1365 001a AE4B     		ldr	r3, .L545	@ tmp236,
 1366 001c 9C42     		cmp	r4, r3	@ D.13998, tmp236
 1367 001e 26D0     		beq	.L311	@,
 493:../STM32Cube_FW_F4_V1.4.0/Drivers/STM32F4xx_HAL_Driver/Src/stm32f4xx_hal_dma.c ****   }
 1368              		.loc 1 493 0 discriminator 7
 1369 0020 483B     		subs	r3, r3, #72	@ tmp237, tmp237,
 1370 0022 9C42     		cmp	r4, r3	@ D.13998, tmp237
 1371 0024 25D0     		beq	.L313	@,
 493:../STM32Cube_FW_F4_V1.4.0/Drivers/STM32F4xx_HAL_Driver/Src/stm32f4xx_hal_dma.c ****   }
 1372              		.loc 1 493 0 discriminator 11
 1373 0026 6033     		adds	r3, r3, #96	@ tmp238, tmp238,
 1374 0028 9C42     		cmp	r4, r3	@ D.13998, tmp238
 1375 002a 22D0     		beq	.L313	@,
 493:../STM32Cube_FW_F4_V1.4.0/Drivers/STM32F4xx_HAL_Driver/Src/stm32f4xx_hal_dma.c ****   }
 1376              		.loc 1 493 0 discriminator 15
 1377 002c 483B     		subs	r3, r3, #72	@ tmp239, tmp239,
 1378 002e 9C42     		cmp	r4, r3	@ D.13998, tmp239
 1379 0030 22D0     		beq	.L314	@,
 493:../STM32Cube_FW_F4_V1.4.0/Drivers/STM32F4xx_HAL_Driver/Src/stm32f4xx_hal_dma.c ****   }
 1380              		.loc 1 493 0 discriminator 19
 1381 0032 6033     		adds	r3, r3, #96	@ tmp240, tmp240,
 1382 0034 9C42     		cmp	r4, r3	@ D.13998, tmp240
 1383 0036 0CBF     		ite	eq	@
 1384 0038 4FF40014 		moveq	r4, #2097152	@, temp,
 1385 003c 4FF00064 		movne	r4, #134217728	@, temp,
 1386 0040 24E0     		b	.L190	@
 1387              	.L189:
 498:../STM32Cube_FW_F4_V1.4.0/Drivers/STM32F4xx_HAL_Driver/Src/stm32f4xx_hal_dma.c ****   }
 1388              		.loc 1 498 0 is_stmt 1
 1389 0042 4445     		cmp	r4, r8	@ D.13998, tmp552
 1390 0044 1BD0     		beq	.L317	@,
 498:../STM32Cube_FW_F4_V1.4.0/Drivers/STM32F4xx_HAL_Driver/Src/stm32f4xx_hal_dma.c ****   }
 1391              		.loc 1 498 0 is_stmt 0 discriminator 3
 1392 0046 A34B     		ldr	r3, .L545	@ tmp243,
 1393 0048 9C42     		cmp	r4, r3	@ D.13998, tmp243
 1394 004a 18D0     		beq	.L317	@,
 498:../STM32Cube_FW_F4_V1.4.0/Drivers/STM32F4xx_HAL_Driver/Src/stm32f4xx_hal_dma.c ****   }
 1395              		.loc 1 498 0 discriminator 7
 1396 004c 483B     		subs	r3, r3, #72	@ tmp244, tmp244,
 1397 004e 9C42     		cmp	r4, r3	@ D.13998, tmp244
ARM GAS  C:\cygwin\tmp\cc1Jaa0f.s 			page 44


 1398 0050 17D0     		beq	.L319	@,
 498:../STM32Cube_FW_F4_V1.4.0/Drivers/STM32F4xx_HAL_Driver/Src/stm32f4xx_hal_dma.c ****   }
 1399              		.loc 1 498 0 discriminator 11
 1400 0052 6033     		adds	r3, r3, #96	@ tmp245, tmp245,
 1401 0054 9C42     		cmp	r4, r3	@ D.13998, tmp245
 1402 0056 14D0     		beq	.L319	@,
 498:../STM32Cube_FW_F4_V1.4.0/Drivers/STM32F4xx_HAL_Driver/Src/stm32f4xx_hal_dma.c ****   }
 1403              		.loc 1 498 0 discriminator 15
 1404 0058 483B     		subs	r3, r3, #72	@ tmp246, tmp246,
 1405 005a 9C42     		cmp	r4, r3	@ D.13998, tmp246
 1406 005c 14D0     		beq	.L320	@,
 498:../STM32Cube_FW_F4_V1.4.0/Drivers/STM32F4xx_HAL_Driver/Src/stm32f4xx_hal_dma.c ****   }
 1407              		.loc 1 498 0 discriminator 19
 1408 005e 6033     		adds	r3, r3, #96	@ tmp247, tmp247,
 1409 0060 9C42     		cmp	r4, r3	@ D.13998, tmp247
 1410 0062 0CBF     		ite	eq	@
 1411 0064 4FF48014 		moveq	r4, #1048576	@, temp,
 1412 0068 4FF08064 		movne	r4, #67108864	@, temp,
 1413 006c 0EE0     		b	.L190	@
 1414              	.L311:
 493:../STM32Cube_FW_F4_V1.4.0/Drivers/STM32F4xx_HAL_Driver/Src/stm32f4xx_hal_dma.c ****   }
 1415              		.loc 1 493 0 is_stmt 1
 1416 006e 2024     		movs	r4, #32	@ temp,
 1417 0070 0CE0     		b	.L190	@
 1418              	.L313:
 1419 0072 4FF40064 		mov	r4, #2048	@ temp,
 1420 0076 09E0     		b	.L190	@
 1421              	.L314:
 1422 0078 4FF40014 		mov	r4, #2097152	@ temp,
 1423 007c 06E0     		b	.L190	@
 1424              	.L317:
 498:../STM32Cube_FW_F4_V1.4.0/Drivers/STM32F4xx_HAL_Driver/Src/stm32f4xx_hal_dma.c ****   }
 1425              		.loc 1 498 0
 1426 007e 1024     		movs	r4, #16	@ temp,
 1427 0080 04E0     		b	.L190	@
 1428              	.L319:
 1429 0082 4FF48064 		mov	r4, #1024	@ temp,
 1430 0086 01E0     		b	.L190	@
 1431              	.L320:
 1432 0088 4FF48014 		mov	r4, #1048576	@ temp,
 1433              	.L190:
 1434              	.LVL56:
 502:../STM32Cube_FW_F4_V1.4.0/Drivers/STM32F4xx_HAL_Driver/Src/stm32f4xx_hal_dma.c **** 
 1435              		.loc 1 502 0
 1436 008c FFF7FEFF 		bl	HAL_GetTick	@
 1437              	.LVL57:
 1438 0090 8146     		mov	r9, r0	@ tickstart,
 1439              	.LVL58:
 1440              	.L191:
 504:../STM32Cube_FW_F4_V1.4.0/Drivers/STM32F4xx_HAL_Driver/Src/stm32f4xx_hal_dma.c ****   {
 1441              		.loc 1 504 0
 1442 0092 2B68     		ldr	r3, [r5]	@ D.14000, hdma_640(D)->Instance
 1443              	.L240:
 1444 0094 904A     		ldr	r2, .L545+4	@ tmp370,
 1445 0096 9342     		cmp	r3, r2	@ D.14000, tmp370
 1446 0098 9646     		mov	lr, r2	@ tmp553, tmp370
 1447 009a 36D9     		bls	.L243	@,
ARM GAS  C:\cygwin\tmp\cc1Jaa0f.s 			page 45


 504:../STM32Cube_FW_F4_V1.4.0/Drivers/STM32F4xx_HAL_Driver/Src/stm32f4xx_hal_dma.c ****   {
 1448              		.loc 1 504 0 is_stmt 0 discriminator 1
 1449 009c 583A     		subs	r2, r2, #88	@ tmp371, tmp371,
 1450 009e 5168     		ldr	r1, [r2, #4]	@ D.13998, MEM[(struct DMA_TypeDef *)1073898496B].HISR
 1451 00a0 0C42     		tst	r4, r1	@ temp, D.13998
 1452 00a2 40F0B981 		bne	.L249	@,
 506:../STM32Cube_FW_F4_V1.4.0/Drivers/STM32F4xx_HAL_Driver/Src/stm32f4xx_hal_dma.c ****     tmp1 = __HAL_DMA_GET_FLAG(hdma, __HAL_DMA_GET_FE_FLAG_INDEX(hdma));
 1453              		.loc 1 506 0 is_stmt 1 discriminator 1
 1454 00a6 8D49     		ldr	r1, .L545+8	@ tmp249,
 1455 00a8 5068     		ldr	r0, [r2, #4]	@ D.13998, MEM[(struct DMA_TypeDef *)1073898496B].HISR
 1456 00aa 8B42     		cmp	r3, r1	@ D.14000, tmp249
 1457 00ac 8C46     		mov	ip, r1	@ tmp555, tmp249
 1458 00ae 0AD0     		beq	.L322	@,
 506:../STM32Cube_FW_F4_V1.4.0/Drivers/STM32F4xx_HAL_Driver/Src/stm32f4xx_hal_dma.c ****     tmp1 = __HAL_DMA_GET_FLAG(hdma, __HAL_DMA_GET_FE_FLAG_INDEX(hdma));
 1459              		.loc 1 506 0 is_stmt 0 discriminator 15
 1460 00b0 8B4A     		ldr	r2, .L545+12	@ tmp250,
 1461 00b2 9342     		cmp	r3, r2	@ D.14000, tmp250
 1462 00b4 09D0     		beq	.L323	@,
 506:../STM32Cube_FW_F4_V1.4.0/Drivers/STM32F4xx_HAL_Driver/Src/stm32f4xx_hal_dma.c ****     tmp1 = __HAL_DMA_GET_FLAG(hdma, __HAL_DMA_GET_FE_FLAG_INDEX(hdma));
 1463              		.loc 1 506 0 discriminator 23
 1464 00b6 1832     		adds	r2, r2, #24	@ tmp251, tmp251,
 1465 00b8 9342     		cmp	r3, r2	@ D.14000, tmp251
 1466 00ba 0CBF     		ite	eq	@
 1467 00bc 4FF40022 		moveq	r2, #524288	@, D.13998,
 1468 00c0 4FF00072 		movne	r2, #33554432	@, D.13998,
 1469 00c4 03E0     		b	.L192	@
 1470              	.L322:
 506:../STM32Cube_FW_F4_V1.4.0/Drivers/STM32F4xx_HAL_Driver/Src/stm32f4xx_hal_dma.c ****     tmp1 = __HAL_DMA_GET_FLAG(hdma, __HAL_DMA_GET_FE_FLAG_INDEX(hdma));
 1471              		.loc 1 506 0
 1472 00c6 0822     		movs	r2, #8	@ D.13998,
 1473 00c8 01E0     		b	.L192	@
 1474              	.L323:
 1475 00ca 4FF40072 		mov	r2, #512	@ D.13998,
 1476              	.L192:
 507:../STM32Cube_FW_F4_V1.4.0/Drivers/STM32F4xx_HAL_Driver/Src/stm32f4xx_hal_dma.c ****     tmp2 = __HAL_DMA_GET_FLAG(hdma, __HAL_DMA_GET_DME_FLAG_INDEX(hdma));
 1477              		.loc 1 507 0 is_stmt 1 discriminator 50
 1478 00ce 8549     		ldr	r1, .L545+16	@ tmp252,
 1479 00d0 6345     		cmp	r3, ip	@ D.14000, tmp555
 506:../STM32Cube_FW_F4_V1.4.0/Drivers/STM32F4xx_HAL_Driver/Src/stm32f4xx_hal_dma.c ****     tmp1 = __HAL_DMA_GET_FLAG(hdma, __HAL_DMA_GET_FE_FLAG_INDEX(hdma));
 1480              		.loc 1 506 0 discriminator 50
 1481 00d2 02EA0002 		and	r2, r2, r0	@ tmp, D.13998, D.13998
 1482              	.LVL59:
 507:../STM32Cube_FW_F4_V1.4.0/Drivers/STM32F4xx_HAL_Driver/Src/stm32f4xx_hal_dma.c ****     tmp2 = __HAL_DMA_GET_FLAG(hdma, __HAL_DMA_GET_DME_FLAG_INDEX(hdma));
 1483              		.loc 1 507 0 discriminator 50
 1484 00d6 4868     		ldr	r0, [r1, #4]	@ D.13998, MEM[(struct DMA_TypeDef *)1073898496B].HISR
 1485 00d8 01D1     		bne	.L193	@,
 507:../STM32Cube_FW_F4_V1.4.0/Drivers/STM32F4xx_HAL_Driver/Src/stm32f4xx_hal_dma.c ****     tmp2 = __HAL_DMA_GET_FLAG(hdma, __HAL_DMA_GET_DME_FLAG_INDEX(hdma));
 1486              		.loc 1 507 0 is_stmt 0
 1487 00da 8349     		ldr	r1, .L545+20	@ D.13998,
 1488 00dc 0BE0     		b	.L194	@
 1489              	.L193:
 507:../STM32Cube_FW_F4_V1.4.0/Drivers/STM32F4xx_HAL_Driver/Src/stm32f4xx_hal_dma.c ****     tmp2 = __HAL_DMA_GET_FLAG(hdma, __HAL_DMA_GET_DME_FLAG_INDEX(hdma));
 1490              		.loc 1 507 0 discriminator 15
 1491 00de 8049     		ldr	r1, .L545+12	@ tmp272,
 1492 00e0 8B42     		cmp	r3, r1	@ D.14000, tmp272
 1493 00e2 07D0     		beq	.L334	@,
 507:../STM32Cube_FW_F4_V1.4.0/Drivers/STM32F4xx_HAL_Driver/Src/stm32f4xx_hal_dma.c ****     tmp2 = __HAL_DMA_GET_FLAG(hdma, __HAL_DMA_GET_DME_FLAG_INDEX(hdma));
ARM GAS  C:\cygwin\tmp\cc1Jaa0f.s 			page 46


 1494              		.loc 1 507 0 discriminator 23
 1495 00e4 1831     		adds	r1, r1, #24	@ tmp273, tmp273,
 1496 00e6 8B42     		cmp	r3, r1	@ D.14000, tmp273
 1497 00e8 0CBF     		ite	eq	@
 1498 00ea 4FF48031 		moveq	r1, #65536	@, D.13998,
 1499 00ee 4FF48001 		movne	r1, #4194304	@, D.13998,
 1500 00f2 00E0     		b	.L194	@
 1501              	.L334:
 507:../STM32Cube_FW_F4_V1.4.0/Drivers/STM32F4xx_HAL_Driver/Src/stm32f4xx_hal_dma.c ****     tmp2 = __HAL_DMA_GET_FLAG(hdma, __HAL_DMA_GET_DME_FLAG_INDEX(hdma));
 1502              		.loc 1 507 0
 1503 00f4 4021     		movs	r1, #64	@ D.13998,
 1504              	.L194:
 507:../STM32Cube_FW_F4_V1.4.0/Drivers/STM32F4xx_HAL_Driver/Src/stm32f4xx_hal_dma.c ****     tmp2 = __HAL_DMA_GET_FLAG(hdma, __HAL_DMA_GET_DME_FLAG_INDEX(hdma));
 1505              		.loc 1 507 0 discriminator 50
 1506 00f6 0840     		ands	r0, r0, r1	@, tmp1, D.13998, D.13998
 1507              	.LVL60:
 508:../STM32Cube_FW_F4_V1.4.0/Drivers/STM32F4xx_HAL_Driver/Src/stm32f4xx_hal_dma.c ****     if((tmp != RESET) || (tmp1 != RESET) || (tmp2 != RESET))
 1508              		.loc 1 508 0 is_stmt 1 discriminator 50
 1509 00f8 7A49     		ldr	r1, .L545+16	@ tmp274,
 1510 00fa 6345     		cmp	r3, ip	@ D.14000, tmp555
 1511 00fc D1F804A0 		ldr	r10, [r1, #4]	@ D.13998, MEM[(struct DMA_TypeDef *)1073898496B].HISR
 1512 0100 01D1     		bne	.L204	@,
 1513              	.L538:
 508:../STM32Cube_FW_F4_V1.4.0/Drivers/STM32F4xx_HAL_Driver/Src/stm32f4xx_hal_dma.c ****     if((tmp != RESET) || (tmp1 != RESET) || (tmp2 != RESET))
 1514              		.loc 1 508 0 is_stmt 0
 1515 0102 7A49     		ldr	r1, .L545+24	@ D.13998,
 1516 0104 36E0     		b	.L209	@
 1517              	.L204:
 508:../STM32Cube_FW_F4_V1.4.0/Drivers/STM32F4xx_HAL_Driver/Src/stm32f4xx_hal_dma.c ****     if((tmp != RESET) || (tmp1 != RESET) || (tmp2 != RESET))
 1518              		.loc 1 508 0 discriminator 15
 1519 0106 7649     		ldr	r1, .L545+12	@ tmp288,
 1520 0108 28E0     		b	.L540	@
 1521              	.LVL61:
 1522              	.L243:
 504:../STM32Cube_FW_F4_V1.4.0/Drivers/STM32F4xx_HAL_Driver/Src/stm32f4xx_hal_dma.c ****   {
 1523              		.loc 1 504 0 is_stmt 1 discriminator 2
 1524 010a 794A     		ldr	r2, .L545+28	@ tmp373,
 1525 010c 9342     		cmp	r3, r2	@ D.14000, tmp373
 1526 010e 34D9     		bls	.L247	@,
 504:../STM32Cube_FW_F4_V1.4.0/Drivers/STM32F4xx_HAL_Driver/Src/stm32f4xx_hal_dma.c ****   {
 1527              		.loc 1 504 0 is_stmt 0 discriminator 4
 1528 0110 02F55272 		add	r2, r2, #840	@ tmp374, tmp374,
 1529 0114 1168     		ldr	r1, [r2]	@ D.13998, MEM[(struct DMA_TypeDef *)1073898496B].LISR
 1530 0116 0C42     		tst	r4, r1	@ temp, D.13998
 1531 0118 40F07E81 		bne	.L249	@,
 506:../STM32Cube_FW_F4_V1.4.0/Drivers/STM32F4xx_HAL_Driver/Src/stm32f4xx_hal_dma.c ****     tmp1 = __HAL_DMA_GET_FLAG(hdma, __HAL_DMA_GET_FE_FLAG_INDEX(hdma));
 1532              		.loc 1 506 0 is_stmt 1 discriminator 52
 1533 011c 7549     		ldr	r1, .L545+32	@ tmp255,
 1534 011e 1068     		ldr	r0, [r2]	@ D.13998, MEM[(struct DMA_TypeDef *)1073898496B].LISR
 1535 0120 8B42     		cmp	r3, r1	@ D.14000, tmp255
 1536 0122 8C46     		mov	ip, r1	@ tmp556, tmp255
 1537 0124 00F07B81 		beq	.L325	@,
 506:../STM32Cube_FW_F4_V1.4.0/Drivers/STM32F4xx_HAL_Driver/Src/stm32f4xx_hal_dma.c ****     tmp1 = __HAL_DMA_GET_FLAG(hdma, __HAL_DMA_GET_FE_FLAG_INDEX(hdma));
 1538              		.loc 1 506 0 is_stmt 0 discriminator 62
 1539 0128 734A     		ldr	r2, .L545+36	@ tmp256,
 1540 012a 9342     		cmp	r3, r2	@ D.14000, tmp256
 1541 012c 00F07981 		beq	.L326	@,
ARM GAS  C:\cygwin\tmp\cc1Jaa0f.s 			page 47


 506:../STM32Cube_FW_F4_V1.4.0/Drivers/STM32F4xx_HAL_Driver/Src/stm32f4xx_hal_dma.c ****     tmp1 = __HAL_DMA_GET_FLAG(hdma, __HAL_DMA_GET_FE_FLAG_INDEX(hdma));
 1542              		.loc 1 506 0 discriminator 70
 1543 0130 1832     		adds	r2, r2, #24	@ tmp257, tmp257,
 1544 0132 9342     		cmp	r3, r2	@ D.14000, tmp257
 1545 0134 0CBF     		ite	eq	@
 1546 0136 4FF40022 		moveq	r2, #524288	@, D.13998,
 1547 013a 4FF00072 		movne	r2, #33554432	@, D.13998,
 1548              	.L195:
 507:../STM32Cube_FW_F4_V1.4.0/Drivers/STM32F4xx_HAL_Driver/Src/stm32f4xx_hal_dma.c ****     tmp2 = __HAL_DMA_GET_FLAG(hdma, __HAL_DMA_GET_DME_FLAG_INDEX(hdma));
 1549              		.loc 1 507 0 is_stmt 1 discriminator 101
 1550 013e 6949     		ldr	r1, .L545+16	@ tmp258,
 1551 0140 6345     		cmp	r3, ip	@ D.14000, tmp556
 506:../STM32Cube_FW_F4_V1.4.0/Drivers/STM32F4xx_HAL_Driver/Src/stm32f4xx_hal_dma.c ****     tmp1 = __HAL_DMA_GET_FLAG(hdma, __HAL_DMA_GET_FE_FLAG_INDEX(hdma));
 1552              		.loc 1 506 0 discriminator 101
 1553 0142 02EA0002 		and	r2, r2, r0	@ tmp, D.13998, D.13998
 1554              	.LVL62:
 507:../STM32Cube_FW_F4_V1.4.0/Drivers/STM32F4xx_HAL_Driver/Src/stm32f4xx_hal_dma.c ****     tmp2 = __HAL_DMA_GET_FLAG(hdma, __HAL_DMA_GET_DME_FLAG_INDEX(hdma));
 1555              		.loc 1 507 0 discriminator 101
 1556 0146 0868     		ldr	r0, [r1]	@ D.13998, MEM[(struct DMA_TypeDef *)1073898496B].LISR
 1557 0148 40F06E81 		bne	.L196	@,
 507:../STM32Cube_FW_F4_V1.4.0/Drivers/STM32F4xx_HAL_Driver/Src/stm32f4xx_hal_dma.c ****     tmp2 = __HAL_DMA_GET_FLAG(hdma, __HAL_DMA_GET_DME_FLAG_INDEX(hdma));
 1558              		.loc 1 507 0 is_stmt 0
 1559 014c 6649     		ldr	r1, .L545+20	@ D.13998,
 1560              	.L197:
 507:../STM32Cube_FW_F4_V1.4.0/Drivers/STM32F4xx_HAL_Driver/Src/stm32f4xx_hal_dma.c ****     tmp2 = __HAL_DMA_GET_FLAG(hdma, __HAL_DMA_GET_DME_FLAG_INDEX(hdma));
 1561              		.loc 1 507 0 discriminator 101
 1562 014e 0840     		ands	r0, r0, r1	@, tmp1, D.13998, D.13998
 1563              	.LVL63:
 508:../STM32Cube_FW_F4_V1.4.0/Drivers/STM32F4xx_HAL_Driver/Src/stm32f4xx_hal_dma.c ****     if((tmp != RESET) || (tmp1 != RESET) || (tmp2 != RESET))
 1564              		.loc 1 508 0 is_stmt 1 discriminator 101
 1565 0150 6449     		ldr	r1, .L545+16	@ tmp278,
 1566 0152 6345     		cmp	r3, ip	@ D.14000, tmp556
 1567 0154 D1F800A0 		ldr	r10, [r1]	@ D.13998, MEM[(struct DMA_TypeDef *)1073898496B].LISR
 1568 0158 D3D0     		beq	.L538	@,
 508:../STM32Cube_FW_F4_V1.4.0/Drivers/STM32F4xx_HAL_Driver/Src/stm32f4xx_hal_dma.c ****     if((tmp != RESET) || (tmp1 != RESET) || (tmp2 != RESET))
 1569              		.loc 1 508 0 is_stmt 0 discriminator 62
 1570 015a 6749     		ldr	r1, .L545+36	@ tmp290,
 1571              	.L540:
 508:../STM32Cube_FW_F4_V1.4.0/Drivers/STM32F4xx_HAL_Driver/Src/stm32f4xx_hal_dma.c ****     if((tmp != RESET) || (tmp1 != RESET) || (tmp2 != RESET))
 1572              		.loc 1 508 0 discriminator 115
 1573 015c 8B42     		cmp	r3, r1	@ D.14000, tmp292
 1574 015e 07D0     		beq	.L346	@,
 508:../STM32Cube_FW_F4_V1.4.0/Drivers/STM32F4xx_HAL_Driver/Src/stm32f4xx_hal_dma.c ****     if((tmp != RESET) || (tmp1 != RESET) || (tmp2 != RESET))
 1575              		.loc 1 508 0 discriminator 123
 1576 0160 1831     		adds	r1, r1, #24	@ tmp293, tmp293,
 1577 0162 8B42     		cmp	r3, r1	@ D.14000, tmp293
 1578 0164 0CBF     		ite	eq	@
 1579 0166 4FF48021 		moveq	r1, #262144	@, D.13998,
 1580 016a 4FF08071 		movne	r1, #16777216	@, D.13998,
 1581 016e 01E0     		b	.L209	@
 1582              	.L346:
 508:../STM32Cube_FW_F4_V1.4.0/Drivers/STM32F4xx_HAL_Driver/Src/stm32f4xx_hal_dma.c ****     if((tmp != RESET) || (tmp1 != RESET) || (tmp2 != RESET))
 1583              		.loc 1 508 0
 1584 0170 4FF48071 		mov	r1, #256	@ D.13998,
 1585              	.L209:
 508:../STM32Cube_FW_F4_V1.4.0/Drivers/STM32F4xx_HAL_Driver/Src/stm32f4xx_hal_dma.c ****     if((tmp != RESET) || (tmp1 != RESET) || (tmp2 != RESET))
 1586              		.loc 1 508 0 discriminator 152
ARM GAS  C:\cygwin\tmp\cc1Jaa0f.s 			page 48


 1587 0174 01EA0A01 		and	r1, r1, r10	@ tmp2, D.13998, D.13998
 1588 0178 29E0     		b	.L212	@
 1589              	.LVL64:
 1590              	.L247:
 504:../STM32Cube_FW_F4_V1.4.0/Drivers/STM32F4xx_HAL_Driver/Src/stm32f4xx_hal_dma.c ****   {
 1591              		.loc 1 504 0 is_stmt 1 discriminator 5
 1592 017a 604A     		ldr	r2, .L545+40	@ tmp376,
 1593 017c 9342     		cmp	r3, r2	@ D.14000, tmp376
 1594 017e A2F15802 		sub	r2, r2, #88	@ tmp554, tmp554,
 1595 0182 00F24681 		bhi	.L542	@,
 504:../STM32Cube_FW_F4_V1.4.0/Drivers/STM32F4xx_HAL_Driver/Src/stm32f4xx_hal_dma.c ****   {
 1596              		.loc 1 504 0 is_stmt 0 discriminator 8
 1597 0186 1168     		ldr	r1, [r2]	@ D.13998, MEM[(struct DMA_TypeDef *)1073897472B].LISR
 1598 0188 0C42     		tst	r4, r1	@ temp, D.13998
 1599 018a 40F04581 		bne	.L249	@,
 506:../STM32Cube_FW_F4_V1.4.0/Drivers/STM32F4xx_HAL_Driver/Src/stm32f4xx_hal_dma.c ****     tmp1 = __HAL_DMA_GET_FLAG(hdma, __HAL_DMA_GET_FE_FLAG_INDEX(hdma));
 1600              		.loc 1 506 0 is_stmt 1 discriminator 104
 1601 018e 4345     		cmp	r3, r8	@ D.14000, tmp552
 1602 0190 1168     		ldr	r1, [r2]	@ D.13998, MEM[(struct DMA_TypeDef *)1073897472B].LISR
 1603 0192 00F08781 		beq	.L331	@,
 506:../STM32Cube_FW_F4_V1.4.0/Drivers/STM32F4xx_HAL_Driver/Src/stm32f4xx_hal_dma.c ****     tmp1 = __HAL_DMA_GET_FLAG(hdma, __HAL_DMA_GET_FE_FLAG_INDEX(hdma));
 1604              		.loc 1 506 0 is_stmt 0 discriminator 160
 1605 0196 5A4A     		ldr	r2, .L545+44	@ tmp268,
 1606 0198 9342     		cmp	r3, r2	@ D.14000, tmp268
 1607 019a 00F08581 		beq	.L332	@,
 506:../STM32Cube_FW_F4_V1.4.0/Drivers/STM32F4xx_HAL_Driver/Src/stm32f4xx_hal_dma.c ****     tmp1 = __HAL_DMA_GET_FLAG(hdma, __HAL_DMA_GET_FE_FLAG_INDEX(hdma));
 1608              		.loc 1 506 0 discriminator 168
 1609 019e 1832     		adds	r2, r2, #24	@ tmp269, tmp269,
 1610 01a0 9342     		cmp	r3, r2	@ D.14000, tmp269
 1611 01a2 0CBF     		ite	eq	@
 1612 01a4 4FF40022 		moveq	r2, #524288	@, D.13998,
 1613 01a8 4FF00072 		movne	r2, #33554432	@, D.13998,
 1614              	.L201:
 506:../STM32Cube_FW_F4_V1.4.0/Drivers/STM32F4xx_HAL_Driver/Src/stm32f4xx_hal_dma.c ****     tmp1 = __HAL_DMA_GET_FLAG(hdma, __HAL_DMA_GET_FE_FLAG_INDEX(hdma));
 1615              		.loc 1 506 0 discriminator 201
 1616 01ac 0A40     		ands	r2, r2, r1	@, tmp, D.13998, D.13998
 1617              	.LVL65:
 507:../STM32Cube_FW_F4_V1.4.0/Drivers/STM32F4xx_HAL_Driver/Src/stm32f4xx_hal_dma.c ****     tmp2 = __HAL_DMA_GET_FLAG(hdma, __HAL_DMA_GET_DME_FLAG_INDEX(hdma));
 1618              		.loc 1 507 0 is_stmt 1 discriminator 201
 1619 01ae 5549     		ldr	r1, .L545+48	@ tmp270,
 1620 01b0 4345     		cmp	r3, r8	@ D.14000, tmp552
 1621 01b2 0868     		ldr	r0, [r1]	@ D.13998, MEM[(struct DMA_TypeDef *)1073897472B].LISR
 1622 01b4 40F07B81 		bne	.L202	@,
 507:../STM32Cube_FW_F4_V1.4.0/Drivers/STM32F4xx_HAL_Driver/Src/stm32f4xx_hal_dma.c ****     tmp2 = __HAL_DMA_GET_FLAG(hdma, __HAL_DMA_GET_DME_FLAG_INDEX(hdma));
 1623              		.loc 1 507 0 is_stmt 0
 1624 01b8 4B49     		ldr	r1, .L545+20	@ D.13998,
 1625              	.L203:
 507:../STM32Cube_FW_F4_V1.4.0/Drivers/STM32F4xx_HAL_Driver/Src/stm32f4xx_hal_dma.c ****     tmp2 = __HAL_DMA_GET_FLAG(hdma, __HAL_DMA_GET_DME_FLAG_INDEX(hdma));
 1626              		.loc 1 507 0 discriminator 201
 1627 01ba 0840     		ands	r0, r0, r1	@, tmp1, D.13998, D.13998
 1628              	.LVL66:
 508:../STM32Cube_FW_F4_V1.4.0/Drivers/STM32F4xx_HAL_Driver/Src/stm32f4xx_hal_dma.c ****     if((tmp != RESET) || (tmp1 != RESET) || (tmp2 != RESET))
 1629              		.loc 1 508 0 is_stmt 1 discriminator 201
 1630 01bc 5149     		ldr	r1, .L545+48	@ tmp286,
 1631 01be 4345     		cmp	r3, r8	@ D.14000, tmp552
 1632 01c0 D1F800C0 		ldr	ip, [r1]	@ D.13998, MEM[(struct DMA_TypeDef *)1073897472B].LISR
 1633 01c4 40F08081 		bne	.L210	@,
ARM GAS  C:\cygwin\tmp\cc1Jaa0f.s 			page 49


 508:../STM32Cube_FW_F4_V1.4.0/Drivers/STM32F4xx_HAL_Driver/Src/stm32f4xx_hal_dma.c ****     if((tmp != RESET) || (tmp1 != RESET) || (tmp2 != RESET))
 1634              		.loc 1 508 0 is_stmt 0
 1635 01c8 4849     		ldr	r1, .L545+24	@ D.13998,
 1636              	.L211:
 508:../STM32Cube_FW_F4_V1.4.0/Drivers/STM32F4xx_HAL_Driver/Src/stm32f4xx_hal_dma.c ****     if((tmp != RESET) || (tmp1 != RESET) || (tmp2 != RESET))
 1637              		.loc 1 508 0 discriminator 201
 1638 01ca 01EA0C01 		and	r1, r1, ip	@ tmp2, D.13998, D.13998
 1639              	.L212:
 1640              	.LVL67:
 509:../STM32Cube_FW_F4_V1.4.0/Drivers/STM32F4xx_HAL_Driver/Src/stm32f4xx_hal_dma.c ****     {
 1641              		.loc 1 509 0 is_stmt 1 discriminator 204
 1642 01ce 22B9     		cbnz	r2, .L213	@ tmp,
 509:../STM32Cube_FW_F4_V1.4.0/Drivers/STM32F4xx_HAL_Driver/Src/stm32f4xx_hal_dma.c ****     {
 1643              		.loc 1 509 0 is_stmt 0 discriminator 1
 1644 01d0 40BB     		cbnz	r0, .L217	@ tmp1,
 509:../STM32Cube_FW_F4_V1.4.0/Drivers/STM32F4xx_HAL_Driver/Src/stm32f4xx_hal_dma.c ****     {
 1645              		.loc 1 509 0 discriminator 2
 1646 01d2 0029     		cmp	r1, #0	@ tmp2
 1647 01d4 00F00581 		beq	.L514	@
 1648 01d8 9BE0     		b	.L223	@
 1649              	.L213:
 514:../STM32Cube_FW_F4_V1.4.0/Drivers/STM32F4xx_HAL_Driver/Src/stm32f4xx_hal_dma.c **** 
 1650              		.loc 1 514 0 is_stmt 1
 1651 01da EA6C     		ldr	r2, [r5, #76]	@ D.13998, hdma_640(D)->ErrorCode
 1652              	.LVL68:
 517:../STM32Cube_FW_F4_V1.4.0/Drivers/STM32F4xx_HAL_Driver/Src/stm32f4xx_hal_dma.c ****       }
 1653              		.loc 1 517 0
 1654 01dc 7345     		cmp	r3, lr	@ D.14000, tmp553
 514:../STM32Cube_FW_F4_V1.4.0/Drivers/STM32F4xx_HAL_Driver/Src/stm32f4xx_hal_dma.c **** 
 1655              		.loc 1 514 0
 1656 01de 42F00102 		orr	r2, r2, #1	@ D.13998, D.13998,
 1657 01e2 EA64     		str	r2, [r5, #76]	@ D.13998, hdma_640(D)->ErrorCode
 517:../STM32Cube_FW_F4_V1.4.0/Drivers/STM32F4xx_HAL_Driver/Src/stm32f4xx_hal_dma.c ****       }
 1658              		.loc 1 517 0
 1659 01e4 40F24984 		bls	.L543	@,
 517:../STM32Cube_FW_F4_V1.4.0/Drivers/STM32F4xx_HAL_Driver/Src/stm32f4xx_hal_dma.c ****       }
 1660              		.loc 1 517 0 is_stmt 0 discriminator 1
 1661 01e8 23F48062 		bic	r2, r3, #1024	@ D.13998, D.14000,
 1662 01ec 4245     		cmp	r2, r8	@ D.13998, tmp552
 1663 01ee 00F03984 		beq	.L351	@,
 517:../STM32Cube_FW_F4_V1.4.0/Drivers/STM32F4xx_HAL_Driver/Src/stm32f4xx_hal_dma.c ****       }
 1664              		.loc 1 517 0 discriminator 5
 1665 01f2 384C     		ldr	r4, .L545	@ tmp297,
 1666              	.LVL69:
 1667 01f4 A242     		cmp	r2, r4	@ D.13998, tmp297
 1668 01f6 00F03584 		beq	.L351	@,
 517:../STM32Cube_FW_F4_V1.4.0/Drivers/STM32F4xx_HAL_Driver/Src/stm32f4xx_hal_dma.c ****       }
 1669              		.loc 1 517 0 discriminator 9
 1670 01fa 483C     		subs	r4, r4, #72	@ tmp298, tmp298,
 1671 01fc A242     		cmp	r2, r4	@ D.13998, tmp298
 1672 01fe 00F03484 		beq	.L353	@,
 517:../STM32Cube_FW_F4_V1.4.0/Drivers/STM32F4xx_HAL_Driver/Src/stm32f4xx_hal_dma.c ****       }
 1673              		.loc 1 517 0 discriminator 13
 1674 0202 6034     		adds	r4, r4, #96	@ tmp299, tmp299,
 1675 0204 A242     		cmp	r2, r4	@ D.13998, tmp299
 1676 0206 00F03084 		beq	.L353	@,
 517:../STM32Cube_FW_F4_V1.4.0/Drivers/STM32F4xx_HAL_Driver/Src/stm32f4xx_hal_dma.c ****       }
ARM GAS  C:\cygwin\tmp\cc1Jaa0f.s 			page 50


 1677              		.loc 1 517 0 discriminator 17
 1678 020a 483C     		subs	r4, r4, #72	@ tmp300, tmp300,
 1679 020c A242     		cmp	r2, r4	@ D.13998, tmp300
 1680 020e 00F03084 		beq	.L354	@,
 517:../STM32Cube_FW_F4_V1.4.0/Drivers/STM32F4xx_HAL_Driver/Src/stm32f4xx_hal_dma.c ****       }
 1681              		.loc 1 517 0 discriminator 21
 1682 0212 6034     		adds	r4, r4, #96	@ tmp301, tmp301,
 1683 0214 A242     		cmp	r2, r4	@ D.13998, tmp301
 1684 0216 0CBF     		ite	eq	@
 1685 0218 4FF40022 		moveq	r2, #524288	@, D.13998,
 1686 021c 4FF00072 		movne	r2, #33554432	@, D.13998,
 1687              	.L216:
 517:../STM32Cube_FW_F4_V1.4.0/Drivers/STM32F4xx_HAL_Driver/Src/stm32f4xx_hal_dma.c ****       }
 1688              		.loc 1 517 0 discriminator 50
 1689 0220 304C     		ldr	r4, .L545+16	@ tmp302,
 1690              	.L521:
 517:../STM32Cube_FW_F4_V1.4.0/Drivers/STM32F4xx_HAL_Driver/Src/stm32f4xx_hal_dma.c ****       }
 1691              		.loc 1 517 0 discriminator 151
 1692 0222 E260     		str	r2, [r4, #12]	@ D.13998,
 1693              	.L217:
 519:../STM32Cube_FW_F4_V1.4.0/Drivers/STM32F4xx_HAL_Driver/Src/stm32f4xx_hal_dma.c ****       {
 1694              		.loc 1 519 0 is_stmt 1
 1695 0224 0028     		cmp	r0, #0	@ tmp1
 1696 0226 74D0     		beq	.L223	@
 522:../STM32Cube_FW_F4_V1.4.0/Drivers/STM32F4xx_HAL_Driver/Src/stm32f4xx_hal_dma.c ****  
 1697              		.loc 1 522 0
 1698 0228 EA6C     		ldr	r2, [r5, #76]	@ D.13998, hdma_640(D)->ErrorCode
 525:../STM32Cube_FW_F4_V1.4.0/Drivers/STM32F4xx_HAL_Driver/Src/stm32f4xx_hal_dma.c ****       }
 1699              		.loc 1 525 0
 1700 022a 7345     		cmp	r3, lr	@ D.14000, tmp553
 522:../STM32Cube_FW_F4_V1.4.0/Drivers/STM32F4xx_HAL_Driver/Src/stm32f4xx_hal_dma.c ****  
 1701              		.loc 1 522 0
 1702 022c 42F00202 		orr	r2, r2, #2	@ D.13998, D.13998,
 1703 0230 EA64     		str	r2, [r5, #76]	@ D.13998, hdma_640(D)->ErrorCode
 525:../STM32Cube_FW_F4_V1.4.0/Drivers/STM32F4xx_HAL_Driver/Src/stm32f4xx_hal_dma.c ****       }
 1704              		.loc 1 525 0
 1705 0232 12D9     		bls	.L224	@,
 525:../STM32Cube_FW_F4_V1.4.0/Drivers/STM32F4xx_HAL_Driver/Src/stm32f4xx_hal_dma.c ****       }
 1706              		.loc 1 525 0 is_stmt 0 discriminator 7
 1707 0234 294A     		ldr	r2, .L545+8	@ tmp324,
 1708 0236 9342     		cmp	r3, r2	@ D.14000, tmp324
 1709 0238 0AD0     		beq	.L371	@,
 525:../STM32Cube_FW_F4_V1.4.0/Drivers/STM32F4xx_HAL_Driver/Src/stm32f4xx_hal_dma.c ****       }
 1710              		.loc 1 525 0 discriminator 15
 1711 023a 1832     		adds	r2, r2, #24	@ tmp325, tmp325,
 1712 023c 9342     		cmp	r3, r2	@ D.14000, tmp325
 1713 023e 09D0     		beq	.L372	@,
 525:../STM32Cube_FW_F4_V1.4.0/Drivers/STM32F4xx_HAL_Driver/Src/stm32f4xx_hal_dma.c ****       }
 1714              		.loc 1 525 0 discriminator 23
 1715 0240 1832     		adds	r2, r2, #24	@ tmp326, tmp326,
 1716 0242 9342     		cmp	r3, r2	@ D.14000, tmp326
 1717 0244 14BF     		ite	ne	@
 1718 0246 4FF48002 		movne	r2, #4194304	@, D.13998,
 1719 024a 4FF48032 		moveq	r2, #65536	@, D.13998,
 1720 024e 02E0     		b	.L225	@
 1721              	.L371:
 525:../STM32Cube_FW_F4_V1.4.0/Drivers/STM32F4xx_HAL_Driver/Src/stm32f4xx_hal_dma.c ****       }
ARM GAS  C:\cygwin\tmp\cc1Jaa0f.s 			page 51


 1722              		.loc 1 525 0
 1723 0250 254A     		ldr	r2, .L545+20	@ D.13998,
 1724 0252 00E0     		b	.L225	@
 1725              	.L372:
 1726 0254 4022     		movs	r2, #64	@ D.13998,
 1727              	.L225:
 525:../STM32Cube_FW_F4_V1.4.0/Drivers/STM32F4xx_HAL_Driver/Src/stm32f4xx_hal_dma.c ****       }
 1728              		.loc 1 525 0 discriminator 50
 1729 0256 2348     		ldr	r0, .L545+16	@ tmp327,
 1730              	.LVL70:
 1731 0258 2BE0     		b	.L522	@
 1732              	.LVL71:
 1733              	.L224:
 525:../STM32Cube_FW_F4_V1.4.0/Drivers/STM32F4xx_HAL_Driver/Src/stm32f4xx_hal_dma.c ****       }
 1734              		.loc 1 525 0 discriminator 2
 1735 025a 254A     		ldr	r2, .L545+28	@ tmp328,
 1736 025c 9342     		cmp	r3, r2	@ D.14000, tmp328
 1737 025e 13D9     		bls	.L226	@,
 525:../STM32Cube_FW_F4_V1.4.0/Drivers/STM32F4xx_HAL_Driver/Src/stm32f4xx_hal_dma.c ****       }
 1738              		.loc 1 525 0 discriminator 53
 1739 0260 02F55672 		add	r2, r2, #856	@ tmp329, tmp329,
 1740 0264 9342     		cmp	r3, r2	@ D.14000, tmp329
 1741 0266 0AD0     		beq	.L374	@,
 525:../STM32Cube_FW_F4_V1.4.0/Drivers/STM32F4xx_HAL_Driver/Src/stm32f4xx_hal_dma.c ****       }
 1742              		.loc 1 525 0 discriminator 61
 1743 0268 1832     		adds	r2, r2, #24	@ tmp330, tmp330,
 1744 026a 9342     		cmp	r3, r2	@ D.14000, tmp330
 1745 026c 09D0     		beq	.L375	@,
 525:../STM32Cube_FW_F4_V1.4.0/Drivers/STM32F4xx_HAL_Driver/Src/stm32f4xx_hal_dma.c ****       }
 1746              		.loc 1 525 0 discriminator 69
 1747 026e 1832     		adds	r2, r2, #24	@ tmp331, tmp331,
 1748 0270 9342     		cmp	r3, r2	@ D.14000, tmp331
 1749 0272 14BF     		ite	ne	@
 1750 0274 4FF48002 		movne	r2, #4194304	@, D.13998,
 1751 0278 4FF48032 		moveq	r2, #65536	@, D.13998,
 1752 027c 02E0     		b	.L227	@
 1753              	.L374:
 525:../STM32Cube_FW_F4_V1.4.0/Drivers/STM32F4xx_HAL_Driver/Src/stm32f4xx_hal_dma.c ****       }
 1754              		.loc 1 525 0
 1755 027e 1A4A     		ldr	r2, .L545+20	@ D.13998,
 1756 0280 00E0     		b	.L227	@
 1757              	.L375:
 1758 0282 4022     		movs	r2, #64	@ D.13998,
 1759              	.L227:
 525:../STM32Cube_FW_F4_V1.4.0/Drivers/STM32F4xx_HAL_Driver/Src/stm32f4xx_hal_dma.c ****       }
 1760              		.loc 1 525 0 discriminator 100
 1761 0284 1748     		ldr	r0, .L545+16	@ tmp332,
 1762              	.LVL72:
 1763 0286 43E0     		b	.L523	@
 1764              	.LVL73:
 1765              	.L226:
 525:../STM32Cube_FW_F4_V1.4.0/Drivers/STM32F4xx_HAL_Driver/Src/stm32f4xx_hal_dma.c ****       }
 1766              		.loc 1 525 0 discriminator 52
 1767 0288 1C4A     		ldr	r2, .L545+40	@ tmp333,
 1768 028a 9342     		cmp	r3, r2	@ D.14000, tmp333
 1769 028c 13D9     		bls	.L228	@,
 525:../STM32Cube_FW_F4_V1.4.0/Drivers/STM32F4xx_HAL_Driver/Src/stm32f4xx_hal_dma.c ****       }
ARM GAS  C:\cygwin\tmp\cc1Jaa0f.s 			page 52


 1770              		.loc 1 525 0 discriminator 106
 1771 028e 1832     		adds	r2, r2, #24	@ tmp334, tmp334,
 1772 0290 9342     		cmp	r3, r2	@ D.14000, tmp334
 1773 0292 0AD0     		beq	.L377	@,
 525:../STM32Cube_FW_F4_V1.4.0/Drivers/STM32F4xx_HAL_Driver/Src/stm32f4xx_hal_dma.c ****       }
 1774              		.loc 1 525 0 discriminator 114
 1775 0294 1832     		adds	r2, r2, #24	@ tmp335, tmp335,
 1776 0296 9342     		cmp	r3, r2	@ D.14000, tmp335
 1777 0298 09D0     		beq	.L378	@,
 525:../STM32Cube_FW_F4_V1.4.0/Drivers/STM32F4xx_HAL_Driver/Src/stm32f4xx_hal_dma.c ****       }
 1778              		.loc 1 525 0 discriminator 122
 1779 029a 1832     		adds	r2, r2, #24	@ tmp336, tmp336,
 1780 029c 9342     		cmp	r3, r2	@ D.14000, tmp336
 1781 029e 14BF     		ite	ne	@
 1782 02a0 4FF48002 		movne	r2, #4194304	@, D.13998,
 1783 02a4 4FF48032 		moveq	r2, #65536	@, D.13998,
 1784 02a8 02E0     		b	.L229	@
 1785              	.L377:
 525:../STM32Cube_FW_F4_V1.4.0/Drivers/STM32F4xx_HAL_Driver/Src/stm32f4xx_hal_dma.c ****       }
 1786              		.loc 1 525 0
 1787 02aa 0F4A     		ldr	r2, .L545+20	@ D.13998,
 1788 02ac 00E0     		b	.L229	@
 1789              	.L378:
 1790 02ae 4022     		movs	r2, #64	@ D.13998,
 1791              	.L229:
 525:../STM32Cube_FW_F4_V1.4.0/Drivers/STM32F4xx_HAL_Driver/Src/stm32f4xx_hal_dma.c ****       }
 1792              		.loc 1 525 0 discriminator 151
 1793 02b0 1448     		ldr	r0, .L545+48	@ tmp337,
 1794              	.LVL74:
 1795              	.L522:
 1796 02b2 C260     		str	r2, [r0, #12]	@ D.13998,
 1797 02b4 2DE0     		b	.L223	@
 1798              	.LVL75:
 1799              	.L228:
 525:../STM32Cube_FW_F4_V1.4.0/Drivers/STM32F4xx_HAL_Driver/Src/stm32f4xx_hal_dma.c ****       }
 1800              		.loc 1 525 0 discriminator 103
 1801 02b6 4345     		cmp	r3, r8	@ D.14000, tmp552
 1802 02b8 0AD0     		beq	.L380	@,
 525:../STM32Cube_FW_F4_V1.4.0/Drivers/STM32F4xx_HAL_Driver/Src/stm32f4xx_hal_dma.c ****       }
 1803              		.loc 1 525 0 discriminator 159
 1804 02ba 114A     		ldr	r2, .L545+44	@ tmp339,
 1805 02bc 9342     		cmp	r3, r2	@ D.14000, tmp339
 1806 02be 25D0     		beq	.L381	@,
 525:../STM32Cube_FW_F4_V1.4.0/Drivers/STM32F4xx_HAL_Driver/Src/stm32f4xx_hal_dma.c ****       }
 1807              		.loc 1 525 0 discriminator 167
 1808 02c0 1832     		adds	r2, r2, #24	@ tmp340, tmp340,
 1809 02c2 9342     		cmp	r3, r2	@ D.14000, tmp340
 1810 02c4 14BF     		ite	ne	@
 1811 02c6 4FF48002 		movne	r2, #4194304	@, D.13998,
 1812 02ca 4FF48032 		moveq	r2, #65536	@, D.13998,
 1813 02ce 1EE0     		b	.L230	@
 1814              	.L380:
 525:../STM32Cube_FW_F4_V1.4.0/Drivers/STM32F4xx_HAL_Driver/Src/stm32f4xx_hal_dma.c ****       }
 1815              		.loc 1 525 0
 1816 02d0 054A     		ldr	r2, .L545+20	@ D.13998,
 1817 02d2 1CE0     		b	.L230	@
 1818              	.L546:
ARM GAS  C:\cygwin\tmp\cc1Jaa0f.s 			page 53


 1819              		.align	2
 1820              	.L545:
 1821 02d4 70600240 		.word	1073897584
 1822 02d8 58640240 		.word	1073898584
 1823 02dc 70640240 		.word	1073898608
 1824 02e0 88640240 		.word	1073898632
 1825 02e4 00640240 		.word	1073898496
 1826 02e8 01008000 		.word	8388609
 1827 02ec 04008000 		.word	8388612
 1828 02f0 B8600240 		.word	1073897656
 1829 02f4 10640240 		.word	1073898512
 1830 02f8 28640240 		.word	1073898536
 1831 02fc 58600240 		.word	1073897560
 1832 0300 28600240 		.word	1073897512
 1833 0304 00600240 		.word	1073897472
 1834 0308 10600240 		.word	1073897488
 1835              	.L381:
 1836 030c 4022     		movs	r2, #64	@ D.13998,
 1837              	.L230:
 525:../STM32Cube_FW_F4_V1.4.0/Drivers/STM32F4xx_HAL_Driver/Src/stm32f4xx_hal_dma.c ****       }
 1838              		.loc 1 525 0 discriminator 200
 1839 030e AF48     		ldr	r0, .L547	@ tmp341,
 1840              	.LVL76:
 1841              	.L523:
 1842 0310 8260     		str	r2, [r0, #8]	@ D.13998,
 1843              	.L223:
 527:../STM32Cube_FW_F4_V1.4.0/Drivers/STM32F4xx_HAL_Driver/Src/stm32f4xx_hal_dma.c ****       {
 1844              		.loc 1 527 0 is_stmt 1
 1845 0312 0029     		cmp	r1, #0	@ tmp2
 1846 0314 5CD0     		beq	.L231	@
 530:../STM32Cube_FW_F4_V1.4.0/Drivers/STM32F4xx_HAL_Driver/Src/stm32f4xx_hal_dma.c **** 
 1847              		.loc 1 530 0
 1848 0316 EA6C     		ldr	r2, [r5, #76]	@ D.13998, hdma_640(D)->ErrorCode
 533:../STM32Cube_FW_F4_V1.4.0/Drivers/STM32F4xx_HAL_Driver/Src/stm32f4xx_hal_dma.c ****       }
 1849              		.loc 1 533 0
 1850 0318 7345     		cmp	r3, lr	@ D.14000, tmp553
 530:../STM32Cube_FW_F4_V1.4.0/Drivers/STM32F4xx_HAL_Driver/Src/stm32f4xx_hal_dma.c **** 
 1851              		.loc 1 530 0
 1852 031a 42F00402 		orr	r2, r2, #4	@ D.13998, D.13998,
 1853 031e EA64     		str	r2, [r5, #76]	@ D.13998, hdma_640(D)->ErrorCode
 533:../STM32Cube_FW_F4_V1.4.0/Drivers/STM32F4xx_HAL_Driver/Src/stm32f4xx_hal_dma.c ****       }
 1854              		.loc 1 533 0
 1855 0320 13D9     		bls	.L232	@,
 533:../STM32Cube_FW_F4_V1.4.0/Drivers/STM32F4xx_HAL_Driver/Src/stm32f4xx_hal_dma.c ****       }
 1856              		.loc 1 533 0 is_stmt 0 discriminator 7
 1857 0322 AB4A     		ldr	r2, .L547+4	@ tmp343,
 1858 0324 9342     		cmp	r3, r2	@ D.14000, tmp343
 1859 0326 0AD0     		beq	.L383	@,
 533:../STM32Cube_FW_F4_V1.4.0/Drivers/STM32F4xx_HAL_Driver/Src/stm32f4xx_hal_dma.c ****       }
 1860              		.loc 1 533 0 discriminator 15
 1861 0328 1832     		adds	r2, r2, #24	@ tmp344, tmp344,
 1862 032a 9342     		cmp	r3, r2	@ D.14000, tmp344
 1863 032c 09D0     		beq	.L384	@,
 533:../STM32Cube_FW_F4_V1.4.0/Drivers/STM32F4xx_HAL_Driver/Src/stm32f4xx_hal_dma.c ****       }
 1864              		.loc 1 533 0 discriminator 23
 1865 032e 1832     		adds	r2, r2, #24	@ tmp345, tmp345,
 1866 0330 9342     		cmp	r3, r2	@ D.14000, tmp345
ARM GAS  C:\cygwin\tmp\cc1Jaa0f.s 			page 54


 1867 0332 0CBF     		ite	eq	@
 1868 0334 4FF48023 		moveq	r3, #262144	@, D.13998,
 1869 0338 4FF08073 		movne	r3, #16777216	@, D.13998,
 1870 033c 03E0     		b	.L233	@
 1871              	.L383:
 533:../STM32Cube_FW_F4_V1.4.0/Drivers/STM32F4xx_HAL_Driver/Src/stm32f4xx_hal_dma.c ****       }
 1872              		.loc 1 533 0
 1873 033e A54B     		ldr	r3, .L547+8	@ D.13998,
 1874 0340 01E0     		b	.L233	@
 1875              	.L384:
 1876 0342 4FF48073 		mov	r3, #256	@ D.13998,
 1877              	.L233:
 533:../STM32Cube_FW_F4_V1.4.0/Drivers/STM32F4xx_HAL_Driver/Src/stm32f4xx_hal_dma.c ****       }
 1878              		.loc 1 533 0 discriminator 50
 1879 0346 A44A     		ldr	r2, .L547+12	@ tmp346,
 1880 0348 2DE0     		b	.L525	@
 1881              	.L232:
 533:../STM32Cube_FW_F4_V1.4.0/Drivers/STM32F4xx_HAL_Driver/Src/stm32f4xx_hal_dma.c ****       }
 1882              		.loc 1 533 0 discriminator 2
 1883 034a A44A     		ldr	r2, .L547+16	@ tmp347,
 1884 034c 9342     		cmp	r3, r2	@ D.14000, tmp347
 1885 034e 14D9     		bls	.L234	@,
 533:../STM32Cube_FW_F4_V1.4.0/Drivers/STM32F4xx_HAL_Driver/Src/stm32f4xx_hal_dma.c ****       }
 1886              		.loc 1 533 0 discriminator 53
 1887 0350 02F55672 		add	r2, r2, #856	@ tmp348, tmp348,
 1888 0354 9342     		cmp	r3, r2	@ D.14000, tmp348
 1889 0356 0AD0     		beq	.L386	@,
 533:../STM32Cube_FW_F4_V1.4.0/Drivers/STM32F4xx_HAL_Driver/Src/stm32f4xx_hal_dma.c ****       }
 1890              		.loc 1 533 0 discriminator 61
 1891 0358 1832     		adds	r2, r2, #24	@ tmp349, tmp349,
 1892 035a 9342     		cmp	r3, r2	@ D.14000, tmp349
 1893 035c 09D0     		beq	.L387	@,
 533:../STM32Cube_FW_F4_V1.4.0/Drivers/STM32F4xx_HAL_Driver/Src/stm32f4xx_hal_dma.c ****       }
 1894              		.loc 1 533 0 discriminator 69
 1895 035e 1832     		adds	r2, r2, #24	@ tmp350, tmp350,
 1896 0360 9342     		cmp	r3, r2	@ D.14000, tmp350
 1897 0362 0CBF     		ite	eq	@
 1898 0364 4FF48023 		moveq	r3, #262144	@, D.13998,
 1899 0368 4FF08073 		movne	r3, #16777216	@, D.13998,
 1900 036c 03E0     		b	.L235	@
 1901              	.L386:
 533:../STM32Cube_FW_F4_V1.4.0/Drivers/STM32F4xx_HAL_Driver/Src/stm32f4xx_hal_dma.c ****       }
 1902              		.loc 1 533 0
 1903 036e 994B     		ldr	r3, .L547+8	@ D.13998,
 1904 0370 01E0     		b	.L235	@
 1905              	.L387:
 1906 0372 4FF48073 		mov	r3, #256	@ D.13998,
 1907              	.L235:
 533:../STM32Cube_FW_F4_V1.4.0/Drivers/STM32F4xx_HAL_Driver/Src/stm32f4xx_hal_dma.c ****       }
 1908              		.loc 1 533 0 discriminator 100
 1909 0376 984A     		ldr	r2, .L547+12	@ tmp351,
 1910 0378 29E0     		b	.L524	@
 1911              	.L234:
 533:../STM32Cube_FW_F4_V1.4.0/Drivers/STM32F4xx_HAL_Driver/Src/stm32f4xx_hal_dma.c ****       }
 1912              		.loc 1 533 0 discriminator 52
 1913 037a 994A     		ldr	r2, .L547+20	@ tmp352,
 1914 037c 9342     		cmp	r3, r2	@ D.14000, tmp352
ARM GAS  C:\cygwin\tmp\cc1Jaa0f.s 			page 55


 1915 037e 14D9     		bls	.L236	@,
 533:../STM32Cube_FW_F4_V1.4.0/Drivers/STM32F4xx_HAL_Driver/Src/stm32f4xx_hal_dma.c ****       }
 1916              		.loc 1 533 0 discriminator 106
 1917 0380 1832     		adds	r2, r2, #24	@ tmp353, tmp353,
 1918 0382 9342     		cmp	r3, r2	@ D.14000, tmp353
 1919 0384 0AD0     		beq	.L389	@,
 533:../STM32Cube_FW_F4_V1.4.0/Drivers/STM32F4xx_HAL_Driver/Src/stm32f4xx_hal_dma.c ****       }
 1920              		.loc 1 533 0 discriminator 114
 1921 0386 1832     		adds	r2, r2, #24	@ tmp354, tmp354,
 1922 0388 9342     		cmp	r3, r2	@ D.14000, tmp354
 1923 038a 09D0     		beq	.L390	@,
 533:../STM32Cube_FW_F4_V1.4.0/Drivers/STM32F4xx_HAL_Driver/Src/stm32f4xx_hal_dma.c ****       }
 1924              		.loc 1 533 0 discriminator 122
 1925 038c 1832     		adds	r2, r2, #24	@ tmp355, tmp355,
 1926 038e 9342     		cmp	r3, r2	@ D.14000, tmp355
 1927 0390 0CBF     		ite	eq	@
 1928 0392 4FF48023 		moveq	r3, #262144	@, D.13998,
 1929 0396 4FF08073 		movne	r3, #16777216	@, D.13998,
 1930 039a 03E0     		b	.L237	@
 1931              	.L389:
 533:../STM32Cube_FW_F4_V1.4.0/Drivers/STM32F4xx_HAL_Driver/Src/stm32f4xx_hal_dma.c ****       }
 1932              		.loc 1 533 0
 1933 039c 8D4B     		ldr	r3, .L547+8	@ D.13998,
 1934 039e 01E0     		b	.L237	@
 1935              	.L390:
 1936 03a0 4FF48073 		mov	r3, #256	@ D.13998,
 1937              	.L237:
 533:../STM32Cube_FW_F4_V1.4.0/Drivers/STM32F4xx_HAL_Driver/Src/stm32f4xx_hal_dma.c ****       }
 1938              		.loc 1 533 0 discriminator 151
 1939 03a4 894A     		ldr	r2, .L547	@ tmp356,
 1940              	.L525:
 1941 03a6 D360     		str	r3, [r2, #12]	@ D.13998,
 1942 03a8 12E0     		b	.L231	@
 1943              	.L236:
 533:../STM32Cube_FW_F4_V1.4.0/Drivers/STM32F4xx_HAL_Driver/Src/stm32f4xx_hal_dma.c ****       }
 1944              		.loc 1 533 0 discriminator 103
 1945 03aa 4345     		cmp	r3, r8	@ D.14000, tmp552
 1946 03ac 0AD0     		beq	.L392	@,
 533:../STM32Cube_FW_F4_V1.4.0/Drivers/STM32F4xx_HAL_Driver/Src/stm32f4xx_hal_dma.c ****       }
 1947              		.loc 1 533 0 discriminator 159
 1948 03ae 8D4A     		ldr	r2, .L547+24	@ tmp358,
 1949 03b0 9342     		cmp	r3, r2	@ D.14000, tmp358
 1950 03b2 09D0     		beq	.L393	@,
 533:../STM32Cube_FW_F4_V1.4.0/Drivers/STM32F4xx_HAL_Driver/Src/stm32f4xx_hal_dma.c ****       }
 1951              		.loc 1 533 0 discriminator 167
 1952 03b4 1832     		adds	r2, r2, #24	@ tmp359, tmp359,
 1953 03b6 9342     		cmp	r3, r2	@ D.14000, tmp359
 1954 03b8 0CBF     		ite	eq	@
 1955 03ba 4FF48023 		moveq	r3, #262144	@, D.13998,
 1956 03be 4FF08073 		movne	r3, #16777216	@, D.13998,
 1957 03c2 03E0     		b	.L238	@
 1958              	.L392:
 533:../STM32Cube_FW_F4_V1.4.0/Drivers/STM32F4xx_HAL_Driver/Src/stm32f4xx_hal_dma.c ****       }
 1959              		.loc 1 533 0
 1960 03c4 834B     		ldr	r3, .L547+8	@ D.13998,
 1961 03c6 01E0     		b	.L238	@
 1962              	.L393:
ARM GAS  C:\cygwin\tmp\cc1Jaa0f.s 			page 56


 1963 03c8 4FF48073 		mov	r3, #256	@ D.13998,
 1964              	.L238:
 533:../STM32Cube_FW_F4_V1.4.0/Drivers/STM32F4xx_HAL_Driver/Src/stm32f4xx_hal_dma.c ****       }
 1965              		.loc 1 533 0 discriminator 200
 1966 03cc 7F4A     		ldr	r2, .L547	@ tmp360,
 1967              	.L524:
 1968 03ce 9360     		str	r3, [r2, #8]	@ D.13998,
 1969              	.L231:
 536:../STM32Cube_FW_F4_V1.4.0/Drivers/STM32F4xx_HAL_Driver/Src/stm32f4xx_hal_dma.c ****       
 1970              		.loc 1 536 0 is_stmt 1
 1971 03d0 0423     		movs	r3, #4	@ tmp361,
 1972 03d2 85F83530 		strb	r3, [r5, #53]	@ tmp361, hdma_640(D)->State
 539:../STM32Cube_FW_F4_V1.4.0/Drivers/STM32F4xx_HAL_Driver/Src/stm32f4xx_hal_dma.c **** 
 1973              		.loc 1 539 0
 1974 03d6 0023     		movs	r3, #0	@ tmp363,
 1975 03d8 85F83430 		strb	r3, [r5, #52]	@ tmp363, hdma_640(D)->Lock
 541:../STM32Cube_FW_F4_V1.4.0/Drivers/STM32F4xx_HAL_Driver/Src/stm32f4xx_hal_dma.c ****     }  
 1976              		.loc 1 541 0
 1977 03dc 0120     		movs	r0, #1	@ D.13999,
 1978 03de BDE8F087 		pop	{r4, r5, r6, r7, r8, r9, r10, pc}	@
 1979              	.LVL77:
 1980              	.L514:
 544:../STM32Cube_FW_F4_V1.4.0/Drivers/STM32F4xx_HAL_Driver/Src/stm32f4xx_hal_dma.c ****     {
 1981              		.loc 1 544 0
 1982 03e2 7A1C     		adds	r2, r7, #1	@, Timeout,
 1983              	.LVL78:
 1984 03e4 3FF456AE 		beq	.L240	@,
 546:../STM32Cube_FW_F4_V1.4.0/Drivers/STM32F4xx_HAL_Driver/Src/stm32f4xx_hal_dma.c ****       {
 1985              		.loc 1 546 0
 1986 03e8 5FB9     		cbnz	r7, .L241	@ Timeout,
 1987              	.LVL79:
 1988              	.L242:
 549:../STM32Cube_FW_F4_V1.4.0/Drivers/STM32F4xx_HAL_Driver/Src/stm32f4xx_hal_dma.c **** 
 1989              		.loc 1 549 0
 1990 03ea EB6C     		ldr	r3, [r5, #76]	@ D.13998, hdma_640(D)->ErrorCode
 1991 03ec 43F02003 		orr	r3, r3, #32	@ D.13998, D.13998,
 1992 03f0 EB64     		str	r3, [r5, #76]	@ D.13998, hdma_640(D)->ErrorCode
 552:../STM32Cube_FW_F4_V1.4.0/Drivers/STM32F4xx_HAL_Driver/Src/stm32f4xx_hal_dma.c **** 
 1993              		.loc 1 552 0
 1994 03f2 0320     		movs	r0, #3	@ tmp365,
 555:../STM32Cube_FW_F4_V1.4.0/Drivers/STM32F4xx_HAL_Driver/Src/stm32f4xx_hal_dma.c ****         
 1995              		.loc 1 555 0
 1996 03f4 0023     		movs	r3, #0	@ tmp367,
 552:../STM32Cube_FW_F4_V1.4.0/Drivers/STM32F4xx_HAL_Driver/Src/stm32f4xx_hal_dma.c **** 
 1997              		.loc 1 552 0
 1998 03f6 85F83500 		strb	r0, [r5, #53]	@ tmp365, hdma_640(D)->State
 555:../STM32Cube_FW_F4_V1.4.0/Drivers/STM32F4xx_HAL_Driver/Src/stm32f4xx_hal_dma.c ****         
 1999              		.loc 1 555 0
 2000 03fa 85F83430 		strb	r3, [r5, #52]	@ tmp367, hdma_640(D)->Lock
 557:../STM32Cube_FW_F4_V1.4.0/Drivers/STM32F4xx_HAL_Driver/Src/stm32f4xx_hal_dma.c ****       }
 2001              		.loc 1 557 0
 2002 03fe BDE8F087 		pop	{r4, r5, r6, r7, r8, r9, r10, pc}	@
 2003              	.LVL80:
 2004              	.L241:
 546:../STM32Cube_FW_F4_V1.4.0/Drivers/STM32F4xx_HAL_Driver/Src/stm32f4xx_hal_dma.c ****       {
 2005              		.loc 1 546 0 discriminator 1
 2006 0402 FFF7FEFF 		bl	HAL_GetTick	@
ARM GAS  C:\cygwin\tmp\cc1Jaa0f.s 			page 57


 2007              	.LVL81:
 2008 0406 C9EB0000 		rsb	r0, r9, r0	@ D.13998, tickstart,
 2009 040a B842     		cmp	r0, r7	@ D.13998, Timeout
 2010 040c 7FF641AE 		bls	.L191	@,
 2011 0410 EBE7     		b	.L242	@
 2012              	.L542:
 504:../STM32Cube_FW_F4_V1.4.0/Drivers/STM32F4xx_HAL_Driver/Src/stm32f4xx_hal_dma.c ****   {
 2013              		.loc 1 504 0 discriminator 7
 2014 0412 5168     		ldr	r1, [r2, #4]	@ D.13998, MEM[(struct DMA_TypeDef *)1073897472B].HISR
 2015 0414 0C42     		tst	r4, r1	@ temp, D.13998
 2016 0416 14D0     		beq	.L251	@,
 2017              	.L249:
 562:../STM32Cube_FW_F4_V1.4.0/Drivers/STM32F4xx_HAL_Driver/Src/stm32f4xx_hal_dma.c ****   {
 2018              		.loc 1 562 0
 2019 0418 002E     		cmp	r6, #0	@ CompleteLevel
 2020 041a 63D0     		beq	.L245	@
 2021 041c F8E1     		b	.L544	@
 2022              	.L325:
 506:../STM32Cube_FW_F4_V1.4.0/Drivers/STM32F4xx_HAL_Driver/Src/stm32f4xx_hal_dma.c ****     tmp1 = __HAL_DMA_GET_FLAG(hdma, __HAL_DMA_GET_FE_FLAG_INDEX(hdma));
 2023              		.loc 1 506 0
 2024 041e 0822     		movs	r2, #8	@ D.13998,
 2025 0420 8DE6     		b	.L195	@
 2026              	.L326:
 2027 0422 4FF40072 		mov	r2, #512	@ D.13998,
 2028 0426 8AE6     		b	.L195	@
 2029              	.LVL82:
 2030              	.L196:
 507:../STM32Cube_FW_F4_V1.4.0/Drivers/STM32F4xx_HAL_Driver/Src/stm32f4xx_hal_dma.c ****     tmp2 = __HAL_DMA_GET_FLAG(hdma, __HAL_DMA_GET_DME_FLAG_INDEX(hdma));
 2031              		.loc 1 507 0 discriminator 62
 2032 0428 6F49     		ldr	r1, .L547+28	@ tmp276,
 2033 042a 8B42     		cmp	r3, r1	@ D.14000, tmp276
 2034 042c 07D0     		beq	.L336	@,
 507:../STM32Cube_FW_F4_V1.4.0/Drivers/STM32F4xx_HAL_Driver/Src/stm32f4xx_hal_dma.c ****     tmp2 = __HAL_DMA_GET_FLAG(hdma, __HAL_DMA_GET_DME_FLAG_INDEX(hdma));
 2035              		.loc 1 507 0 is_stmt 0 discriminator 70
 2036 042e 1831     		adds	r1, r1, #24	@ tmp277, tmp277,
 2037 0430 8B42     		cmp	r3, r1	@ D.14000, tmp277
 2038 0432 0CBF     		ite	eq	@
 2039 0434 4FF48031 		moveq	r1, #65536	@, D.13998,
 2040 0438 4FF48001 		movne	r1, #4194304	@, D.13998,
 2041 043c 87E6     		b	.L197	@
 2042              	.L336:
 507:../STM32Cube_FW_F4_V1.4.0/Drivers/STM32F4xx_HAL_Driver/Src/stm32f4xx_hal_dma.c ****     tmp2 = __HAL_DMA_GET_FLAG(hdma, __HAL_DMA_GET_DME_FLAG_INDEX(hdma));
 2043              		.loc 1 507 0
 2044 043e 4021     		movs	r1, #64	@ D.13998,
 2045 0440 85E6     		b	.L197	@
 2046              	.LVL83:
 2047              	.L251:
 506:../STM32Cube_FW_F4_V1.4.0/Drivers/STM32F4xx_HAL_Driver/Src/stm32f4xx_hal_dma.c ****     tmp1 = __HAL_DMA_GET_FLAG(hdma, __HAL_DMA_GET_FE_FLAG_INDEX(hdma));
 2048              		.loc 1 506 0 is_stmt 1 discriminator 103
 2049 0442 6A49     		ldr	r1, .L547+32	@ tmp261,
 2050 0444 5068     		ldr	r0, [r2, #4]	@ D.13998, MEM[(struct DMA_TypeDef *)1073897472B].HISR
 2051 0446 8B42     		cmp	r3, r1	@ D.14000, tmp261
 2052 0448 8C46     		mov	ip, r1	@ tmp557, tmp261
 2053 044a 0AD0     		beq	.L328	@,
 506:../STM32Cube_FW_F4_V1.4.0/Drivers/STM32F4xx_HAL_Driver/Src/stm32f4xx_hal_dma.c ****     tmp1 = __HAL_DMA_GET_FLAG(hdma, __HAL_DMA_GET_FE_FLAG_INDEX(hdma));
 2054              		.loc 1 506 0 is_stmt 0 discriminator 115
 2055 044c 684A     		ldr	r2, .L547+36	@ tmp262,
ARM GAS  C:\cygwin\tmp\cc1Jaa0f.s 			page 58


 2056 044e 9342     		cmp	r3, r2	@ D.14000, tmp262
 2057 0450 09D0     		beq	.L329	@,
 506:../STM32Cube_FW_F4_V1.4.0/Drivers/STM32F4xx_HAL_Driver/Src/stm32f4xx_hal_dma.c ****     tmp1 = __HAL_DMA_GET_FLAG(hdma, __HAL_DMA_GET_FE_FLAG_INDEX(hdma));
 2058              		.loc 1 506 0 discriminator 123
 2059 0452 1832     		adds	r2, r2, #24	@ tmp263, tmp263,
 2060 0454 9342     		cmp	r3, r2	@ D.14000, tmp263
 2061 0456 0CBF     		ite	eq	@
 2062 0458 4FF40022 		moveq	r2, #524288	@, D.13998,
 2063 045c 4FF00072 		movne	r2, #33554432	@, D.13998,
 2064 0460 03E0     		b	.L198	@
 2065              	.L328:
 506:../STM32Cube_FW_F4_V1.4.0/Drivers/STM32F4xx_HAL_Driver/Src/stm32f4xx_hal_dma.c ****     tmp1 = __HAL_DMA_GET_FLAG(hdma, __HAL_DMA_GET_FE_FLAG_INDEX(hdma));
 2066              		.loc 1 506 0
 2067 0462 0822     		movs	r2, #8	@ D.13998,
 2068 0464 01E0     		b	.L198	@
 2069              	.L329:
 2070 0466 4FF40072 		mov	r2, #512	@ D.13998,
 2071              	.L198:
 507:../STM32Cube_FW_F4_V1.4.0/Drivers/STM32F4xx_HAL_Driver/Src/stm32f4xx_hal_dma.c ****     tmp2 = __HAL_DMA_GET_FLAG(hdma, __HAL_DMA_GET_DME_FLAG_INDEX(hdma));
 2072              		.loc 1 507 0 is_stmt 1 discriminator 152
 2073 046a 5849     		ldr	r1, .L547	@ tmp264,
 2074 046c 6345     		cmp	r3, ip	@ D.14000, tmp557
 506:../STM32Cube_FW_F4_V1.4.0/Drivers/STM32F4xx_HAL_Driver/Src/stm32f4xx_hal_dma.c ****     tmp1 = __HAL_DMA_GET_FLAG(hdma, __HAL_DMA_GET_FE_FLAG_INDEX(hdma));
 2075              		.loc 1 506 0 discriminator 152
 2076 046e 02EA0002 		and	r2, r2, r0	@ tmp, D.13998, D.13998
 2077              	.LVL84:
 507:../STM32Cube_FW_F4_V1.4.0/Drivers/STM32F4xx_HAL_Driver/Src/stm32f4xx_hal_dma.c ****     tmp2 = __HAL_DMA_GET_FLAG(hdma, __HAL_DMA_GET_DME_FLAG_INDEX(hdma));
 2078              		.loc 1 507 0 discriminator 152
 2079 0472 4868     		ldr	r0, [r1, #4]	@ D.13998, MEM[(struct DMA_TypeDef *)1073897472B].HISR
 2080 0474 01D1     		bne	.L199	@,
 507:../STM32Cube_FW_F4_V1.4.0/Drivers/STM32F4xx_HAL_Driver/Src/stm32f4xx_hal_dma.c ****     tmp2 = __HAL_DMA_GET_FLAG(hdma, __HAL_DMA_GET_DME_FLAG_INDEX(hdma));
 2081              		.loc 1 507 0 is_stmt 0
 2082 0476 5F49     		ldr	r1, .L547+40	@ D.13998,
 2083 0478 0BE0     		b	.L200	@
 2084              	.L199:
 507:../STM32Cube_FW_F4_V1.4.0/Drivers/STM32F4xx_HAL_Driver/Src/stm32f4xx_hal_dma.c ****     tmp2 = __HAL_DMA_GET_FLAG(hdma, __HAL_DMA_GET_DME_FLAG_INDEX(hdma));
 2085              		.loc 1 507 0 discriminator 115
 2086 047a 5D49     		ldr	r1, .L547+36	@ tmp280,
 2087 047c 8B42     		cmp	r3, r1	@ D.14000, tmp280
 2088 047e 07D0     		beq	.L338	@,
 507:../STM32Cube_FW_F4_V1.4.0/Drivers/STM32F4xx_HAL_Driver/Src/stm32f4xx_hal_dma.c ****     tmp2 = __HAL_DMA_GET_FLAG(hdma, __HAL_DMA_GET_DME_FLAG_INDEX(hdma));
 2089              		.loc 1 507 0 discriminator 123
 2090 0480 1831     		adds	r1, r1, #24	@ tmp281, tmp281,
 2091 0482 8B42     		cmp	r3, r1	@ D.14000, tmp281
 2092 0484 0CBF     		ite	eq	@
 2093 0486 4FF48031 		moveq	r1, #65536	@, D.13998,
 2094 048a 4FF48001 		movne	r1, #4194304	@, D.13998,
 2095 048e 00E0     		b	.L200	@
 2096              	.L338:
 507:../STM32Cube_FW_F4_V1.4.0/Drivers/STM32F4xx_HAL_Driver/Src/stm32f4xx_hal_dma.c ****     tmp2 = __HAL_DMA_GET_FLAG(hdma, __HAL_DMA_GET_DME_FLAG_INDEX(hdma));
 2097              		.loc 1 507 0
 2098 0490 4021     		movs	r1, #64	@ D.13998,
 2099              	.L200:
 507:../STM32Cube_FW_F4_V1.4.0/Drivers/STM32F4xx_HAL_Driver/Src/stm32f4xx_hal_dma.c ****     tmp2 = __HAL_DMA_GET_FLAG(hdma, __HAL_DMA_GET_DME_FLAG_INDEX(hdma));
 2100              		.loc 1 507 0 discriminator 152
 2101 0492 0840     		ands	r0, r0, r1	@, tmp1, D.13998, D.13998
 2102              	.LVL85:
ARM GAS  C:\cygwin\tmp\cc1Jaa0f.s 			page 59


 508:../STM32Cube_FW_F4_V1.4.0/Drivers/STM32F4xx_HAL_Driver/Src/stm32f4xx_hal_dma.c ****     if((tmp != RESET) || (tmp1 != RESET) || (tmp2 != RESET))
 2103              		.loc 1 508 0 is_stmt 1 discriminator 152
 2104 0494 4D49     		ldr	r1, .L547	@ tmp282,
 2105 0496 6345     		cmp	r3, ip	@ D.14000, tmp557
 2106 0498 D1F804A0 		ldr	r10, [r1, #4]	@ D.13998, MEM[(struct DMA_TypeDef *)1073897472B].HISR
 2107 049c 3FF431AE 		beq	.L538	@,
 508:../STM32Cube_FW_F4_V1.4.0/Drivers/STM32F4xx_HAL_Driver/Src/stm32f4xx_hal_dma.c ****     if((tmp != RESET) || (tmp1 != RESET) || (tmp2 != RESET))
 2108              		.loc 1 508 0 is_stmt 0 discriminator 115
 2109 04a0 5349     		ldr	r1, .L547+36	@ tmp292,
 2110 04a2 5BE6     		b	.L540	@
 2111              	.LVL86:
 2112              	.L331:
 506:../STM32Cube_FW_F4_V1.4.0/Drivers/STM32F4xx_HAL_Driver/Src/stm32f4xx_hal_dma.c ****     tmp1 = __HAL_DMA_GET_FLAG(hdma, __HAL_DMA_GET_FE_FLAG_INDEX(hdma));
 2113              		.loc 1 506 0 is_stmt 1
 2114 04a4 0822     		movs	r2, #8	@ D.13998,
 2115 04a6 81E6     		b	.L201	@
 2116              	.L332:
 2117 04a8 4FF40072 		mov	r2, #512	@ D.13998,
 2118 04ac 7EE6     		b	.L201	@
 2119              	.LVL87:
 2120              	.L202:
 507:../STM32Cube_FW_F4_V1.4.0/Drivers/STM32F4xx_HAL_Driver/Src/stm32f4xx_hal_dma.c ****     tmp2 = __HAL_DMA_GET_FLAG(hdma, __HAL_DMA_GET_DME_FLAG_INDEX(hdma));
 2121              		.loc 1 507 0 discriminator 160
 2122 04ae 4D49     		ldr	r1, .L547+24	@ tmp284,
 2123 04b0 8B42     		cmp	r3, r1	@ D.14000, tmp284
 2124 04b2 07D0     		beq	.L340	@,
 507:../STM32Cube_FW_F4_V1.4.0/Drivers/STM32F4xx_HAL_Driver/Src/stm32f4xx_hal_dma.c ****     tmp2 = __HAL_DMA_GET_FLAG(hdma, __HAL_DMA_GET_DME_FLAG_INDEX(hdma));
 2125              		.loc 1 507 0 is_stmt 0 discriminator 168
 2126 04b4 1831     		adds	r1, r1, #24	@ tmp285, tmp285,
 2127 04b6 8B42     		cmp	r3, r1	@ D.14000, tmp285
 2128 04b8 0CBF     		ite	eq	@
 2129 04ba 4FF48031 		moveq	r1, #65536	@, D.13998,
 2130 04be 4FF48001 		movne	r1, #4194304	@, D.13998,
 2131 04c2 7AE6     		b	.L203	@
 2132              	.L340:
 507:../STM32Cube_FW_F4_V1.4.0/Drivers/STM32F4xx_HAL_Driver/Src/stm32f4xx_hal_dma.c ****     tmp2 = __HAL_DMA_GET_FLAG(hdma, __HAL_DMA_GET_DME_FLAG_INDEX(hdma));
 2133              		.loc 1 507 0
 2134 04c4 4021     		movs	r1, #64	@ D.13998,
 2135 04c6 78E6     		b	.L203	@
 2136              	.LVL88:
 2137              	.L210:
 508:../STM32Cube_FW_F4_V1.4.0/Drivers/STM32F4xx_HAL_Driver/Src/stm32f4xx_hal_dma.c ****     if((tmp != RESET) || (tmp1 != RESET) || (tmp2 != RESET))
 2138              		.loc 1 508 0 is_stmt 1 discriminator 160
 2139 04c8 4649     		ldr	r1, .L547+24	@ tmp294,
 2140 04ca 8B42     		cmp	r3, r1	@ D.14000, tmp294
 2141 04cc 07D0     		beq	.L348	@,
 508:../STM32Cube_FW_F4_V1.4.0/Drivers/STM32F4xx_HAL_Driver/Src/stm32f4xx_hal_dma.c ****     if((tmp != RESET) || (tmp1 != RESET) || (tmp2 != RESET))
 2142              		.loc 1 508 0 is_stmt 0 discriminator 168
 2143 04ce 1831     		adds	r1, r1, #24	@ tmp295, tmp295,
 2144 04d0 8B42     		cmp	r3, r1	@ D.14000, tmp295
 2145 04d2 0CBF     		ite	eq	@
 2146 04d4 4FF48021 		moveq	r1, #262144	@, D.13998,
 2147 04d8 4FF08071 		movne	r1, #16777216	@, D.13998,
 2148 04dc 75E6     		b	.L211	@
 2149              	.L348:
 508:../STM32Cube_FW_F4_V1.4.0/Drivers/STM32F4xx_HAL_Driver/Src/stm32f4xx_hal_dma.c ****     if((tmp != RESET) || (tmp1 != RESET) || (tmp2 != RESET))
 2150              		.loc 1 508 0
ARM GAS  C:\cygwin\tmp\cc1Jaa0f.s 			page 60


 2151 04de 4FF48071 		mov	r1, #256	@ D.13998,
 2152 04e2 72E6     		b	.L211	@
 2153              	.LVL89:
 2154              	.L245:
