ARM GAS  C:\cygwin\tmp\cc9ykJtJ.s 			page 1


   1              		.syntax unified
   2              		.cpu cortex-m4
   3              		.fpu softvfp
   4              		.eabi_attribute 20, 1	@ Tag_ABI_FP_denormal
   5              		.eabi_attribute 21, 1	@ Tag_ABI_FP_exceptions
   6              		.eabi_attribute 23, 3	@ Tag_ABI_FP_number_model
   7              		.eabi_attribute 24, 1	@ Tag_ABI_align8_needed
   8              		.eabi_attribute 25, 1	@ Tag_ABI_align8_preserved
   9              		.eabi_attribute 26, 1	@ Tag_ABI_enum_size
  10              		.eabi_attribute 30, 4	@ Tag_ABI_optimization_goals
  11              		.eabi_attribute 34, 1	@ Tag_CPU_unaligned_access
  12              		.eabi_attribute 18, 4	@ Tag_ABI_PCS_wchar_t
  13              		.file	"stm32f4xx_hal_msp.c"
  14              	@ GNU C (GNU Tools for ARM Embedded Processors) version 4.9.3 20141119 (release) [ARM/embedded-4_9-
  15              	@	compiled by GNU C version 4.7.4, GMP version 4.3.2, MPFR version 2.4.2, MPC version 0.8.1
  16              	@ GGC heuristics: --param ggc-min-expand=100 --param ggc-min-heapsize=131072
  17              	@ options passed:  -I . -I Inc
  18              	@ -I ../STM32Cube_FW_F4_V1.4.0/Drivers/CMSIS/Include
  19              	@ -I ../STM32Cube_FW_F4_V1.4.0/Drivers/CMSIS/Device/ST/STM32F4xx/Include
  20              	@ -I ../STM32Cube_FW_F4_V1.4.0/Drivers/STM32F4xx_HAL_Driver/Inc
  21              	@ -I ../STM32Cube_FW_F4_V1.4.0/Drivers/CMSIS/Include -imultilib armv7e-m
  22              	@ -iprefix c:\program files\gcc-arm-none-eabi-4_9-2014\bin\../lib/gcc/arm-none-eabi/4.9.3/
  23              	@ -isysroot c:\program files\gcc-arm-none-eabi-4_9-2014\bin\../arm-none-eabi
  24              	@ -MD out/stm32f4xx_hal_msp.d -MF out/stm32f4xx_hal_msp.d -MP
  25              	@ -MQ out/stm32f4xx_hal_msp.o -D__USES_INITFINI__ -D USE_HAL_DRIVER
  26              	@ -D STM32F4XX -D HSE_VALUE=8000000 -D __STARTUP_CLEAR_BSS -D STM32F411RE
  27              	@ -D USE_FULL_ASSERT -D __FPU_USED Src/stm32f4xx_hal_msp.c -mcpu=cortex-m4
  28              	@ -mthumb -auxbase-strip out/stm32f4xx_hal_msp.o -g -ggdb3 -Os -Os -Wall
  29              	@ -Wstrict-prototypes -Wextra -std=gnu90 -ffunction-sections
  30              	@ -fdata-sections -fverbose-asm
  31              	@ options enabled:  -faggressive-loop-optimizations -fauto-inc-dec
  32              	@ -fbranch-count-reg -fcaller-saves -fcombine-stack-adjustments -fcommon
  33              	@ -fcompare-elim -fcprop-registers -fcrossjumping -fcse-follow-jumps
  34              	@ -fdata-sections -fdefer-pop -fdelete-null-pointer-checks -fdevirtualize
  35              	@ -fdevirtualize-speculatively -fdwarf2-cfi-asm -fearly-inlining
  36              	@ -feliminate-unused-debug-types -fexpensive-optimizations
  37              	@ -fforward-propagate -ffunction-cse -ffunction-sections -fgcse -fgcse-lm
  38              	@ -fgnu-runtime -fgnu-unique -fguess-branch-probability
  39              	@ -fhoist-adjacent-loads -fident -fif-conversion -fif-conversion2
  40              	@ -findirect-inlining -finline -finline-atomics -finline-functions
  41              	@ -finline-functions-called-once -finline-small-functions -fipa-cp
  42              	@ -fipa-profile -fipa-pure-const -fipa-reference -fipa-sra
  43              	@ -fira-hoist-pressure -fira-share-save-slots -fira-share-spill-slots
  44              	@ -fisolate-erroneous-paths-dereference -fivopts -fkeep-static-consts
  45              	@ -fleading-underscore -fmath-errno -fmerge-constants -fmerge-debug-strings
  46              	@ -fomit-frame-pointer -foptimize-sibling-calls -fpartial-inlining
  47              	@ -fpeephole -fpeephole2 -fprefetch-loop-arrays -freg-struct-return
  48              	@ -freorder-blocks -freorder-functions -frerun-cse-after-loop
  49              	@ -fsched-critical-path-heuristic -fsched-dep-count-heuristic
  50              	@ -fsched-group-heuristic -fsched-interblock -fsched-last-insn-heuristic
  51              	@ -fsched-pressure -fsched-rank-heuristic -fsched-spec
  52              	@ -fsched-spec-insn-heuristic -fsched-stalled-insns-dep -fschedule-insns2
  53              	@ -fsection-anchors -fshow-column -fsigned-zeros -fsplit-ivs-in-unroller
  54              	@ -fsplit-wide-types -fstrict-aliasing -fstrict-overflow
  55              	@ -fstrict-volatile-bitfields -fsync-libcalls -fthread-jumps
  56              	@ -ftoplevel-reorder -ftrapping-math -ftree-bit-ccp -ftree-builtin-call-dce
  57              	@ -ftree-ccp -ftree-ch -ftree-coalesce-vars -ftree-copy-prop
ARM GAS  C:\cygwin\tmp\cc9ykJtJ.s 			page 2


  58              	@ -ftree-copyrename -ftree-cselim -ftree-dce -ftree-dominator-opts
  59              	@ -ftree-dse -ftree-forwprop -ftree-fre -ftree-loop-if-convert
  60              	@ -ftree-loop-im -ftree-loop-ivcanon -ftree-loop-optimize
  61              	@ -ftree-parallelize-loops= -ftree-phiprop -ftree-pre -ftree-pta
  62              	@ -ftree-reassoc -ftree-scev-cprop -ftree-sink -ftree-slsr -ftree-sra
  63              	@ -ftree-switch-conversion -ftree-tail-merge -ftree-ter -ftree-vrp
  64              	@ -funit-at-a-time -fvar-tracking -fvar-tracking-assignments -fverbose-asm
  65              	@ -fzero-initialized-in-bss -mlittle-endian -mlra
  66              	@ -mpic-data-is-text-relative -msched-prolog -mthumb -munaligned-access
  67              	@ -mvectorize-with-neon-quad
  68              	
  69              		.text
  70              	.Ltext0:
  71              		.cfi_sections	.debug_frame
  72              		.section	.text.HAL_UART_MspInit,"ax",%progbits
  73              		.align	1
  74              		.global	HAL_UART_MspInit
  75              		.thumb
  76              		.thumb_func
  77              		.type	HAL_UART_MspInit, %function
  78              	HAL_UART_MspInit:
  79              	.LFB123:
  80              		.file 1 "Src/stm32f4xx_hal_msp.c"
   1:Src/stm32f4xx_hal_msp.c **** /**
   2:Src/stm32f4xx_hal_msp.c ****   ******************************************************************************
   3:Src/stm32f4xx_hal_msp.c ****   * @file    Templates/Src/stm32f4xx_hal_msp.c
   4:Src/stm32f4xx_hal_msp.c ****   * @author  MCD Application Team
   5:Src/stm32f4xx_hal_msp.c ****   * @version V1.2.0
   6:Src/stm32f4xx_hal_msp.c ****   * @date    26-December-2014
   7:Src/stm32f4xx_hal_msp.c ****   * @brief   HAL MSP module.
   8:Src/stm32f4xx_hal_msp.c ****   *         
   9:Src/stm32f4xx_hal_msp.c ****   @verbatim
  10:Src/stm32f4xx_hal_msp.c ****  ===============================================================================
  11:Src/stm32f4xx_hal_msp.c ****                      ##### How to use this driver #####
  12:Src/stm32f4xx_hal_msp.c ****  ===============================================================================
  13:Src/stm32f4xx_hal_msp.c ****     [..]
  14:Src/stm32f4xx_hal_msp.c ****     This file is generated automatically by MicroXplorer and eventually modified 
  15:Src/stm32f4xx_hal_msp.c ****     by the user
  16:Src/stm32f4xx_hal_msp.c **** 
  17:Src/stm32f4xx_hal_msp.c ****   @endverbatim
  18:Src/stm32f4xx_hal_msp.c ****   ******************************************************************************
  19:Src/stm32f4xx_hal_msp.c ****   * @attention
  20:Src/stm32f4xx_hal_msp.c ****   *
  21:Src/stm32f4xx_hal_msp.c ****   * <h2><center>&copy; COPYRIGHT(c) 2014 STMicroelectronics</center></h2>
  22:Src/stm32f4xx_hal_msp.c ****   *
  23:Src/stm32f4xx_hal_msp.c ****   * Redistribution and use in source and binary forms, with or without modification,
  24:Src/stm32f4xx_hal_msp.c ****   * are permitted provided that the following conditions are met:
  25:Src/stm32f4xx_hal_msp.c ****   *   1. Redistributions of source code must retain the above copyright notice,
  26:Src/stm32f4xx_hal_msp.c ****   *      this list of conditions and the following disclaimer.
  27:Src/stm32f4xx_hal_msp.c ****   *   2. Redistributions in binary form must reproduce the above copyright notice,
  28:Src/stm32f4xx_hal_msp.c ****   *      this list of conditions and the following disclaimer in the documentation
  29:Src/stm32f4xx_hal_msp.c ****   *      and/or other materials provided with the distribution.
  30:Src/stm32f4xx_hal_msp.c ****   *   3. Neither the name of STMicroelectronics nor the names of its contributors
  31:Src/stm32f4xx_hal_msp.c ****   *      may be used to endorse or promote products derived from this software
  32:Src/stm32f4xx_hal_msp.c ****   *      without specific prior written permission.
  33:Src/stm32f4xx_hal_msp.c ****   *
  34:Src/stm32f4xx_hal_msp.c ****   * THIS SOFTWARE IS PROVIDED BY THE COPYRIGHT HOLDERS AND CONTRIBUTORS "AS IS"
ARM GAS  C:\cygwin\tmp\cc9ykJtJ.s 			page 3


  35:Src/stm32f4xx_hal_msp.c ****   * AND ANY EXPRESS OR IMPLIED WARRANTIES, INCLUDING, BUT NOT LIMITED TO, THE
  36:Src/stm32f4xx_hal_msp.c ****   * IMPLIED WARRANTIES OF MERCHANTABILITY AND FITNESS FOR A PARTICULAR PURPOSE ARE
  37:Src/stm32f4xx_hal_msp.c ****   * DISCLAIMED. IN NO EVENT SHALL THE COPYRIGHT HOLDER OR CONTRIBUTORS BE LIABLE
  38:Src/stm32f4xx_hal_msp.c ****   * FOR ANY DIRECT, INDIRECT, INCIDENTAL, SPECIAL, EXEMPLARY, OR CONSEQUENTIAL
  39:Src/stm32f4xx_hal_msp.c ****   * DAMAGES (INCLUDING, BUT NOT LIMITED TO, PROCUREMENT OF SUBSTITUTE GOODS OR
  40:Src/stm32f4xx_hal_msp.c ****   * SERVICES; LOSS OF USE, DATA, OR PROFITS; OR BUSINESS INTERRUPTION) HOWEVER
  41:Src/stm32f4xx_hal_msp.c ****   * CAUSED AND ON ANY THEORY OF LIABILITY, WHETHER IN CONTRACT, STRICT LIABILITY,
  42:Src/stm32f4xx_hal_msp.c ****   * OR TORT (INCLUDING NEGLIGENCE OR OTHERWISE) ARISING IN ANY WAY OUT OF THE USE
  43:Src/stm32f4xx_hal_msp.c ****   * OF THIS SOFTWARE, EVEN IF ADVISED OF THE POSSIBILITY OF SUCH DAMAGE.
  44:Src/stm32f4xx_hal_msp.c ****   *
  45:Src/stm32f4xx_hal_msp.c ****   ******************************************************************************
  46:Src/stm32f4xx_hal_msp.c ****   */ 
  47:Src/stm32f4xx_hal_msp.c **** 
  48:Src/stm32f4xx_hal_msp.c **** /* Includes ------------------------------------------------------------------*/
  49:Src/stm32f4xx_hal_msp.c **** #include "main.h"
  50:Src/stm32f4xx_hal_msp.c **** 
  51:Src/stm32f4xx_hal_msp.c **** /** @addtogroup STM32F4xx_HAL_Driver
  52:Src/stm32f4xx_hal_msp.c ****   * @{
  53:Src/stm32f4xx_hal_msp.c ****   */
  54:Src/stm32f4xx_hal_msp.c **** 
  55:Src/stm32f4xx_hal_msp.c **** /** @defgroup HAL_MSP
  56:Src/stm32f4xx_hal_msp.c ****   * @brief HAL MSP module.
  57:Src/stm32f4xx_hal_msp.c ****   * @{
  58:Src/stm32f4xx_hal_msp.c ****   */
  59:Src/stm32f4xx_hal_msp.c **** 
  60:Src/stm32f4xx_hal_msp.c **** /* Private typedef -----------------------------------------------------------*/
  61:Src/stm32f4xx_hal_msp.c **** /* Private define ------------------------------------------------------------*/
  62:Src/stm32f4xx_hal_msp.c **** /* Private macro -------------------------------------------------------------*/
  63:Src/stm32f4xx_hal_msp.c **** /* Private variables ---------------------------------------------------------*/
  64:Src/stm32f4xx_hal_msp.c **** /* Private function prototypes -----------------------------------------------*/
  65:Src/stm32f4xx_hal_msp.c **** /* Private functions ---------------------------------------------------------*/
  66:Src/stm32f4xx_hal_msp.c **** 
  67:Src/stm32f4xx_hal_msp.c **** /** @defgroup HAL_MSP_Private_Functions
  68:Src/stm32f4xx_hal_msp.c ****   * @{
  69:Src/stm32f4xx_hal_msp.c ****   */
  70:Src/stm32f4xx_hal_msp.c ****   
  71:Src/stm32f4xx_hal_msp.c **** /**
  72:Src/stm32f4xx_hal_msp.c ****   * @brief UART MSP Initialization 
  73:Src/stm32f4xx_hal_msp.c ****   *        This function configures the hardware resources used in this example: 
  74:Src/stm32f4xx_hal_msp.c ****   *           - Peripheral's clock enable
  75:Src/stm32f4xx_hal_msp.c ****   *           - Peripheral's GPIO Configuration  
  76:Src/stm32f4xx_hal_msp.c ****   *           - DMA configuration for transmission request by peripheral 
  77:Src/stm32f4xx_hal_msp.c ****   *           - NVIC configuration for DMA interrupt request enable
  78:Src/stm32f4xx_hal_msp.c ****   * @param huart: UART handle pointer
  79:Src/stm32f4xx_hal_msp.c ****   * @retval None
  80:Src/stm32f4xx_hal_msp.c ****   */
  81:Src/stm32f4xx_hal_msp.c **** void HAL_UART_MspInit(UART_HandleTypeDef *huart)
  82:Src/stm32f4xx_hal_msp.c **** {
  81              		.loc 1 82 0
  82              		.cfi_startproc
  83              		@ args = 0, pretend = 0, frame = 32
  84              		@ frame_needed = 0, uses_anonymous_args = 0
  85              	.LVL0:
  83:Src/stm32f4xx_hal_msp.c ****   static DMA_HandleTypeDef hdma_tx;
  84:Src/stm32f4xx_hal_msp.c ****   static DMA_HandleTypeDef hdma_rx;
  85:Src/stm32f4xx_hal_msp.c ****   
  86:Src/stm32f4xx_hal_msp.c ****   GPIO_InitTypeDef  GPIO_InitStruct;
ARM GAS  C:\cygwin\tmp\cc9ykJtJ.s 			page 4


  87:Src/stm32f4xx_hal_msp.c ****   
  88:Src/stm32f4xx_hal_msp.c ****   /*##-1- Enable peripherals and GPIO Clocks #################################*/
  89:Src/stm32f4xx_hal_msp.c ****   /* Enable GPIO TX/RX clock */
  90:Src/stm32f4xx_hal_msp.c ****   USARTx_TX_GPIO_CLK_ENABLE();
  86              		.loc 1 90 0
  87 0000 434B     		ldr	r3, .L2	@ tmp119,
  88 0002 1A6B     		ldr	r2, [r3, #48]	@ D.7401, MEM[(struct RCC_TypeDef *)1073887232B].AHB1ENR
  89 0004 42F00102 		orr	r2, r2, #1	@ D.7401, D.7401,
  82:Src/stm32f4xx_hal_msp.c ****   static DMA_HandleTypeDef hdma_tx;
  90              		.loc 1 82 0
  91 0008 2DE9F04F 		push	{r4, r5, r6, r7, r8, r9, r10, fp, lr}	@
  92              		.cfi_def_cfa_offset 36
  93              		.cfi_offset 4, -36
  94              		.cfi_offset 5, -32
  95              		.cfi_offset 6, -28
  96              		.cfi_offset 7, -24
  97              		.cfi_offset 8, -20
  98              		.cfi_offset 9, -16
  99              		.cfi_offset 10, -12
 100              		.cfi_offset 11, -8
 101              		.cfi_offset 14, -4
 102              		.loc 1 90 0
 103 000c 1A63     		str	r2, [r3, #48]	@ D.7401, MEM[(struct RCC_TypeDef *)1073887232B].AHB1ENR
  91:Src/stm32f4xx_hal_msp.c ****   USARTx_RX_GPIO_CLK_ENABLE();
 104              		.loc 1 91 0
 105 000e 1A6B     		ldr	r2, [r3, #48]	@ D.7401, MEM[(struct RCC_TypeDef *)1073887232B].AHB1ENR
  92:Src/stm32f4xx_hal_msp.c ****   /* Enable USART2 clock */
  93:Src/stm32f4xx_hal_msp.c ****   USARTx_CLK_ENABLE(); 
  94:Src/stm32f4xx_hal_msp.c ****   /* Enable DMA1 clock */
  95:Src/stm32f4xx_hal_msp.c ****   DMAx_CLK_ENABLE();   
  96:Src/stm32f4xx_hal_msp.c ****   
  97:Src/stm32f4xx_hal_msp.c ****   /*##-2- Configure peripheral GPIO ##########################################*/  
  98:Src/stm32f4xx_hal_msp.c ****   /* UART TX GPIO pin configuration  */
  99:Src/stm32f4xx_hal_msp.c ****   GPIO_InitStruct.Pin       = USARTx_TX_PIN;
 100:Src/stm32f4xx_hal_msp.c ****   GPIO_InitStruct.Mode      = GPIO_MODE_AF_PP;
 101:Src/stm32f4xx_hal_msp.c ****   GPIO_InitStruct.Pull      = GPIO_NOPULL;
 102:Src/stm32f4xx_hal_msp.c ****   GPIO_InitStruct.Speed     = GPIO_SPEED_FAST;
 103:Src/stm32f4xx_hal_msp.c ****   GPIO_InitStruct.Alternate = USARTx_TX_AF;
 104:Src/stm32f4xx_hal_msp.c ****   
 105:Src/stm32f4xx_hal_msp.c ****   HAL_GPIO_Init(USARTx_TX_GPIO_PORT, &GPIO_InitStruct);
 106              		.loc 1 105 0
 107 0010 404C     		ldr	r4, .L2+4	@ tmp132,
  91:Src/stm32f4xx_hal_msp.c ****   USARTx_RX_GPIO_CLK_ENABLE();
 108              		.loc 1 91 0
 109 0012 42F00102 		orr	r2, r2, #1	@ D.7401, D.7401,
 110 0016 1A63     		str	r2, [r3, #48]	@ D.7401, MEM[(struct RCC_TypeDef *)1073887232B].AHB1ENR
  93:Src/stm32f4xx_hal_msp.c ****   /* Enable DMA1 clock */
 111              		.loc 1 93 0
 112 0018 1A6C     		ldr	r2, [r3, #64]	@ D.7401, MEM[(struct RCC_TypeDef *)1073887232B].APB1ENR
 113 001a 42F40032 		orr	r2, r2, #131072	@ D.7401, D.7401,
 114 001e 1A64     		str	r2, [r3, #64]	@ D.7401, MEM[(struct RCC_TypeDef *)1073887232B].APB1ENR
  95:Src/stm32f4xx_hal_msp.c ****   
 115              		.loc 1 95 0
 116 0020 1A6B     		ldr	r2, [r3, #48]	@ D.7401, MEM[(struct RCC_TypeDef *)1073887232B].AHB1ENR
  82:Src/stm32f4xx_hal_msp.c ****   static DMA_HandleTypeDef hdma_tx;
 117              		.loc 1 82 0
 118 0022 89B0     		sub	sp, sp, #36	@,,
ARM GAS  C:\cygwin\tmp\cc9ykJtJ.s 			page 5


 119              		.cfi_def_cfa_offset 72
  95:Src/stm32f4xx_hal_msp.c ****   
 120              		.loc 1 95 0
 121 0024 42F40012 		orr	r2, r2, #2097152	@ D.7401, D.7401,
 101:Src/stm32f4xx_hal_msp.c ****   GPIO_InitStruct.Speed     = GPIO_SPEED_FAST;
 122              		.loc 1 101 0
 123 0028 0025     		movs	r5, #0	@ tmp129,
  95:Src/stm32f4xx_hal_msp.c ****   
 124              		.loc 1 95 0
 125 002a 1A63     		str	r2, [r3, #48]	@ D.7401, MEM[(struct RCC_TypeDef *)1073887232B].AHB1ENR
  82:Src/stm32f4xx_hal_msp.c ****   static DMA_HandleTypeDef hdma_tx;
 126              		.loc 1 82 0
 127 002c 0746     		mov	r7, r0	@ huart, huart
 100:Src/stm32f4xx_hal_msp.c ****   GPIO_InitStruct.Pull      = GPIO_NOPULL;
 128              		.loc 1 100 0
 129 002e 0226     		movs	r6, #2	@ tmp128,
  99:Src/stm32f4xx_hal_msp.c ****   GPIO_InitStruct.Mode      = GPIO_MODE_AF_PP;
 130              		.loc 1 99 0
 131 0030 0423     		movs	r3, #4	@ tmp127,
 103:Src/stm32f4xx_hal_msp.c ****   
 132              		.loc 1 103 0
 133 0032 4FF00708 		mov	r8, #7	@ tmp131,
 134              		.loc 1 105 0
 135 0036 2046     		mov	r0, r4	@, tmp132
 136              	.LVL1:
 137 0038 03A9     		add	r1, sp, #12	@ tmp196,,
  99:Src/stm32f4xx_hal_msp.c ****   GPIO_InitStruct.Mode      = GPIO_MODE_AF_PP;
 138              		.loc 1 99 0
 139 003a 0393     		str	r3, [sp, #12]	@ tmp127, GPIO_InitStruct.Pin
 103:Src/stm32f4xx_hal_msp.c ****   
 140              		.loc 1 103 0
 141 003c CDF81C80 		str	r8, [sp, #28]	@ tmp131, GPIO_InitStruct.Alternate
 100:Src/stm32f4xx_hal_msp.c ****   GPIO_InitStruct.Pull      = GPIO_NOPULL;
 142              		.loc 1 100 0
 143 0040 0496     		str	r6, [sp, #16]	@ tmp128, GPIO_InitStruct.Mode
 101:Src/stm32f4xx_hal_msp.c ****   GPIO_InitStruct.Speed     = GPIO_SPEED_FAST;
 144              		.loc 1 101 0
 145 0042 0595     		str	r5, [sp, #20]	@ tmp129, GPIO_InitStruct.Pull
 102:Src/stm32f4xx_hal_msp.c ****   GPIO_InitStruct.Alternate = USARTx_TX_AF;
 146              		.loc 1 102 0
 147 0044 0696     		str	r6, [sp, #24]	@ tmp128, GPIO_InitStruct.Speed
 148              		.loc 1 105 0
 149 0046 FFF7FEFF 		bl	HAL_GPIO_Init	@
 150              	.LVL2:
 106:Src/stm32f4xx_hal_msp.c ****     
 107:Src/stm32f4xx_hal_msp.c ****   /* UART RX GPIO pin configuration  */
 108:Src/stm32f4xx_hal_msp.c ****   GPIO_InitStruct.Pin = USARTx_RX_PIN;
 109:Src/stm32f4xx_hal_msp.c ****   GPIO_InitStruct.Alternate = USARTx_RX_AF;
 110:Src/stm32f4xx_hal_msp.c ****     
 111:Src/stm32f4xx_hal_msp.c ****   HAL_GPIO_Init(USARTx_RX_GPIO_PORT, &GPIO_InitStruct);
 151              		.loc 1 111 0
 152 004a 03A9     		add	r1, sp, #12	@ tmp197,,
 108:Src/stm32f4xx_hal_msp.c ****   GPIO_InitStruct.Alternate = USARTx_RX_AF;
 153              		.loc 1 108 0
 154 004c 0823     		movs	r3, #8	@ tmp134,
 155              		.loc 1 111 0
 156 004e 2046     		mov	r0, r4	@, tmp132
ARM GAS  C:\cygwin\tmp\cc9ykJtJ.s 			page 6


 112:Src/stm32f4xx_hal_msp.c ****     
 113:Src/stm32f4xx_hal_msp.c ****   /*##-3- Configure the DMA streams ##########################################*/
 114:Src/stm32f4xx_hal_msp.c ****   /* Configure the DMA handler for Transmission process */
 115:Src/stm32f4xx_hal_msp.c ****   hdma_tx.Instance                 = USARTx_TX_DMA_STREAM;
 157              		.loc 1 115 0
 158 0050 314C     		ldr	r4, .L2+8	@ tmp138,
 108:Src/stm32f4xx_hal_msp.c ****   GPIO_InitStruct.Alternate = USARTx_RX_AF;
 159              		.loc 1 108 0
 160 0052 0393     		str	r3, [sp, #12]	@ tmp134, GPIO_InitStruct.Pin
 109:Src/stm32f4xx_hal_msp.c ****     
 161              		.loc 1 109 0
 162 0054 CDF81C80 		str	r8, [sp, #28]	@ tmp131, GPIO_InitStruct.Alternate
 111:Src/stm32f4xx_hal_msp.c ****     
 163              		.loc 1 111 0
 164 0058 FFF7FEFF 		bl	HAL_GPIO_Init	@
 165              	.LVL3:
 166              		.loc 1 115 0
 167 005c 2F4B     		ldr	r3, .L2+12	@ tmp139,
 168 005e 2360     		str	r3, [r4]	@ tmp139, hdma_tx.Instance
 116:Src/stm32f4xx_hal_msp.c ****   
 117:Src/stm32f4xx_hal_msp.c ****   hdma_tx.Init.Channel             = USARTx_TX_DMA_CHANNEL;
 118:Src/stm32f4xx_hal_msp.c ****   hdma_tx.Init.Direction           = DMA_MEMORY_TO_PERIPH;
 169              		.loc 1 118 0
 170 0060 4022     		movs	r2, #64	@ tmp143,
 117:Src/stm32f4xx_hal_msp.c ****   hdma_tx.Init.Direction           = DMA_MEMORY_TO_PERIPH;
 171              		.loc 1 117 0
 172 0062 4FF00063 		mov	r3, #134217728	@ tmp141,
 119:Src/stm32f4xx_hal_msp.c ****   hdma_tx.Init.PeriphInc           = DMA_PINC_DISABLE;
 120:Src/stm32f4xx_hal_msp.c ****   hdma_tx.Init.MemInc              = DMA_MINC_ENABLE;
 173              		.loc 1 120 0
 174 0066 4FF4806B 		mov	fp, #1024	@ tmp147,
 121:Src/stm32f4xx_hal_msp.c ****   hdma_tx.Init.PeriphDataAlignment = DMA_PDATAALIGN_BYTE;
 122:Src/stm32f4xx_hal_msp.c ****   hdma_tx.Init.MemDataAlignment    = DMA_MDATAALIGN_BYTE;
 123:Src/stm32f4xx_hal_msp.c ****   hdma_tx.Init.Mode                = DMA_NORMAL;
 124:Src/stm32f4xx_hal_msp.c ****   hdma_tx.Init.Priority            = DMA_PRIORITY_LOW;
 125:Src/stm32f4xx_hal_msp.c ****   hdma_tx.Init.FIFOMode            = DMA_FIFOMODE_DISABLE;
 126:Src/stm32f4xx_hal_msp.c ****   hdma_tx.Init.FIFOThreshold       = DMA_FIFO_THRESHOLD_FULL;
 175              		.loc 1 126 0
 176 006a 4FF0030A 		mov	r10, #3	@ tmp159,
 127:Src/stm32f4xx_hal_msp.c ****   hdma_tx.Init.MemBurst            = DMA_MBURST_INC4;
 177              		.loc 1 127 0
 178 006e 4FF40009 		mov	r9, #8388608	@ tmp161,
 128:Src/stm32f4xx_hal_msp.c ****   hdma_tx.Init.PeriphBurst         = DMA_PBURST_INC4;
 179              		.loc 1 128 0
 180 0072 4FF40018 		mov	r8, #2097152	@ tmp163,
 129:Src/stm32f4xx_hal_msp.c ****   
 130:Src/stm32f4xx_hal_msp.c ****   HAL_DMA_Init(&hdma_tx);   
 181              		.loc 1 130 0
 182 0076 2046     		mov	r0, r4	@, tmp138
 117:Src/stm32f4xx_hal_msp.c ****   hdma_tx.Init.Direction           = DMA_MEMORY_TO_PERIPH;
 183              		.loc 1 117 0
 184 0078 6360     		str	r3, [r4, #4]	@ tmp141, hdma_tx.Init.Channel
 185 007a 0193     		str	r3, [sp, #4]	@ tmp141, %sfp
 118:Src/stm32f4xx_hal_msp.c ****   hdma_tx.Init.PeriphInc           = DMA_PINC_DISABLE;
 186              		.loc 1 118 0
 187 007c A260     		str	r2, [r4, #8]	@ tmp143, hdma_tx.Init.Direction
 119:Src/stm32f4xx_hal_msp.c ****   hdma_tx.Init.MemInc              = DMA_MINC_ENABLE;
ARM GAS  C:\cygwin\tmp\cc9ykJtJ.s 			page 7


 188              		.loc 1 119 0
 189 007e E560     		str	r5, [r4, #12]	@ tmp129, hdma_tx.Init.PeriphInc
 120:Src/stm32f4xx_hal_msp.c ****   hdma_tx.Init.PeriphDataAlignment = DMA_PDATAALIGN_BYTE;
 190              		.loc 1 120 0
 191 0080 C4F810B0 		str	fp, [r4, #16]	@ tmp147, hdma_tx.Init.MemInc
 121:Src/stm32f4xx_hal_msp.c ****   hdma_tx.Init.MemDataAlignment    = DMA_MDATAALIGN_BYTE;
 192              		.loc 1 121 0
 193 0084 6561     		str	r5, [r4, #20]	@ tmp129, hdma_tx.Init.PeriphDataAlignment
 122:Src/stm32f4xx_hal_msp.c ****   hdma_tx.Init.Mode                = DMA_NORMAL;
 194              		.loc 1 122 0
 195 0086 A561     		str	r5, [r4, #24]	@ tmp129, hdma_tx.Init.MemDataAlignment
 123:Src/stm32f4xx_hal_msp.c ****   hdma_tx.Init.Priority            = DMA_PRIORITY_LOW;
 196              		.loc 1 123 0
 197 0088 E561     		str	r5, [r4, #28]	@ tmp129, hdma_tx.Init.Mode
 124:Src/stm32f4xx_hal_msp.c ****   hdma_tx.Init.FIFOMode            = DMA_FIFOMODE_DISABLE;
 198              		.loc 1 124 0
 199 008a 2562     		str	r5, [r4, #32]	@ tmp129, hdma_tx.Init.Priority
 125:Src/stm32f4xx_hal_msp.c ****   hdma_tx.Init.FIFOThreshold       = DMA_FIFO_THRESHOLD_FULL;
 200              		.loc 1 125 0
 201 008c 6562     		str	r5, [r4, #36]	@ tmp129, hdma_tx.Init.FIFOMode
 126:Src/stm32f4xx_hal_msp.c ****   hdma_tx.Init.MemBurst            = DMA_MBURST_INC4;
 202              		.loc 1 126 0
 203 008e C4F828A0 		str	r10, [r4, #40]	@ tmp159, hdma_tx.Init.FIFOThreshold
 127:Src/stm32f4xx_hal_msp.c ****   hdma_tx.Init.PeriphBurst         = DMA_PBURST_INC4;
 204              		.loc 1 127 0
 205 0092 C4F82C90 		str	r9, [r4, #44]	@ tmp161, hdma_tx.Init.MemBurst
 128:Src/stm32f4xx_hal_msp.c ****   
 206              		.loc 1 128 0
 207 0096 C4F83080 		str	r8, [r4, #48]	@ tmp163, hdma_tx.Init.PeriphBurst
 208              		.loc 1 130 0
 209 009a FFF7FEFF 		bl	HAL_DMA_Init	@
 210              	.LVL4:
 131:Src/stm32f4xx_hal_msp.c ****   
 132:Src/stm32f4xx_hal_msp.c ****   /* Associate the initialized DMA handle to the the UART handle */
 133:Src/stm32f4xx_hal_msp.c ****   __HAL_LINKDMA(huart, hdmatx, hdma_tx);
 211              		.loc 1 133 0
 212 009e 3C63     		str	r4, [r7, #48]	@ tmp138, huart_37(D)->hdmatx
 213 00a0 A763     		str	r7, [r4, #56]	@ huart, hdma_tx.Parent
 134:Src/stm32f4xx_hal_msp.c ****     
 135:Src/stm32f4xx_hal_msp.c ****   /* Configure the DMA handler for Transmission process */
 136:Src/stm32f4xx_hal_msp.c ****   hdma_rx.Instance                 = USARTx_RX_DMA_STREAM;
 214              		.loc 1 136 0
 215 00a2 1F4C     		ldr	r4, .L2+16	@ tmp167,
 137:Src/stm32f4xx_hal_msp.c ****   
 138:Src/stm32f4xx_hal_msp.c ****   hdma_rx.Init.Channel             = USARTx_RX_DMA_CHANNEL;
 216              		.loc 1 138 0
 217 00a4 019B     		ldr	r3, [sp, #4]	@ tmp141, %sfp
 136:Src/stm32f4xx_hal_msp.c ****   
 218              		.loc 1 136 0
 219 00a6 1F4A     		ldr	r2, .L2+20	@ tmp168,
 220              		.loc 1 138 0
 221 00a8 6360     		str	r3, [r4, #4]	@ tmp141, hdma_rx.Init.Channel
 139:Src/stm32f4xx_hal_msp.c ****   hdma_rx.Init.Direction           = DMA_PERIPH_TO_MEMORY;
 140:Src/stm32f4xx_hal_msp.c ****   hdma_rx.Init.PeriphInc           = DMA_PINC_DISABLE;
 141:Src/stm32f4xx_hal_msp.c ****   hdma_rx.Init.MemInc              = DMA_MINC_ENABLE;
 142:Src/stm32f4xx_hal_msp.c ****   hdma_rx.Init.PeriphDataAlignment = DMA_PDATAALIGN_BYTE;
 143:Src/stm32f4xx_hal_msp.c ****   hdma_rx.Init.MemDataAlignment    = DMA_MDATAALIGN_BYTE;
ARM GAS  C:\cygwin\tmp\cc9ykJtJ.s 			page 8


 144:Src/stm32f4xx_hal_msp.c ****   hdma_rx.Init.Mode                = DMA_NORMAL;
 145:Src/stm32f4xx_hal_msp.c ****   hdma_rx.Init.Priority            = DMA_PRIORITY_HIGH;
 146:Src/stm32f4xx_hal_msp.c ****   hdma_rx.Init.FIFOMode            = DMA_FIFOMODE_DISABLE;         
 147:Src/stm32f4xx_hal_msp.c ****   hdma_rx.Init.FIFOThreshold       = DMA_FIFO_THRESHOLD_FULL;
 148:Src/stm32f4xx_hal_msp.c ****   hdma_rx.Init.MemBurst            = DMA_MBURST_INC4;
 149:Src/stm32f4xx_hal_msp.c ****   hdma_rx.Init.PeriphBurst         = DMA_PBURST_INC4; 
 150:Src/stm32f4xx_hal_msp.c **** 
 151:Src/stm32f4xx_hal_msp.c ****   HAL_DMA_Init(&hdma_rx);
 222              		.loc 1 151 0
 223 00aa 2046     		mov	r0, r4	@, tmp167
 145:Src/stm32f4xx_hal_msp.c ****   hdma_rx.Init.FIFOMode            = DMA_FIFOMODE_DISABLE;         
 224              		.loc 1 145 0
 225 00ac 4FF40033 		mov	r3, #131072	@ tmp184,
 226 00b0 2362     		str	r3, [r4, #32]	@ tmp184, hdma_rx.Init.Priority
 136:Src/stm32f4xx_hal_msp.c ****   
 227              		.loc 1 136 0
 228 00b2 2260     		str	r2, [r4]	@ tmp168, hdma_rx.Instance
 139:Src/stm32f4xx_hal_msp.c ****   hdma_rx.Init.Direction           = DMA_PERIPH_TO_MEMORY;
 229              		.loc 1 139 0
 230 00b4 A560     		str	r5, [r4, #8]	@ tmp129, hdma_rx.Init.Direction
 140:Src/stm32f4xx_hal_msp.c ****   hdma_rx.Init.MemInc              = DMA_MINC_ENABLE;
 231              		.loc 1 140 0
 232 00b6 E560     		str	r5, [r4, #12]	@ tmp129, hdma_rx.Init.PeriphInc
 141:Src/stm32f4xx_hal_msp.c ****   hdma_rx.Init.PeriphDataAlignment = DMA_PDATAALIGN_BYTE;
 233              		.loc 1 141 0
 234 00b8 C4F810B0 		str	fp, [r4, #16]	@ tmp147, hdma_rx.Init.MemInc
 142:Src/stm32f4xx_hal_msp.c ****   hdma_rx.Init.MemDataAlignment    = DMA_MDATAALIGN_BYTE;
 235              		.loc 1 142 0
 236 00bc 6561     		str	r5, [r4, #20]	@ tmp129, hdma_rx.Init.PeriphDataAlignment
 143:Src/stm32f4xx_hal_msp.c ****   hdma_rx.Init.Mode                = DMA_NORMAL;
 237              		.loc 1 143 0
 238 00be A561     		str	r5, [r4, #24]	@ tmp129, hdma_rx.Init.MemDataAlignment
 144:Src/stm32f4xx_hal_msp.c ****   hdma_rx.Init.Priority            = DMA_PRIORITY_HIGH;
 239              		.loc 1 144 0
 240 00c0 E561     		str	r5, [r4, #28]	@ tmp129, hdma_rx.Init.Mode
 146:Src/stm32f4xx_hal_msp.c ****   hdma_rx.Init.FIFOThreshold       = DMA_FIFO_THRESHOLD_FULL;
 241              		.loc 1 146 0
 242 00c2 6562     		str	r5, [r4, #36]	@ tmp129, hdma_rx.Init.FIFOMode
 147:Src/stm32f4xx_hal_msp.c ****   hdma_rx.Init.MemBurst            = DMA_MBURST_INC4;
 243              		.loc 1 147 0
 244 00c4 C4F828A0 		str	r10, [r4, #40]	@ tmp159, hdma_rx.Init.FIFOThreshold
 148:Src/stm32f4xx_hal_msp.c ****   hdma_rx.Init.PeriphBurst         = DMA_PBURST_INC4; 
 245              		.loc 1 148 0
 246 00c8 C4F82C90 		str	r9, [r4, #44]	@ tmp161, hdma_rx.Init.MemBurst
 149:Src/stm32f4xx_hal_msp.c **** 
 247              		.loc 1 149 0
 248 00cc C4F83080 		str	r8, [r4, #48]	@ tmp163, hdma_rx.Init.PeriphBurst
 249              		.loc 1 151 0
 250 00d0 FFF7FEFF 		bl	HAL_DMA_Init	@
 251              	.LVL5:
 152:Src/stm32f4xx_hal_msp.c ****     
 153:Src/stm32f4xx_hal_msp.c ****   /* Associate the initialized DMA handle to the the UART handle */
 154:Src/stm32f4xx_hal_msp.c ****   __HAL_LINKDMA(huart, hdmarx, hdma_rx);
 155:Src/stm32f4xx_hal_msp.c ****     
 156:Src/stm32f4xx_hal_msp.c ****   /*##-4- Configure the NVIC for DMA #########################################*/
 157:Src/stm32f4xx_hal_msp.c ****   /* NVIC configuration for DMA transfer complete interrupt (USARTx_TX) */
 158:Src/stm32f4xx_hal_msp.c ****   HAL_NVIC_SetPriority(USARTx_DMA_TX_IRQn, 2, 1);
ARM GAS  C:\cygwin\tmp\cc9ykJtJ.s 			page 9


 252              		.loc 1 158 0
 253 00d4 3146     		mov	r1, r6	@, tmp128
 154:Src/stm32f4xx_hal_msp.c ****     
 254              		.loc 1 154 0
 255 00d6 7C63     		str	r4, [r7, #52]	@ tmp167, huart_37(D)->hdmarx
 256              		.loc 1 158 0
 257 00d8 0122     		movs	r2, #1	@,
 258 00da 1120     		movs	r0, #17	@,
 154:Src/stm32f4xx_hal_msp.c ****     
 259              		.loc 1 154 0
 260 00dc A763     		str	r7, [r4, #56]	@ huart, hdma_rx.Parent
 261              		.loc 1 158 0
 262 00de FFF7FEFF 		bl	HAL_NVIC_SetPriority	@
 263              	.LVL6:
 159:Src/stm32f4xx_hal_msp.c ****   HAL_NVIC_EnableIRQ(USARTx_DMA_TX_IRQn);
 264              		.loc 1 159 0
 265 00e2 1120     		movs	r0, #17	@,
 266 00e4 FFF7FEFF 		bl	HAL_NVIC_EnableIRQ	@
 267              	.LVL7:
 160:Src/stm32f4xx_hal_msp.c ****     
 161:Src/stm32f4xx_hal_msp.c ****   /* NVIC configuration for DMA transfer complete interrupt (USARTx_RX) */
 162:Src/stm32f4xx_hal_msp.c ****   HAL_NVIC_SetPriority(USARTx_DMA_RX_IRQn, 2, 0);   
 268              		.loc 1 162 0
 269 00e8 3146     		mov	r1, r6	@, tmp128
 270 00ea 2A46     		mov	r2, r5	@, tmp129
 271 00ec 1020     		movs	r0, #16	@,
 272 00ee FFF7FEFF 		bl	HAL_NVIC_SetPriority	@
 273              	.LVL8:
 163:Src/stm32f4xx_hal_msp.c ****   HAL_NVIC_EnableIRQ(USARTx_DMA_RX_IRQn);
 274              		.loc 1 163 0
 275 00f2 1020     		movs	r0, #16	@,
 276 00f4 FFF7FEFF 		bl	HAL_NVIC_EnableIRQ	@
 277              	.LVL9:
 164:Src/stm32f4xx_hal_msp.c ****   
 165:Src/stm32f4xx_hal_msp.c ****   /* NVIC configuration for USART TC interrupt */
 166:Src/stm32f4xx_hal_msp.c ****   HAL_NVIC_SetPriority(USARTx_IRQn, 0, 0);
 278              		.loc 1 166 0
 279 00f8 2946     		mov	r1, r5	@, tmp129
 280 00fa 2A46     		mov	r2, r5	@, tmp1
 281 00fc 2620     		movs	r0, #38	@,
 282 00fe FFF7FEFF 		bl	HAL_NVIC_SetPriority	@
 283              	.LVL10:
 167:Src/stm32f4xx_hal_msp.c ****   HAL_NVIC_EnableIRQ(USARTx_IRQn);
 284              		.loc 1 167 0
 285 0102 2620     		movs	r0, #38	@,
 286 0104 FFF7FEFF 		bl	HAL_NVIC_EnableIRQ	@
 287              	.LVL11:
 168:Src/stm32f4xx_hal_msp.c **** }
 288              		.loc 1 168 0
 289 0108 09B0     		add	sp, sp, #36	@,,
 290              		.cfi_def_cfa_offset 36
 291              		@ sp needed	@
 292 010a BDE8F08F 		pop	{r4, r5, r6, r7, r8, r9, r10, fp, pc}	@
 293              	.LVL12:
 294              	.L3:
 295 010e 00BF     		.align	2
 296              	.L2:
ARM GAS  C:\cygwin\tmp\cc9ykJtJ.s 			page 10


 297 0110 00380240 		.word	1073887232
 298 0114 00000240 		.word	1073872896
 299 0118 00000000 		.word	.LANCHOR0
 300 011c A0600240 		.word	1073897632
 301 0120 00000000 		.word	.LANCHOR1
 302 0124 88600240 		.word	1073897608
 303              		.cfi_endproc
 304              	.LFE123:
 305              		.size	HAL_UART_MspInit, .-HAL_UART_MspInit
 306              		.section	.text.HAL_UART_MspDeInit,"ax",%progbits
 307              		.align	1
 308              		.global	HAL_UART_MspDeInit
 309              		.thumb
 310              		.thumb_func
 311              		.type	HAL_UART_MspDeInit, %function
 312              	HAL_UART_MspDeInit:
 313              	.LFB124:
 169:Src/stm32f4xx_hal_msp.c **** 
 170:Src/stm32f4xx_hal_msp.c **** /**
 171:Src/stm32f4xx_hal_msp.c ****   * @brief UART MSP De-Initialization 
 172:Src/stm32f4xx_hal_msp.c ****   *        This function frees the hardware resources used in this example:
 173:Src/stm32f4xx_hal_msp.c ****   *          - Disable the Peripheral's clock
 174:Src/stm32f4xx_hal_msp.c ****   *          - Revert GPIO, DMA and NVIC configuration to their default state
 175:Src/stm32f4xx_hal_msp.c ****   * @param huart: UART handle pointer
 176:Src/stm32f4xx_hal_msp.c ****   * @retval None
 177:Src/stm32f4xx_hal_msp.c ****   */
 178:Src/stm32f4xx_hal_msp.c **** void HAL_UART_MspDeInit(UART_HandleTypeDef *huart)
 179:Src/stm32f4xx_hal_msp.c **** {
 314              		.loc 1 179 0
 315              		.cfi_startproc
 316              		@ args = 0, pretend = 0, frame = 0
 317              		@ frame_needed = 0, uses_anonymous_args = 0
 318              	.LVL13:
 180:Src/stm32f4xx_hal_msp.c ****   
 181:Src/stm32f4xx_hal_msp.c ****   static DMA_HandleTypeDef hdma_tx;
 182:Src/stm32f4xx_hal_msp.c ****   static DMA_HandleTypeDef hdma_rx;
 183:Src/stm32f4xx_hal_msp.c **** 
 184:Src/stm32f4xx_hal_msp.c ****   /*##-1- Reset peripherals ##################################################*/
 185:Src/stm32f4xx_hal_msp.c ****   USARTx_FORCE_RESET();
 319              		.loc 1 185 0
 320 0000 104B     		ldr	r3, .L5	@ tmp115,
 321 0002 1A6A     		ldr	r2, [r3, #32]	@ D.7405, MEM[(struct RCC_TypeDef *)1073887232B].APB1RSTR
 322 0004 42F40032 		orr	r2, r2, #131072	@ D.7405, D.7405,
 179:Src/stm32f4xx_hal_msp.c ****   
 323              		.loc 1 179 0
 324 0008 10B5     		push	{r4, lr}	@
 325              		.cfi_def_cfa_offset 8
 326              		.cfi_offset 4, -8
 327              		.cfi_offset 14, -4
 328              		.loc 1 185 0
 329 000a 1A62     		str	r2, [r3, #32]	@ D.7405, MEM[(struct RCC_TypeDef *)1073887232B].APB1RSTR
 186:Src/stm32f4xx_hal_msp.c ****   USARTx_RELEASE_RESET();
 330              		.loc 1 186 0
 331 000c 1A6A     		ldr	r2, [r3, #32]	@ D.7405, MEM[(struct RCC_TypeDef *)1073887232B].APB1RSTR
 187:Src/stm32f4xx_hal_msp.c **** 
 188:Src/stm32f4xx_hal_msp.c ****   /*##-2- Disable peripherals and GPIO Clocks #################################*/
 189:Src/stm32f4xx_hal_msp.c ****   /* Configure UART Tx as alternate function  */
ARM GAS  C:\cygwin\tmp\cc9ykJtJ.s 			page 11


 190:Src/stm32f4xx_hal_msp.c ****   HAL_GPIO_DeInit(USARTx_TX_GPIO_PORT, USARTx_TX_PIN);
 332              		.loc 1 190 0
 333 000e 0E4C     		ldr	r4, .L5+4	@ tmp119,
 186:Src/stm32f4xx_hal_msp.c ****   USARTx_RELEASE_RESET();
 334              		.loc 1 186 0
 335 0010 22F40032 		bic	r2, r2, #131072	@ D.7405, D.7405,
 336 0014 1A62     		str	r2, [r3, #32]	@ D.7405, MEM[(struct RCC_TypeDef *)1073887232B].APB1RSTR
 337              		.loc 1 190 0
 338 0016 2046     		mov	r0, r4	@, tmp119
 339              	.LVL14:
 340 0018 0421     		movs	r1, #4	@,
 341 001a FFF7FEFF 		bl	HAL_GPIO_DeInit	@
 342              	.LVL15:
 191:Src/stm32f4xx_hal_msp.c ****   /* Configure UART Rx as alternate function  */
 192:Src/stm32f4xx_hal_msp.c ****   HAL_GPIO_DeInit(USARTx_RX_GPIO_PORT, USARTx_RX_PIN);
 343              		.loc 1 192 0
 344 001e 0821     		movs	r1, #8	@,
 345 0020 2046     		mov	r0, r4	@, tmp119
 346 0022 FFF7FEFF 		bl	HAL_GPIO_DeInit	@
 347              	.LVL16:
 193:Src/stm32f4xx_hal_msp.c ****    
 194:Src/stm32f4xx_hal_msp.c ****   /*##-3- Disable the DMA Streams ############################################*/
 195:Src/stm32f4xx_hal_msp.c ****   /* De-Initialize the DMA Stream associate to transmission process */
 196:Src/stm32f4xx_hal_msp.c ****   HAL_DMA_DeInit(&hdma_tx); 
 348              		.loc 1 196 0
 349 0026 0948     		ldr	r0, .L5+8	@,
 350 0028 FFF7FEFF 		bl	HAL_DMA_DeInit	@
 351              	.LVL17:
 197:Src/stm32f4xx_hal_msp.c ****   /* De-Initialize the DMA Stream associate to reception process */
 198:Src/stm32f4xx_hal_msp.c ****   HAL_DMA_DeInit(&hdma_rx);
 352              		.loc 1 198 0
 353 002c 0848     		ldr	r0, .L5+12	@,
 354 002e FFF7FEFF 		bl	HAL_DMA_DeInit	@
 355              	.LVL18:
 199:Src/stm32f4xx_hal_msp.c ****   
 200:Src/stm32f4xx_hal_msp.c ****   /*##-4- Disable the NVIC for DMA ###########################################*/
 201:Src/stm32f4xx_hal_msp.c ****   HAL_NVIC_DisableIRQ(USARTx_DMA_TX_IRQn);
 356              		.loc 1 201 0
 357 0032 1120     		movs	r0, #17	@,
 358 0034 FFF7FEFF 		bl	HAL_NVIC_DisableIRQ	@
 359              	.LVL19:
 202:Src/stm32f4xx_hal_msp.c ****   HAL_NVIC_DisableIRQ(USARTx_DMA_RX_IRQn);
 360              		.loc 1 202 0
 361 0038 1020     		movs	r0, #16	@,
 203:Src/stm32f4xx_hal_msp.c **** }
 362              		.loc 1 203 0
 363 003a BDE81040 		pop	{r4, lr}	@
 364              		.cfi_restore 14
 365              		.cfi_restore 4
 366              		.cfi_def_cfa_offset 0
 202:Src/stm32f4xx_hal_msp.c ****   HAL_NVIC_DisableIRQ(USARTx_DMA_RX_IRQn);
 367              		.loc 1 202 0
 368 003e FFF7FEBF 		b	HAL_NVIC_DisableIRQ	@
 369              	.LVL20:
 370              	.L6:
 371 0042 00BF     		.align	2
 372              	.L5:
ARM GAS  C:\cygwin\tmp\cc9ykJtJ.s 			page 12


 373 0044 00380240 		.word	1073887232
 374 0048 00000240 		.word	1073872896
 375 004c 00000000 		.word	.LANCHOR2
 376 0050 00000000 		.word	.LANCHOR3
 377              		.cfi_endproc
 378              	.LFE124:
 379              		.size	HAL_UART_MspDeInit, .-HAL_UART_MspDeInit
 380              		.section	.text.HAL_I2C_MspInit,"ax",%progbits
 381              		.align	1
 382              		.global	HAL_I2C_MspInit
 383              		.thumb
 384              		.thumb_func
 385              		.type	HAL_I2C_MspInit, %function
 386              	HAL_I2C_MspInit:
 387              	.LFB125:
 204:Src/stm32f4xx_hal_msp.c **** 
 205:Src/stm32f4xx_hal_msp.c **** /**
 206:Src/stm32f4xx_hal_msp.c ****   * @brief I2C MSP Initialization 
 207:Src/stm32f4xx_hal_msp.c ****   *        This function configures the hardware resources used in this example: 
 208:Src/stm32f4xx_hal_msp.c ****   *           - Peripheral's clock enable
 209:Src/stm32f4xx_hal_msp.c ****   *           - Peripheral's GPIO Configuration  
 210:Src/stm32f4xx_hal_msp.c ****   *           - DMA configuration for transmission request by peripheral 
 211:Src/stm32f4xx_hal_msp.c ****   *           - NVIC configuration for DMA interrupt request enable
 212:Src/stm32f4xx_hal_msp.c ****   * @param hi2c: I2C handle pointer
 213:Src/stm32f4xx_hal_msp.c ****   * @retval None
 214:Src/stm32f4xx_hal_msp.c ****   */
 215:Src/stm32f4xx_hal_msp.c **** void HAL_I2C_MspInit(I2C_HandleTypeDef *hi2c){
 388              		.loc 1 215 0
 389              		.cfi_startproc
 390              		@ args = 0, pretend = 0, frame = 24
 391              		@ frame_needed = 0, uses_anonymous_args = 0
 392              	.LVL21:
 393 0000 2DE9F043 		push	{r4, r5, r6, r7, r8, r9, lr}	@
 394              		.cfi_def_cfa_offset 28
 395              		.cfi_offset 4, -28
 396              		.cfi_offset 5, -24
 397              		.cfi_offset 6, -20
 398              		.cfi_offset 7, -16
 399              		.cfi_offset 8, -12
 400              		.cfi_offset 9, -8
 401              		.cfi_offset 14, -4
 216:Src/stm32f4xx_hal_msp.c ****   
 217:Src/stm32f4xx_hal_msp.c ****   GPIO_InitTypeDef  GPIO_InitStruct;
 218:Src/stm32f4xx_hal_msp.c ****   
 219:Src/stm32f4xx_hal_msp.c ****   /*##-1- Enable GPIO Clocks #################################################*/
 220:Src/stm32f4xx_hal_msp.c ****   /* Enable GPIO TX/RX clock */
 221:Src/stm32f4xx_hal_msp.c ****   I2Cx_SCL_GPIO_CLK_ENABLE();
 402              		.loc 1 221 0
 403 0004 264C     		ldr	r4, .L8	@ tmp119,
 222:Src/stm32f4xx_hal_msp.c ****   I2Cx_SDA_GPIO_CLK_ENABLE();
 223:Src/stm32f4xx_hal_msp.c ****   /* PORTC-Reset pin bus enable */
 224:Src/stm32f4xx_hal_msp.c ****   __HAL_RCC_GPIOC_CLK_ENABLE();
 225:Src/stm32f4xx_hal_msp.c **** 
 226:Src/stm32f4xx_hal_msp.c **** 
 227:Src/stm32f4xx_hal_msp.c ****   /*##-2- Configure peripheral GPIO ##########################################*/
 228:Src/stm32f4xx_hal_msp.c ****   /* I2C TX GPIO pin configuration  */
 229:Src/stm32f4xx_hal_msp.c ****   GPIO_InitStruct.Pin       = I2Cx_SCL_PIN;
ARM GAS  C:\cygwin\tmp\cc9ykJtJ.s 			page 13


 230:Src/stm32f4xx_hal_msp.c ****   GPIO_InitStruct.Mode      = GPIO_MODE_AF_OD;
 231:Src/stm32f4xx_hal_msp.c ****   GPIO_InitStruct.Pull      = GPIO_PULLUP;
 232:Src/stm32f4xx_hal_msp.c ****   GPIO_InitStruct.Speed     = GPIO_SPEED_FAST;
 233:Src/stm32f4xx_hal_msp.c ****   GPIO_InitStruct.Alternate = I2Cx_SCL_AF;
 234:Src/stm32f4xx_hal_msp.c ****   HAL_GPIO_Init(I2Cx_SCL_GPIO_PORT, &GPIO_InitStruct);
 404              		.loc 1 234 0
 405 0006 274E     		ldr	r6, .L8+4	@ tmp130,
 221:Src/stm32f4xx_hal_msp.c ****   I2Cx_SDA_GPIO_CLK_ENABLE();
 406              		.loc 1 221 0
 407 0008 236B     		ldr	r3, [r4, #48]	@ D.7408, MEM[(struct RCC_TypeDef *)1073887232B].AHB1ENR
 408 000a 43F00203 		orr	r3, r3, #2	@ D.7408, D.7408,
 409 000e 2363     		str	r3, [r4, #48]	@ D.7408, MEM[(struct RCC_TypeDef *)1073887232B].AHB1ENR
 222:Src/stm32f4xx_hal_msp.c ****   I2Cx_SDA_GPIO_CLK_ENABLE();
 410              		.loc 1 222 0
 411 0010 236B     		ldr	r3, [r4, #48]	@ D.7408, MEM[(struct RCC_TypeDef *)1073887232B].AHB1ENR
 412 0012 43F00203 		orr	r3, r3, #2	@ D.7408, D.7408,
 413 0016 2363     		str	r3, [r4, #48]	@ D.7408, MEM[(struct RCC_TypeDef *)1073887232B].AHB1ENR
 224:Src/stm32f4xx_hal_msp.c **** 
 414              		.loc 1 224 0
 415 0018 236B     		ldr	r3, [r4, #48]	@ D.7408, MEM[(struct RCC_TypeDef *)1073887232B].AHB1ENR
 215:Src/stm32f4xx_hal_msp.c ****   
 416              		.loc 1 215 0
 417 001a 87B0     		sub	sp, sp, #28	@,,
 418              		.cfi_def_cfa_offset 56
 233:Src/stm32f4xx_hal_msp.c ****   HAL_GPIO_Init(I2Cx_SCL_GPIO_PORT, &GPIO_InitStruct);
 419              		.loc 1 233 0
 420 001c 4FF00409 		mov	r9, #4	@ tmp129,
 224:Src/stm32f4xx_hal_msp.c **** 
 421              		.loc 1 224 0
 422 0020 43F00403 		orr	r3, r3, #4	@ D.7408, D.7408,
 423 0024 2363     		str	r3, [r4, #48]	@ D.7408, MEM[(struct RCC_TypeDef *)1073887232B].AHB1ENR
 231:Src/stm32f4xx_hal_msp.c ****   GPIO_InitStruct.Speed     = GPIO_SPEED_FAST;
 424              		.loc 1 231 0
 425 0026 0125     		movs	r5, #1	@ tmp127,
 230:Src/stm32f4xx_hal_msp.c ****   GPIO_InitStruct.Pull      = GPIO_PULLUP;
 426              		.loc 1 230 0
 427 0028 1223     		movs	r3, #18	@ tmp126,
 229:Src/stm32f4xx_hal_msp.c ****   GPIO_InitStruct.Mode      = GPIO_MODE_AF_OD;
 428              		.loc 1 229 0
 429 002a 4FF04008 		mov	r8, #64	@ tmp125,
 232:Src/stm32f4xx_hal_msp.c ****   GPIO_InitStruct.Alternate = I2Cx_SCL_AF;
 430              		.loc 1 232 0
 431 002e 0227     		movs	r7, #2	@ tmp128,
 432              		.loc 1 234 0
 433 0030 3046     		mov	r0, r6	@, tmp130
 434              	.LVL22:
 435 0032 0DEB0901 		add	r1, sp, r9	@ tmp147,,
 230:Src/stm32f4xx_hal_msp.c ****   GPIO_InitStruct.Pull      = GPIO_PULLUP;
 436              		.loc 1 230 0
 437 0036 0293     		str	r3, [sp, #8]	@ tmp126, GPIO_InitStruct.Mode
 229:Src/stm32f4xx_hal_msp.c ****   GPIO_InitStruct.Mode      = GPIO_MODE_AF_OD;
 438              		.loc 1 229 0
 439 0038 CDF80480 		str	r8, [sp, #4]	@ tmp125, GPIO_InitStruct.Pin
 232:Src/stm32f4xx_hal_msp.c ****   GPIO_InitStruct.Alternate = I2Cx_SCL_AF;
 440              		.loc 1 232 0
 441 003c 0497     		str	r7, [sp, #16]	@ tmp128, GPIO_InitStruct.Speed
 231:Src/stm32f4xx_hal_msp.c ****   GPIO_InitStruct.Speed     = GPIO_SPEED_FAST;
ARM GAS  C:\cygwin\tmp\cc9ykJtJ.s 			page 14


 442              		.loc 1 231 0
 443 003e 0395     		str	r5, [sp, #12]	@ tmp127, GPIO_InitStruct.Pull
 233:Src/stm32f4xx_hal_msp.c ****   HAL_GPIO_Init(I2Cx_SCL_GPIO_PORT, &GPIO_InitStruct);
 444              		.loc 1 233 0
 445 0040 CDF81490 		str	r9, [sp, #20]	@ tmp129, GPIO_InitStruct.Alternate
 446              		.loc 1 234 0
 447 0044 FFF7FEFF 		bl	HAL_GPIO_Init	@
 448              	.LVL23:
 235:Src/stm32f4xx_hal_msp.c ****   HAL_GPIO_WritePin(GPIOB, GPIO_PIN_6, GPIO_PIN_SET);
 449              		.loc 1 235 0
 450 0048 2A46     		mov	r2, r5	@, tmp127
 451 004a 3046     		mov	r0, r6	@, tmp130
 452 004c 4146     		mov	r1, r8	@, tmp125
 453 004e FFF7FEFF 		bl	HAL_GPIO_WritePin	@
 454              	.LVL24:
 236:Src/stm32f4xx_hal_msp.c **** 
 237:Src/stm32f4xx_hal_msp.c ****   /* I2C RX GPIO pin configuration  */
 238:Src/stm32f4xx_hal_msp.c ****   GPIO_InitStruct.Pin = I2Cx_SDA_PIN;
 455              		.loc 1 238 0
 456 0052 4FF40078 		mov	r8, #512	@ tmp133,
 239:Src/stm32f4xx_hal_msp.c ****   GPIO_InitStruct.Alternate = I2Cx_SDA_AF;
 240:Src/stm32f4xx_hal_msp.c ****   HAL_GPIO_Init(I2Cx_SDA_GPIO_PORT, &GPIO_InitStruct);
 457              		.loc 1 240 0
 458 0056 3046     		mov	r0, r6	@, tmp130
 459 0058 0DEB0901 		add	r1, sp, r9	@ tmp148,,
 238:Src/stm32f4xx_hal_msp.c ****   GPIO_InitStruct.Alternate = I2Cx_SDA_AF;
 460              		.loc 1 238 0
 461 005c CDF80480 		str	r8, [sp, #4]	@ tmp133, GPIO_InitStruct.Pin
 239:Src/stm32f4xx_hal_msp.c ****   GPIO_InitStruct.Alternate = I2Cx_SDA_AF;
 462              		.loc 1 239 0
 463 0060 CDF81490 		str	r9, [sp, #20]	@ tmp129, GPIO_InitStruct.Alternate
 464              		.loc 1 240 0
 465 0064 FFF7FEFF 		bl	HAL_GPIO_Init	@
 466              	.LVL25:
 241:Src/stm32f4xx_hal_msp.c ****   HAL_GPIO_WritePin(GPIOB, GPIO_PIN_9, GPIO_PIN_SET);
 467              		.loc 1 241 0
 468 0068 2A46     		mov	r2, r5	@, tmp127
 469 006a 3046     		mov	r0, r6	@, tmp130
 470 006c 4146     		mov	r1, r8	@, tmp133
 471 006e FFF7FEFF 		bl	HAL_GPIO_WritePin	@
 472              	.LVL26:
 242:Src/stm32f4xx_hal_msp.c ****   
 243:Src/stm32f4xx_hal_msp.c ****   /* Init Reset Pin Touch */
 244:Src/stm32f4xx_hal_msp.c ****   GPIO_InitStruct.Pin = GPIO_PIN_3;
 245:Src/stm32f4xx_hal_msp.c ****   GPIO_InitStruct.Mode = GPIO_MODE_OUTPUT_PP;
 246:Src/stm32f4xx_hal_msp.c ****   GPIO_InitStruct.Speed = GPIO_SPEED_FAST;
 473              		.loc 1 246 0
 474 0072 0497     		str	r7, [sp, #16]	@ tmp128, GPIO_InitStruct.Speed
 247:Src/stm32f4xx_hal_msp.c ****   GPIO_InitStruct.Pull = GPIO_PULLUP;
 248:Src/stm32f4xx_hal_msp.c ****   HAL_GPIO_Init(GPIOC, &GPIO_InitStruct);
 475              		.loc 1 248 0
 476 0074 0C4F     		ldr	r7, .L8+8	@ tmp142,
 245:Src/stm32f4xx_hal_msp.c ****   GPIO_InitStruct.Speed = GPIO_SPEED_FAST;
 477              		.loc 1 245 0
 478 0076 0295     		str	r5, [sp, #8]	@ tmp127, GPIO_InitStruct.Mode
 244:Src/stm32f4xx_hal_msp.c ****   GPIO_InitStruct.Mode = GPIO_MODE_OUTPUT_PP;
 479              		.loc 1 244 0
ARM GAS  C:\cygwin\tmp\cc9ykJtJ.s 			page 15


 480 0078 0826     		movs	r6, #8	@ tmp138,
 481              		.loc 1 248 0
 482 007a 3846     		mov	r0, r7	@, tmp142
 483 007c 0DEB0901 		add	r1, sp, r9	@ tmp149,,
 244:Src/stm32f4xx_hal_msp.c ****   GPIO_InitStruct.Mode = GPIO_MODE_OUTPUT_PP;
 484              		.loc 1 244 0
 485 0080 0196     		str	r6, [sp, #4]	@ tmp138, GPIO_InitStruct.Pin
 247:Src/stm32f4xx_hal_msp.c ****   GPIO_InitStruct.Pull = GPIO_PULLUP;
 486              		.loc 1 247 0
 487 0082 0395     		str	r5, [sp, #12]	@ tmp127, GPIO_InitStruct.Pull
 488              		.loc 1 248 0
 489 0084 FFF7FEFF 		bl	HAL_GPIO_Init	@
 490              	.LVL27:
 249:Src/stm32f4xx_hal_msp.c ****   HAL_GPIO_WritePin(GPIOC, GPIO_PIN_3, GPIO_PIN_SET);
 491              		.loc 1 249 0
 492 0088 3846     		mov	r0, r7	@, tmp142
 493 008a 3146     		mov	r1, r6	@, tmp138
 494 008c 2A46     		mov	r2, r5	@, tmp127
 495 008e FFF7FEFF 		bl	HAL_GPIO_WritePin	@
 496              	.LVL28:
 250:Src/stm32f4xx_hal_msp.c ****  
 251:Src/stm32f4xx_hal_msp.c ****   /*##-3- Enable peripheral Clock ############################################*/
 252:Src/stm32f4xx_hal_msp.c ****   /* Enable I2C1 clock */
 253:Src/stm32f4xx_hal_msp.c ****   I2Cx_CLK_ENABLE();
 497              		.loc 1 253 0
 498 0092 236C     		ldr	r3, [r4, #64]	@ D.7408, MEM[(struct RCC_TypeDef *)1073887232B].APB1ENR
 499 0094 43F40013 		orr	r3, r3, #2097152	@ D.7408, D.7408,
 500 0098 2364     		str	r3, [r4, #64]	@ D.7408, MEM[(struct RCC_TypeDef *)1073887232B].APB1ENR
 254:Src/stm32f4xx_hal_msp.c ****   
 255:Src/stm32f4xx_hal_msp.c **** }
 501              		.loc 1 255 0
 502 009a 07B0     		add	sp, sp, #28	@,,
 503              		.cfi_def_cfa_offset 28
 504              		@ sp needed	@
 505 009c BDE8F083 		pop	{r4, r5, r6, r7, r8, r9, pc}	@
 506              	.L9:
 507              		.align	2
 508              	.L8:
 509 00a0 00380240 		.word	1073887232
 510 00a4 00040240 		.word	1073873920
 511 00a8 00080240 		.word	1073874944
 512              		.cfi_endproc
 513              	.LFE125:
 514              		.size	HAL_I2C_MspInit, .-HAL_I2C_MspInit
 515              		.section	.text.HAL_I2C_MspDeInit,"ax",%progbits
 516              		.align	1
 517              		.global	HAL_I2C_MspDeInit
 518              		.thumb
 519              		.thumb_func
 520              		.type	HAL_I2C_MspDeInit, %function
 521              	HAL_I2C_MspDeInit:
 522              	.LFB126:
 256:Src/stm32f4xx_hal_msp.c **** 
 257:Src/stm32f4xx_hal_msp.c **** /**
 258:Src/stm32f4xx_hal_msp.c ****   * @brief I2C MSP De-Initialization 
 259:Src/stm32f4xx_hal_msp.c ****   *        This function frees the hardware resources used in this example:
 260:Src/stm32f4xx_hal_msp.c ****   *          - Disable the Peripheral's clock
ARM GAS  C:\cygwin\tmp\cc9ykJtJ.s 			page 16


 261:Src/stm32f4xx_hal_msp.c ****   *          - Revert GPIO, DMA and NVIC configuration to their default state
 262:Src/stm32f4xx_hal_msp.c ****   * @param hi2c: I2C handle pointer
 263:Src/stm32f4xx_hal_msp.c ****   * @retval None
 264:Src/stm32f4xx_hal_msp.c ****   */
 265:Src/stm32f4xx_hal_msp.c **** void HAL_I2C_MspDeInit(I2C_HandleTypeDef *hi2c){
 523              		.loc 1 265 0
 524              		.cfi_startproc
 525              		@ args = 0, pretend = 0, frame = 0
 526              		@ frame_needed = 0, uses_anonymous_args = 0
 527              	.LVL29:
 266:Src/stm32f4xx_hal_msp.c ****   
 267:Src/stm32f4xx_hal_msp.c ****   /*##-1- Reset peripherals ##################################################*/
 268:Src/stm32f4xx_hal_msp.c ****   I2Cx_FORCE_RESET();
 528              		.loc 1 268 0
 529 0000 0A4B     		ldr	r3, .L11	@ tmp115,
 530 0002 1A6A     		ldr	r2, [r3, #32]	@ D.7411, MEM[(struct RCC_TypeDef *)1073887232B].APB1RSTR
 531 0004 42F40012 		orr	r2, r2, #2097152	@ D.7411, D.7411,
 265:Src/stm32f4xx_hal_msp.c ****   
 532              		.loc 1 265 0
 533 0008 10B5     		push	{r4, lr}	@
 534              		.cfi_def_cfa_offset 8
 535              		.cfi_offset 4, -8
 536              		.cfi_offset 14, -4
 537              		.loc 1 268 0
 538 000a 1A62     		str	r2, [r3, #32]	@ D.7411, MEM[(struct RCC_TypeDef *)1073887232B].APB1RSTR
 269:Src/stm32f4xx_hal_msp.c ****   I2Cx_RELEASE_RESET();
 539              		.loc 1 269 0
 540 000c 1A6A     		ldr	r2, [r3, #32]	@ D.7411, MEM[(struct RCC_TypeDef *)1073887232B].APB1RSTR
 270:Src/stm32f4xx_hal_msp.c **** 
 271:Src/stm32f4xx_hal_msp.c ****   /*##-2- Disable peripherals and GPIO Clocks ################################*/
 272:Src/stm32f4xx_hal_msp.c ****   /* Configure I2C Tx as alternate function  */
 273:Src/stm32f4xx_hal_msp.c ****   HAL_GPIO_DeInit(I2Cx_SCL_GPIO_PORT, I2Cx_SCL_PIN);
 541              		.loc 1 273 0
 542 000e 084C     		ldr	r4, .L11+4	@ tmp119,
 269:Src/stm32f4xx_hal_msp.c ****   I2Cx_RELEASE_RESET();
 543              		.loc 1 269 0
 544 0010 22F40012 		bic	r2, r2, #2097152	@ D.7411, D.7411,
 545              		.loc 1 273 0
 546 0014 2046     		mov	r0, r4	@, tmp119
 547              	.LVL30:
 548 0016 4021     		movs	r1, #64	@,
 269:Src/stm32f4xx_hal_msp.c ****   I2Cx_RELEASE_RESET();
 549              		.loc 1 269 0
 550 0018 1A62     		str	r2, [r3, #32]	@ D.7411, MEM[(struct RCC_TypeDef *)1073887232B].APB1RSTR
 551              		.loc 1 273 0
 552 001a FFF7FEFF 		bl	HAL_GPIO_DeInit	@
 553              	.LVL31:
 274:Src/stm32f4xx_hal_msp.c ****   /* Configure I2C Rx as alternate function  */
 275:Src/stm32f4xx_hal_msp.c ****   HAL_GPIO_DeInit(I2Cx_SDA_GPIO_PORT, I2Cx_SDA_PIN);
 554              		.loc 1 275 0
 555 001e 2046     		mov	r0, r4	@, tmp119
 556 0020 4FF40071 		mov	r1, #512	@,
 276:Src/stm32f4xx_hal_msp.c ****   
 277:Src/stm32f4xx_hal_msp.c **** }
 557              		.loc 1 277 0
 558 0024 BDE81040 		pop	{r4, lr}	@
 559              		.cfi_restore 14
ARM GAS  C:\cygwin\tmp\cc9ykJtJ.s 			page 17


 560              		.cfi_restore 4
 561              		.cfi_def_cfa_offset 0
 275:Src/stm32f4xx_hal_msp.c ****   
 562              		.loc 1 275 0
 563 0028 FFF7FEBF 		b	HAL_GPIO_DeInit	@
 564              	.LVL32:
 565              	.L12:
 566              		.align	2
 567              	.L11:
 568 002c 00380240 		.word	1073887232
 569 0030 00040240 		.word	1073873920
 570              		.cfi_endproc
 571              	.LFE126:
 572              		.size	HAL_I2C_MspDeInit, .-HAL_I2C_MspDeInit
 573              		.section	.text.HAL_SRAM_MspInit,"ax",%progbits
 574              		.align	1
 575              		.global	HAL_SRAM_MspInit
 576              		.thumb
 577              		.thumb_func
 578              		.type	HAL_SRAM_MspInit, %function
 579              	HAL_SRAM_MspInit:
 580              	.LFB127:
 278:Src/stm32f4xx_hal_msp.c **** 
 279:Src/stm32f4xx_hal_msp.c **** 
 280:Src/stm32f4xx_hal_msp.c **** /**
 281:Src/stm32f4xx_hal_msp.c ****   * @brief SRAM init
 282:Src/stm32f4xx_hal_msp.c ****   * param  handle to sram
 283:Src/stm32f4xx_hal_msp.c ****   * retval None
 284:Src/stm32f4xx_hal_msp.c ****   */
 285:Src/stm32f4xx_hal_msp.c **** void HAL_SRAM_MspInit(SRAM_HandleTypeDef * hsram){
 581              		.loc 1 285 0
 582              		.cfi_startproc
 583              		@ args = 0, pretend = 0, frame = 24
 584              		@ frame_needed = 0, uses_anonymous_args = 0
 585              	.LVL33:
 286:Src/stm32f4xx_hal_msp.c **** 	// TODO -> PUT RESET ON GPIO PIN SO WE CAN RESET DISPLAY
 287:Src/stm32f4xx_hal_msp.c **** 	// now reset is on NRST pin on the STM32F4 discovery
 288:Src/stm32f4xx_hal_msp.c **** 	GPIO_InitTypeDef GPIO_InitStructure;
 289:Src/stm32f4xx_hal_msp.c **** 
 290:Src/stm32f4xx_hal_msp.c **** 	// Clock Enable FSMC
 291:Src/stm32f4xx_hal_msp.c **** 	__HAL_RCC_FSMC_CLK_ENABLE();
 586              		.loc 1 291 0
 587 0000 204B     		ldr	r3, .L14	@ tmp119,
 292:Src/stm32f4xx_hal_msp.c **** 
 293:Src/stm32f4xx_hal_msp.c **** 	// Clock Enable Port-D and Port-E
 294:Src/stm32f4xx_hal_msp.c **** 	__HAL_RCC_GPIOD_CLK_ENABLE();
 295:Src/stm32f4xx_hal_msp.c **** 	__HAL_RCC_GPIOE_CLK_ENABLE();
 296:Src/stm32f4xx_hal_msp.c **** 	__HAL_RCC_GPIOB_CLK_ENABLE();
 297:Src/stm32f4xx_hal_msp.c **** 
 298:Src/stm32f4xx_hal_msp.c **** 	//PORTD setup -> alternate function
 299:Src/stm32f4xx_hal_msp.c **** 	// PD0=FSMC_D2->DB2
 300:Src/stm32f4xx_hal_msp.c **** 	// PD1=FSMC_D3->DB3
 301:Src/stm32f4xx_hal_msp.c **** 	// PD4=FSMC_NOE->RD
 302:Src/stm32f4xx_hal_msp.c **** 	// PD5=FSMC_NWE->WR
 303:Src/stm32f4xx_hal_msp.c **** 	// PD7=FSMC_NE1->CS
 304:Src/stm32f4xx_hal_msp.c **** 	// PD8=FSMC_D13->DB15
 305:Src/stm32f4xx_hal_msp.c **** 	// PD9=FSMC_D14->DB16
ARM GAS  C:\cygwin\tmp\cc9ykJtJ.s 			page 18


 306:Src/stm32f4xx_hal_msp.c **** 	// PD10=FSMC_D15->DB17
 307:Src/stm32f4xx_hal_msp.c **** 	// PD11=FSMC_A16->RS
 308:Src/stm32f4xx_hal_msp.c **** 	// PD14=FSMC_D0->DB0
 309:Src/stm32f4xx_hal_msp.c **** 	// PD15=FSMC_D1->DB1
 310:Src/stm32f4xx_hal_msp.c **** 	GPIO_InitStructure.Pin = GPIO_PIN_0 | GPIO_PIN_1 | GPIO_PIN_4 | GPIO_PIN_5 | GPIO_PIN_7 | GPIO_PIN
 311:Src/stm32f4xx_hal_msp.c **** 	GPIO_InitStructure.Mode = GPIO_MODE_AF_PP;
 312:Src/stm32f4xx_hal_msp.c **** 	GPIO_InitStructure.Speed = GPIO_SPEED_HIGH;
 313:Src/stm32f4xx_hal_msp.c **** 	GPIO_InitStructure.Pull = GPIO_NOPULL;
 314:Src/stm32f4xx_hal_msp.c **** 	GPIO_InitStructure.Alternate = GPIO_AF12_FSMC;
 315:Src/stm32f4xx_hal_msp.c **** 	HAL_GPIO_Init(GPIOD, &GPIO_InitStructure);
 588              		.loc 1 315 0
 589 0002 2148     		ldr	r0, .L14+4	@,
 590              	.LVL34:
 291:Src/stm32f4xx_hal_msp.c **** 
 591              		.loc 1 291 0
 592 0004 9A6B     		ldr	r2, [r3, #56]	@ D.7414, MEM[(struct RCC_TypeDef *)1073887232B].AHB3ENR
 593 0006 42F00102 		orr	r2, r2, #1	@ D.7414, D.7414,
 285:Src/stm32f4xx_hal_msp.c **** 	// TODO -> PUT RESET ON GPIO PIN SO WE CAN RESET DISPLAY
 594              		.loc 1 285 0
 595 000a F0B5     		push	{r4, r5, r6, r7, lr}	@
 596              		.cfi_def_cfa_offset 20
 597              		.cfi_offset 4, -20
 598              		.cfi_offset 5, -16
 599              		.cfi_offset 6, -12
 600              		.cfi_offset 7, -8
 601              		.cfi_offset 14, -4
 291:Src/stm32f4xx_hal_msp.c **** 
 602              		.loc 1 291 0
 603 000c 9A63     		str	r2, [r3, #56]	@ D.7414, MEM[(struct RCC_TypeDef *)1073887232B].AHB3ENR
 294:Src/stm32f4xx_hal_msp.c **** 	__HAL_RCC_GPIOE_CLK_ENABLE();
 604              		.loc 1 294 0
 605 000e 1A6B     		ldr	r2, [r3, #48]	@ D.7414, MEM[(struct RCC_TypeDef *)1073887232B].AHB1ENR
 606 0010 42F00802 		orr	r2, r2, #8	@ D.7414, D.7414,
 607 0014 1A63     		str	r2, [r3, #48]	@ D.7414, MEM[(struct RCC_TypeDef *)1073887232B].AHB1ENR
 295:Src/stm32f4xx_hal_msp.c **** 	__HAL_RCC_GPIOB_CLK_ENABLE();
 608              		.loc 1 295 0
 609 0016 1A6B     		ldr	r2, [r3, #48]	@ D.7414, MEM[(struct RCC_TypeDef *)1073887232B].AHB1ENR
 610 0018 42F01002 		orr	r2, r2, #16	@ D.7414, D.7414,
 611 001c 1A63     		str	r2, [r3, #48]	@ D.7414, MEM[(struct RCC_TypeDef *)1073887232B].AHB1ENR
 296:Src/stm32f4xx_hal_msp.c **** 
 612              		.loc 1 296 0
 613 001e 1A6B     		ldr	r2, [r3, #48]	@ D.7414, MEM[(struct RCC_TypeDef *)1073887232B].AHB1ENR
 285:Src/stm32f4xx_hal_msp.c **** 	// TODO -> PUT RESET ON GPIO PIN SO WE CAN RESET DISPLAY
 614              		.loc 1 285 0
 615 0020 87B0     		sub	sp, sp, #28	@,,
 616              		.cfi_def_cfa_offset 48
 296:Src/stm32f4xx_hal_msp.c **** 
 617              		.loc 1 296 0
 618 0022 42F00202 		orr	r2, r2, #2	@ D.7414, D.7414,
 619 0026 1A63     		str	r2, [r3, #48]	@ D.7414, MEM[(struct RCC_TypeDef *)1073887232B].AHB1ENR
 311:Src/stm32f4xx_hal_msp.c **** 	GPIO_InitStructure.Speed = GPIO_SPEED_HIGH;
 620              		.loc 1 311 0
 621 0028 0224     		movs	r4, #2	@ tmp128,
 310:Src/stm32f4xx_hal_msp.c **** 	GPIO_InitStructure.Mode = GPIO_MODE_AF_PP;
 622              		.loc 1 310 0
 623 002a 4CF6B373 		movw	r3, #53171	@ tmp127,
 312:Src/stm32f4xx_hal_msp.c **** 	GPIO_InitStructure.Pull = GPIO_NOPULL;
ARM GAS  C:\cygwin\tmp\cc9ykJtJ.s 			page 19


 624              		.loc 1 312 0
 625 002e 0327     		movs	r7, #3	@ tmp129,
 313:Src/stm32f4xx_hal_msp.c **** 	GPIO_InitStructure.Alternate = GPIO_AF12_FSMC;
 626              		.loc 1 313 0
 627 0030 0026     		movs	r6, #0	@ tmp130,
 314:Src/stm32f4xx_hal_msp.c **** 	HAL_GPIO_Init(GPIOD, &GPIO_InitStructure);
 628              		.loc 1 314 0
 629 0032 0C25     		movs	r5, #12	@ tmp131,
 630              		.loc 1 315 0
 631 0034 01A9     		add	r1, sp, #4	@ tmp148,,
 310:Src/stm32f4xx_hal_msp.c **** 	GPIO_InitStructure.Mode = GPIO_MODE_AF_PP;
 632              		.loc 1 310 0
 633 0036 0193     		str	r3, [sp, #4]	@ tmp127, GPIO_InitStructure.Pin
 313:Src/stm32f4xx_hal_msp.c **** 	GPIO_InitStructure.Alternate = GPIO_AF12_FSMC;
 634              		.loc 1 313 0
 635 0038 0396     		str	r6, [sp, #12]	@ tmp130, GPIO_InitStructure.Pull
 314:Src/stm32f4xx_hal_msp.c **** 	HAL_GPIO_Init(GPIOD, &GPIO_InitStructure);
 636              		.loc 1 314 0
 637 003a 0595     		str	r5, [sp, #20]	@ tmp131, GPIO_InitStructure.Alternate
 311:Src/stm32f4xx_hal_msp.c **** 	GPIO_InitStructure.Speed = GPIO_SPEED_HIGH;
 638              		.loc 1 311 0
 639 003c 0294     		str	r4, [sp, #8]	@ tmp128, GPIO_InitStructure.Mode
 312:Src/stm32f4xx_hal_msp.c **** 	GPIO_InitStructure.Pull = GPIO_NOPULL;
 640              		.loc 1 312 0
 641 003e 0497     		str	r7, [sp, #16]	@ tmp129, GPIO_InitStructure.Speed
 642              		.loc 1 315 0
 643 0040 FFF7FEFF 		bl	HAL_GPIO_Init	@
 644              	.LVL35:
 316:Src/stm32f4xx_hal_msp.c **** 
 317:Src/stm32f4xx_hal_msp.c **** 	//PORTE setup -> alternate function
 318:Src/stm32f4xx_hal_msp.c **** 	// PE7=FSMC_D4->DB4
 319:Src/stm32f4xx_hal_msp.c **** 	// PE8=FSMC_D5->DB5
 320:Src/stm32f4xx_hal_msp.c **** 	// PE9=FSMC_D6->DB6
 321:Src/stm32f4xx_hal_msp.c **** 	// PE10=FSMC_D7->DB7
 322:Src/stm32f4xx_hal_msp.c **** 	// PE11=FSMC_D8->DB10
 323:Src/stm32f4xx_hal_msp.c **** 	// PE12=FSMC_D9->DB11
 324:Src/stm32f4xx_hal_msp.c **** 	// PE13=FSMC_D10->DB12
 325:Src/stm32f4xx_hal_msp.c **** 	// PE14=FSMC_D11->DB13
 326:Src/stm32f4xx_hal_msp.c **** 	// PE15=FSMC_D12->DB14
 327:Src/stm32f4xx_hal_msp.c **** 	GPIO_InitStructure.Pin = GPIO_PIN_7 | GPIO_PIN_8 | GPIO_PIN_9 | GPIO_PIN_10 | GPIO_PIN_11 | GPIO_P
 328:Src/stm32f4xx_hal_msp.c **** 	GPIO_InitStructure.Mode = GPIO_MODE_AF_PP;
 329:Src/stm32f4xx_hal_msp.c **** 	GPIO_InitStructure.Speed = GPIO_SPEED_HIGH;
 330:Src/stm32f4xx_hal_msp.c **** 	GPIO_InitStructure.Pull = GPIO_NOPULL;
 645              		.loc 1 330 0
 646 0044 0396     		str	r6, [sp, #12]	@ tmp130, GPIO_InitStructure.Pull
 331:Src/stm32f4xx_hal_msp.c **** 	GPIO_InitStructure.Alternate = GPIO_AF12_FSMC;
 332:Src/stm32f4xx_hal_msp.c **** 	HAL_GPIO_Init(GPIOE, &GPIO_InitStructure);
 333:Src/stm32f4xx_hal_msp.c **** 
 334:Src/stm32f4xx_hal_msp.c **** 	/* Init Reset Pin Display */
 335:Src/stm32f4xx_hal_msp.c **** 	GPIO_InitStructure.Pin = GPIO_PIN_1;
 336:Src/stm32f4xx_hal_msp.c **** 	GPIO_InitStructure.Mode = GPIO_MODE_OUTPUT_PP;
 337:Src/stm32f4xx_hal_msp.c **** 	GPIO_InitStructure.Speed = GPIO_SPEED_FAST;
 338:Src/stm32f4xx_hal_msp.c **** 	GPIO_InitStructure.Pull = GPIO_PULLUP;
 339:Src/stm32f4xx_hal_msp.c **** 	HAL_GPIO_Init(GPIOB, &GPIO_InitStructure);
 647              		.loc 1 339 0
 648 0046 06F18046 		add	r6, r6, #1073741824	@ tmp145, tmp145,
 327:Src/stm32f4xx_hal_msp.c **** 	GPIO_InitStructure.Mode = GPIO_MODE_AF_PP;
ARM GAS  C:\cygwin\tmp\cc9ykJtJ.s 			page 20


 649              		.loc 1 327 0
 650 004a 4FF68073 		movw	r3, #65408	@ tmp134,
 332:Src/stm32f4xx_hal_msp.c **** 
 651              		.loc 1 332 0
 652 004e 01A9     		add	r1, sp, #4	@ tmp149,,
 653              		.loc 1 339 0
 654 0050 06F50136 		add	r6, r6, #132096	@ tmp145, tmp145,
 332:Src/stm32f4xx_hal_msp.c **** 
 655              		.loc 1 332 0
 656 0054 0D48     		ldr	r0, .L14+8	@,
 327:Src/stm32f4xx_hal_msp.c **** 	GPIO_InitStructure.Mode = GPIO_MODE_AF_PP;
 657              		.loc 1 327 0
 658 0056 0193     		str	r3, [sp, #4]	@ tmp134, GPIO_InitStructure.Pin
 331:Src/stm32f4xx_hal_msp.c **** 	GPIO_InitStructure.Alternate = GPIO_AF12_FSMC;
 659              		.loc 1 331 0
 660 0058 0595     		str	r5, [sp, #20]	@ tmp131, GPIO_InitStructure.Alternate
 328:Src/stm32f4xx_hal_msp.c **** 	GPIO_InitStructure.Speed = GPIO_SPEED_HIGH;
 661              		.loc 1 328 0
 662 005a 0294     		str	r4, [sp, #8]	@ tmp128, GPIO_InitStructure.Mode
 336:Src/stm32f4xx_hal_msp.c **** 	GPIO_InitStructure.Speed = GPIO_SPEED_FAST;
 663              		.loc 1 336 0
 664 005c 0125     		movs	r5, #1	@ tmp142,
 329:Src/stm32f4xx_hal_msp.c **** 	GPIO_InitStructure.Pull = GPIO_NOPULL;
 665              		.loc 1 329 0
 666 005e 0497     		str	r7, [sp, #16]	@ tmp129, GPIO_InitStructure.Speed
 332:Src/stm32f4xx_hal_msp.c **** 
 667              		.loc 1 332 0
 668 0060 FFF7FEFF 		bl	HAL_GPIO_Init	@
 669              	.LVL36:
 670              		.loc 1 339 0
 671 0064 3046     		mov	r0, r6	@, tmp145
 672 0066 01A9     		add	r1, sp, #4	@ tmp150,,
 335:Src/stm32f4xx_hal_msp.c **** 	GPIO_InitStructure.Mode = GPIO_MODE_OUTPUT_PP;
 673              		.loc 1 335 0
 674 0068 0194     		str	r4, [sp, #4]	@ tmp128, GPIO_InitStructure.Pin
 336:Src/stm32f4xx_hal_msp.c **** 	GPIO_InitStructure.Speed = GPIO_SPEED_FAST;
 675              		.loc 1 336 0
 676 006a 0295     		str	r5, [sp, #8]	@ tmp142, GPIO_InitStructure.Mode
 337:Src/stm32f4xx_hal_msp.c **** 	GPIO_InitStructure.Pull = GPIO_PULLUP;
 677              		.loc 1 337 0
 678 006c 0494     		str	r4, [sp, #16]	@ tmp128, GPIO_InitStructure.Speed
 338:Src/stm32f4xx_hal_msp.c **** 	HAL_GPIO_Init(GPIOB, &GPIO_InitStructure);
 679              		.loc 1 338 0
 680 006e 0395     		str	r5, [sp, #12]	@ tmp142, GPIO_InitStructure.Pull
 681              		.loc 1 339 0
 682 0070 FFF7FEFF 		bl	HAL_GPIO_Init	@
 683              	.LVL37:
 340:Src/stm32f4xx_hal_msp.c **** 	HAL_GPIO_WritePin(GPIOB, GPIO_PIN_1, GPIO_PIN_SET);
 684              		.loc 1 340 0
 685 0074 3046     		mov	r0, r6	@, tmp145
 686 0076 2146     		mov	r1, r4	@, tmp128
 687 0078 2A46     		mov	r2, r5	@, tmp142
 688 007a FFF7FEFF 		bl	HAL_GPIO_WritePin	@
 689              	.LVL38:
 341:Src/stm32f4xx_hal_msp.c ****  
 342:Src/stm32f4xx_hal_msp.c **** }
 690              		.loc 1 342 0
ARM GAS  C:\cygwin\tmp\cc9ykJtJ.s 			page 21


 691 007e 07B0     		add	sp, sp, #28	@,,
 692              		.cfi_def_cfa_offset 20
 693              		@ sp needed	@
 694 0080 F0BD     		pop	{r4, r5, r6, r7, pc}	@
 695              	.L15:
 696 0082 00BF     		.align	2
 697              	.L14:
 698 0084 00380240 		.word	1073887232
 699 0088 000C0240 		.word	1073875968
 700 008c 00100240 		.word	1073876992
 701              		.cfi_endproc
 702              	.LFE127:
 703              		.size	HAL_SRAM_MspInit, .-HAL_SRAM_MspInit
 704              		.section	.text.HALL_SRAM_MspDeInit,"ax",%progbits
 705              		.align	1
 706              		.global	HALL_SRAM_MspDeInit
 707              		.thumb
 708              		.thumb_func
 709              		.type	HALL_SRAM_MspDeInit, %function
 710              	HALL_SRAM_MspDeInit:
 711              	.LFB128:
 343:Src/stm32f4xx_hal_msp.c **** 		
 344:Src/stm32f4xx_hal_msp.c **** /**
 345:Src/stm32f4xx_hal_msp.c ****   * @brief SRAM deinit
 346:Src/stm32f4xx_hal_msp.c ****   * @param handle to sram
 347:Src/stm32f4xx_hal_msp.c ****   * @retval None
 348:Src/stm32f4xx_hal_msp.c ****   */
 349:Src/stm32f4xx_hal_msp.c **** void HALL_SRAM_MspDeInit(SRAM_HandleTypeDef * hsram){
 712              		.loc 1 349 0
 713              		.cfi_startproc
 714              		@ args = 0, pretend = 0, frame = 0
 715              		@ frame_needed = 0, uses_anonymous_args = 0
 716              	.LVL39:
 717 0000 08B5     		push	{r3, lr}	@
 718              		.cfi_def_cfa_offset 8
 719              		.cfi_offset 3, -8
 720              		.cfi_offset 14, -4
 350:Src/stm32f4xx_hal_msp.c **** 	// Disable peripheral and GPIO
 351:Src/stm32f4xx_hal_msp.c **** 	HAL_GPIO_DeInit(GPIOD, GPIO_PIN_0 | GPIO_PIN_1 | GPIO_PIN_4 | GPIO_PIN_5 | GPIO_PIN_7 | GPIO_PIN_8
 721              		.loc 1 351 0
 722 0002 0648     		ldr	r0, .L17	@,
 723              	.LVL40:
 724 0004 4CF6B371 		movw	r1, #53171	@,
 725 0008 FFF7FEFF 		bl	HAL_GPIO_DeInit	@
 726              	.LVL41:
 352:Src/stm32f4xx_hal_msp.c **** 	HAL_GPIO_DeInit(GPIOE, GPIO_PIN_7 | GPIO_PIN_8 | GPIO_PIN_9 | GPIO_PIN_10 | GPIO_PIN_11 | GPIO_PIN
 727              		.loc 1 352 0
 728 000c 0448     		ldr	r0, .L17+4	@,
 729 000e 4FF68071 		movw	r1, #65408	@,
 353:Src/stm32f4xx_hal_msp.c **** }
 730              		.loc 1 353 0
 731 0012 BDE80840 		pop	{r3, lr}	@
 732              		.cfi_restore 14
 733              		.cfi_restore 3
 734              		.cfi_def_cfa_offset 0
 352:Src/stm32f4xx_hal_msp.c **** 	HAL_GPIO_DeInit(GPIOE, GPIO_PIN_7 | GPIO_PIN_8 | GPIO_PIN_9 | GPIO_PIN_10 | GPIO_PIN_11 | GPIO_PIN
 735              		.loc 1 352 0
ARM GAS  C:\cygwin\tmp\cc9ykJtJ.s 			page 22


 736 0016 FFF7FEBF 		b	HAL_GPIO_DeInit	@
 737              	.LVL42:
 738              	.L18:
 739 001a 00BF     		.align	2
 740              	.L17:
 741 001c 000C0240 		.word	1073875968
 742 0020 00100240 		.word	1073876992
 743              		.cfi_endproc
 744              	.LFE128:
 745              		.size	HALL_SRAM_MspDeInit, .-HALL_SRAM_MspDeInit
 746              		.section	.text.HAL_MspInit,"ax",%progbits
 747              		.align	1
 748              		.global	HAL_MspInit
 749              		.thumb
 750              		.thumb_func
 751              		.type	HAL_MspInit, %function
 752              	HAL_MspInit:
 753              	.LFB129:
 354:Src/stm32f4xx_hal_msp.c **** 
 355:Src/stm32f4xx_hal_msp.c **** 
 356:Src/stm32f4xx_hal_msp.c **** /**
 357:Src/stm32f4xx_hal_msp.c ****   * @brief  Initializes the Global MSP.
 358:Src/stm32f4xx_hal_msp.c ****   * @param  None
 359:Src/stm32f4xx_hal_msp.c ****   * @retval None
 360:Src/stm32f4xx_hal_msp.c ****   */
 361:Src/stm32f4xx_hal_msp.c **** void HAL_MspInit(void)
 362:Src/stm32f4xx_hal_msp.c **** {
 754              		.loc 1 362 0
 755              		.cfi_startproc
 756              		@ args = 0, pretend = 0, frame = 0
 757              		@ frame_needed = 0, uses_anonymous_args = 0
 758              		@ link register save eliminated.
 759 0000 7047     		bx	lr	@
 760              		.cfi_endproc
 761              	.LFE129:
 762              		.size	HAL_MspInit, .-HAL_MspInit
 763              		.section	.text.HAL_MspDeInit,"ax",%progbits
 764              		.align	1
 765              		.global	HAL_MspDeInit
 766              		.thumb
 767              		.thumb_func
 768              		.type	HAL_MspDeInit, %function
 769              	HAL_MspDeInit:
 770              	.LFB130:
 363:Src/stm32f4xx_hal_msp.c ****   /* NOTE : This function is generated automatically by MicroXplorer and eventually  
 364:Src/stm32f4xx_hal_msp.c ****             modified by the user
 365:Src/stm32f4xx_hal_msp.c ****    */ 
 366:Src/stm32f4xx_hal_msp.c **** }
 367:Src/stm32f4xx_hal_msp.c **** 
 368:Src/stm32f4xx_hal_msp.c **** /**
 369:Src/stm32f4xx_hal_msp.c ****   * @brief  DeInitializes the Global MSP.
 370:Src/stm32f4xx_hal_msp.c ****   * @param  None  
 371:Src/stm32f4xx_hal_msp.c ****   * @retval None
 372:Src/stm32f4xx_hal_msp.c ****   */
 373:Src/stm32f4xx_hal_msp.c **** void HAL_MspDeInit(void)
 374:Src/stm32f4xx_hal_msp.c **** {
 771              		.loc 1 374 0
ARM GAS  C:\cygwin\tmp\cc9ykJtJ.s 			page 23


 772              		.cfi_startproc
 773              		@ args = 0, pretend = 0, frame = 0
 774              		@ frame_needed = 0, uses_anonymous_args = 0
 775              		@ link register save eliminated.
 776 0000 7047     		bx	lr	@
 777              		.cfi_endproc
 778              	.LFE130:
 779              		.size	HAL_MspDeInit, .-HAL_MspDeInit
 780              		.section	.bss.hdma_rx.7322,"aw",%nobits
 781              		.align	2
 782              		.set	.LANCHOR3,. + 0
 783              		.type	hdma_rx.7322, %object
 784              		.size	hdma_rx.7322, 80
 785              	hdma_rx.7322:
 786 0000 00000000 		.space	80
 786      00000000 
 786      00000000 
 786      00000000 
 786      00000000 
 787              		.section	.bss.hdma_tx.7315,"aw",%nobits
 788              		.align	2
 789              		.set	.LANCHOR0,. + 0
 790              		.type	hdma_tx.7315, %object
 791              		.size	hdma_tx.7315, 80
 792              	hdma_tx.7315:
 793 0000 00000000 		.space	80
 793      00000000 
 793      00000000 
 793      00000000 
 793      00000000 
 794              		.section	.bss.hdma_tx.7321,"aw",%nobits
 795              		.align	2
 796              		.set	.LANCHOR2,. + 0
 797              		.type	hdma_tx.7321, %object
 798              		.size	hdma_tx.7321, 80
 799              	hdma_tx.7321:
 800 0000 00000000 		.space	80
 800      00000000 
 800      00000000 
 800      00000000 
 800      00000000 
 801              		.section	.bss.hdma_rx.7316,"aw",%nobits
 802              		.align	2
 803              		.set	.LANCHOR1,. + 0
 804              		.type	hdma_rx.7316, %object
 805              		.size	hdma_rx.7316, 80
 806              	hdma_rx.7316:
 807 0000 00000000 		.space	80
 807      00000000 
 807      00000000 
 807      00000000 
 807      00000000 
 808              		.text
 809              	.Letext0:
 810              		.file 2 "../STM32Cube_FW_F4_V1.4.0/Drivers/CMSIS/Device/ST/STM32F4xx/Include/stm32f407xx.h"
 811              		.file 3 "c:\\program files\\gcc-arm-none-eabi-4_9-2014\\arm-none-eabi\\include\\machine\\_default_
 812              		.file 4 "c:\\program files\\gcc-arm-none-eabi-4_9-2014\\arm-none-eabi\\include\\stdint.h"
ARM GAS  C:\cygwin\tmp\cc9ykJtJ.s 			page 24


 813              		.file 5 "../STM32Cube_FW_F4_V1.4.0/Drivers/STM32F4xx_HAL_Driver/Inc/stm32f4xx_hal_def.h"
 814              		.file 6 "../STM32Cube_FW_F4_V1.4.0/Drivers/STM32F4xx_HAL_Driver/Inc/stm32f4xx_hal_gpio.h"
 815              		.file 7 "../STM32Cube_FW_F4_V1.4.0/Drivers/STM32F4xx_HAL_Driver/Inc/stm32f4xx_hal_dma.h"
 816              		.file 8 "../STM32Cube_FW_F4_V1.4.0/Drivers/STM32F4xx_HAL_Driver/Inc/stm32f4xx_ll_fsmc.h"
 817              		.file 9 "../STM32Cube_FW_F4_V1.4.0/Drivers/STM32F4xx_HAL_Driver/Inc/stm32f4xx_hal_sram.h"
 818              		.file 10 "../STM32Cube_FW_F4_V1.4.0/Drivers/STM32F4xx_HAL_Driver/Inc/stm32f4xx_hal_i2c.h"
 819              		.file 11 "../STM32Cube_FW_F4_V1.4.0/Drivers/STM32F4xx_HAL_Driver/Inc/stm32f4xx_hal_uart.h"
 820              		.file 12 "../STM32Cube_FW_F4_V1.4.0/Drivers/STM32F4xx_HAL_Driver/Inc/stm32f4xx_hal_cortex.h"
 821              		.file 13 "../STM32Cube_FW_F4_V1.4.0/Drivers/CMSIS/Include/core_cm4.h"