ARM GAS  C:\cygwin\tmp\ccPgEzdT.s 			page 1


   1              		.syntax unified
   2              		.cpu cortex-m4
   3              		.fpu softvfp
   4              		.eabi_attribute 20, 1	@ Tag_ABI_FP_denormal
   5              		.eabi_attribute 21, 1	@ Tag_ABI_FP_exceptions
   6              		.eabi_attribute 23, 3	@ Tag_ABI_FP_number_model
   7              		.eabi_attribute 24, 1	@ Tag_ABI_align8_needed
   8              		.eabi_attribute 25, 1	@ Tag_ABI_align8_preserved
   9              		.eabi_attribute 26, 1	@ Tag_ABI_enum_size
  10              		.eabi_attribute 30, 4	@ Tag_ABI_optimization_goals
  11              		.eabi_attribute 34, 1	@ Tag_CPU_unaligned_access
  12              		.eabi_attribute 18, 4	@ Tag_ABI_PCS_wchar_t
  13              		.file	"stm32f4xx_ll_fsmc.c"
  14              	@ GNU C (GNU Tools for ARM Embedded Processors) version 4.9.3 20141119 (release) [ARM/embedded-4_9-
  15              	@	compiled by GNU C version 4.7.4, GMP version 4.3.2, MPFR version 2.4.2, MPC version 0.8.1
  16              	@ GGC heuristics: --param ggc-min-expand=100 --param ggc-min-heapsize=131072
  17              	@ options passed:  -I . -I Inc
  18              	@ -I ../STM32Cube_FW_F4_V1.4.0/Drivers/CMSIS/Include
  19              	@ -I ../STM32Cube_FW_F4_V1.4.0/Drivers/CMSIS/Device/ST/STM32F4xx/Include
  20              	@ -I ../STM32Cube_FW_F4_V1.4.0/Drivers/STM32F4xx_HAL_Driver/Inc
  21              	@ -I ../STM32Cube_FW_F4_V1.4.0/Drivers/CMSIS/Include -imultilib armv7e-m
  22              	@ -iprefix c:\program files\gcc-arm-none-eabi-4_9-2014\bin\../lib/gcc/arm-none-eabi/4.9.3/
  23              	@ -isysroot c:\program files\gcc-arm-none-eabi-4_9-2014\bin\../arm-none-eabi
  24              	@ -MD out/stm32f4xx_ll_fsmc.d -MF out/stm32f4xx_ll_fsmc.d -MP
  25              	@ -MQ out/stm32f4xx_ll_fsmc.o -D__USES_INITFINI__ -D USE_HAL_DRIVER
  26              	@ -D STM32F4XX -D HSE_VALUE=8000000 -D __STARTUP_CLEAR_BSS -D STM32F411RE
  27              	@ -D USE_FULL_ASSERT -D __FPU_USED
  28              	@ ../STM32Cube_FW_F4_V1.4.0/Drivers/STM32F4xx_HAL_Driver/Src/stm32f4xx_ll_fsmc.c
  29              	@ -mcpu=cortex-m4 -mthumb -auxbase-strip out/stm32f4xx_ll_fsmc.o -g -ggdb3
  30              	@ -Os -Os -Wall -Wstrict-prototypes -Wextra -std=gnu90 -ffunction-sections
  31              	@ -fdata-sections -fverbose-asm
  32              	@ options enabled:  -faggressive-loop-optimizations -fauto-inc-dec
  33              	@ -fbranch-count-reg -fcaller-saves -fcombine-stack-adjustments -fcommon
  34              	@ -fcompare-elim -fcprop-registers -fcrossjumping -fcse-follow-jumps
  35              	@ -fdata-sections -fdefer-pop -fdelete-null-pointer-checks -fdevirtualize
  36              	@ -fdevirtualize-speculatively -fdwarf2-cfi-asm -fearly-inlining
  37              	@ -feliminate-unused-debug-types -fexpensive-optimizations
  38              	@ -fforward-propagate -ffunction-cse -ffunction-sections -fgcse -fgcse-lm
  39              	@ -fgnu-runtime -fgnu-unique -fguess-branch-probability
  40              	@ -fhoist-adjacent-loads -fident -fif-conversion -fif-conversion2
  41              	@ -findirect-inlining -finline -finline-atomics -finline-functions
  42              	@ -finline-functions-called-once -finline-small-functions -fipa-cp
  43              	@ -fipa-profile -fipa-pure-const -fipa-reference -fipa-sra
  44              	@ -fira-hoist-pressure -fira-share-save-slots -fira-share-spill-slots
  45              	@ -fisolate-erroneous-paths-dereference -fivopts -fkeep-static-consts
  46              	@ -fleading-underscore -fmath-errno -fmerge-constants -fmerge-debug-strings
  47              	@ -fomit-frame-pointer -foptimize-sibling-calls -fpartial-inlining
  48              	@ -fpeephole -fpeephole2 -fprefetch-loop-arrays -freg-struct-return
  49              	@ -freorder-blocks -freorder-functions -frerun-cse-after-loop
  50              	@ -fsched-critical-path-heuristic -fsched-dep-count-heuristic
  51              	@ -fsched-group-heuristic -fsched-interblock -fsched-last-insn-heuristic
  52              	@ -fsched-pressure -fsched-rank-heuristic -fsched-spec
  53              	@ -fsched-spec-insn-heuristic -fsched-stalled-insns-dep -fschedule-insns2
  54              	@ -fsection-anchors -fshow-column -fsigned-zeros -fsplit-ivs-in-unroller
  55              	@ -fsplit-wide-types -fstrict-aliasing -fstrict-overflow
  56              	@ -fstrict-volatile-bitfields -fsync-libcalls -fthread-jumps
  57              	@ -ftoplevel-reorder -ftrapping-math -ftree-bit-ccp -ftree-builtin-call-dce
ARM GAS  C:\cygwin\tmp\ccPgEzdT.s 			page 2


  58              	@ -ftree-ccp -ftree-ch -ftree-coalesce-vars -ftree-copy-prop
  59              	@ -ftree-copyrename -ftree-cselim -ftree-dce -ftree-dominator-opts
  60              	@ -ftree-dse -ftree-forwprop -ftree-fre -ftree-loop-if-convert
  61              	@ -ftree-loop-im -ftree-loop-ivcanon -ftree-loop-optimize
  62              	@ -ftree-parallelize-loops= -ftree-phiprop -ftree-pre -ftree-pta
  63              	@ -ftree-reassoc -ftree-scev-cprop -ftree-sink -ftree-slsr -ftree-sra
  64              	@ -ftree-switch-conversion -ftree-tail-merge -ftree-ter -ftree-vrp
  65              	@ -funit-at-a-time -fvar-tracking -fvar-tracking-assignments -fverbose-asm
  66              	@ -fzero-initialized-in-bss -mlittle-endian -mlra
  67              	@ -mpic-data-is-text-relative -msched-prolog -mthumb -munaligned-access
  68              	@ -mvectorize-with-neon-quad
  69              	
  70              		.text
  71              	.Ltext0:
  72              		.cfi_sections	.debug_frame
  73              		.section	.text.FSMC_NORSRAM_Init,"ax",%progbits
  74              		.align	1
  75              		.global	FSMC_NORSRAM_Init
  76              		.thumb
  77              		.thumb_func
  78              		.type	FSMC_NORSRAM_Init, %function
  79              	FSMC_NORSRAM_Init:
  80              	.LFB123:
  81              		.file 1 "../STM32Cube_FW_F4_V1.4.0/Drivers/STM32F4xx_HAL_Driver/Src/stm32f4xx_ll_fsmc.c"
   1:../STM32Cube_FW_F4_V1.4.0/Drivers/STM32F4xx_HAL_Driver/Src/stm32f4xx_ll_fsmc.c **** /**
   2:../STM32Cube_FW_F4_V1.4.0/Drivers/STM32F4xx_HAL_Driver/Src/stm32f4xx_ll_fsmc.c ****   ******************************************************************************
   3:../STM32Cube_FW_F4_V1.4.0/Drivers/STM32F4xx_HAL_Driver/Src/stm32f4xx_ll_fsmc.c ****   * @file    stm32f4xx_ll_fsmc.c
   4:../STM32Cube_FW_F4_V1.4.0/Drivers/STM32F4xx_HAL_Driver/Src/stm32f4xx_ll_fsmc.c ****   * @author  MCD Application Team
   5:../STM32Cube_FW_F4_V1.4.0/Drivers/STM32F4xx_HAL_Driver/Src/stm32f4xx_ll_fsmc.c ****   * @version V1.2.0
   6:../STM32Cube_FW_F4_V1.4.0/Drivers/STM32F4xx_HAL_Driver/Src/stm32f4xx_ll_fsmc.c ****   * @date    26-December-2014
   7:../STM32Cube_FW_F4_V1.4.0/Drivers/STM32F4xx_HAL_Driver/Src/stm32f4xx_ll_fsmc.c ****   * @brief   FSMC Low Layer HAL module driver.
   8:../STM32Cube_FW_F4_V1.4.0/Drivers/STM32F4xx_HAL_Driver/Src/stm32f4xx_ll_fsmc.c ****   *    
   9:../STM32Cube_FW_F4_V1.4.0/Drivers/STM32F4xx_HAL_Driver/Src/stm32f4xx_ll_fsmc.c ****   *          This file provides firmware functions to manage the following 
  10:../STM32Cube_FW_F4_V1.4.0/Drivers/STM32F4xx_HAL_Driver/Src/stm32f4xx_ll_fsmc.c ****   *          functionalities of the Flexible Static Memory Controller (FSMC) peripheral memories:
  11:../STM32Cube_FW_F4_V1.4.0/Drivers/STM32F4xx_HAL_Driver/Src/stm32f4xx_ll_fsmc.c ****   *           + Initialization/de-initialization functions
  12:../STM32Cube_FW_F4_V1.4.0/Drivers/STM32F4xx_HAL_Driver/Src/stm32f4xx_ll_fsmc.c ****   *           + Peripheral Control functions 
  13:../STM32Cube_FW_F4_V1.4.0/Drivers/STM32F4xx_HAL_Driver/Src/stm32f4xx_ll_fsmc.c ****   *           + Peripheral State functions
  14:../STM32Cube_FW_F4_V1.4.0/Drivers/STM32F4xx_HAL_Driver/Src/stm32f4xx_ll_fsmc.c ****   *         
  15:../STM32Cube_FW_F4_V1.4.0/Drivers/STM32F4xx_HAL_Driver/Src/stm32f4xx_ll_fsmc.c ****   @verbatim
  16:../STM32Cube_FW_F4_V1.4.0/Drivers/STM32F4xx_HAL_Driver/Src/stm32f4xx_ll_fsmc.c ****   ==============================================================================
  17:../STM32Cube_FW_F4_V1.4.0/Drivers/STM32F4xx_HAL_Driver/Src/stm32f4xx_ll_fsmc.c ****                         ##### FSMC peripheral features #####
  18:../STM32Cube_FW_F4_V1.4.0/Drivers/STM32F4xx_HAL_Driver/Src/stm32f4xx_ll_fsmc.c ****   ==============================================================================                  
  19:../STM32Cube_FW_F4_V1.4.0/Drivers/STM32F4xx_HAL_Driver/Src/stm32f4xx_ll_fsmc.c ****     [..] The Flexible static memory controller (FSMC) includes two memory controllers:
  20:../STM32Cube_FW_F4_V1.4.0/Drivers/STM32F4xx_HAL_Driver/Src/stm32f4xx_ll_fsmc.c ****          (+) The NOR/PSRAM memory controller
  21:../STM32Cube_FW_F4_V1.4.0/Drivers/STM32F4xx_HAL_Driver/Src/stm32f4xx_ll_fsmc.c ****          (+) The NAND/PC Card memory controller
  22:../STM32Cube_FW_F4_V1.4.0/Drivers/STM32F4xx_HAL_Driver/Src/stm32f4xx_ll_fsmc.c ****        
  23:../STM32Cube_FW_F4_V1.4.0/Drivers/STM32F4xx_HAL_Driver/Src/stm32f4xx_ll_fsmc.c ****     [..] The FSMC functional block makes the interface with synchronous and asynchronous static
  24:../STM32Cube_FW_F4_V1.4.0/Drivers/STM32F4xx_HAL_Driver/Src/stm32f4xx_ll_fsmc.c ****          memories, SDRAM memories, and 16-bit PC memory cards. Its main purposes are:
  25:../STM32Cube_FW_F4_V1.4.0/Drivers/STM32F4xx_HAL_Driver/Src/stm32f4xx_ll_fsmc.c ****          (+) to translate AHB transactions into the appropriate external device protocol.
  26:../STM32Cube_FW_F4_V1.4.0/Drivers/STM32F4xx_HAL_Driver/Src/stm32f4xx_ll_fsmc.c ****          (+) to meet the access time requirements of the external memory devices.
  27:../STM32Cube_FW_F4_V1.4.0/Drivers/STM32F4xx_HAL_Driver/Src/stm32f4xx_ll_fsmc.c ****    
  28:../STM32Cube_FW_F4_V1.4.0/Drivers/STM32F4xx_HAL_Driver/Src/stm32f4xx_ll_fsmc.c ****     [..] All external memories share the addresses, data and control signals with the controller.
  29:../STM32Cube_FW_F4_V1.4.0/Drivers/STM32F4xx_HAL_Driver/Src/stm32f4xx_ll_fsmc.c ****          Each external device is accessed by means of a unique Chip Select. The FSMC performs
  30:../STM32Cube_FW_F4_V1.4.0/Drivers/STM32F4xx_HAL_Driver/Src/stm32f4xx_ll_fsmc.c ****          only one access at a time to an external device.
  31:../STM32Cube_FW_F4_V1.4.0/Drivers/STM32F4xx_HAL_Driver/Src/stm32f4xx_ll_fsmc.c ****          The main features of the FSMC controller are the following:
  32:../STM32Cube_FW_F4_V1.4.0/Drivers/STM32F4xx_HAL_Driver/Src/stm32f4xx_ll_fsmc.c ****           (+) Interface with static-memory mapped devices including:
  33:../STM32Cube_FW_F4_V1.4.0/Drivers/STM32F4xx_HAL_Driver/Src/stm32f4xx_ll_fsmc.c ****              (++) Static random access memory (SRAM).
ARM GAS  C:\cygwin\tmp\ccPgEzdT.s 			page 3


  34:../STM32Cube_FW_F4_V1.4.0/Drivers/STM32F4xx_HAL_Driver/Src/stm32f4xx_ll_fsmc.c ****              (++) Read-only memory (ROM).
  35:../STM32Cube_FW_F4_V1.4.0/Drivers/STM32F4xx_HAL_Driver/Src/stm32f4xx_ll_fsmc.c ****              (++) NOR Flash memory/OneNAND Flash memory.
  36:../STM32Cube_FW_F4_V1.4.0/Drivers/STM32F4xx_HAL_Driver/Src/stm32f4xx_ll_fsmc.c ****              (++) PSRAM (4 memory banks).
  37:../STM32Cube_FW_F4_V1.4.0/Drivers/STM32F4xx_HAL_Driver/Src/stm32f4xx_ll_fsmc.c ****              (++) 16-bit PC Card compatible devices.
  38:../STM32Cube_FW_F4_V1.4.0/Drivers/STM32F4xx_HAL_Driver/Src/stm32f4xx_ll_fsmc.c ****              (++) Two banks of NAND Flash memory with ECC hardware to check up to 8 Kbytes of
  39:../STM32Cube_FW_F4_V1.4.0/Drivers/STM32F4xx_HAL_Driver/Src/stm32f4xx_ll_fsmc.c ****                   data.
  40:../STM32Cube_FW_F4_V1.4.0/Drivers/STM32F4xx_HAL_Driver/Src/stm32f4xx_ll_fsmc.c ****           (+) Independent Chip Select control for each memory bank.
  41:../STM32Cube_FW_F4_V1.4.0/Drivers/STM32F4xx_HAL_Driver/Src/stm32f4xx_ll_fsmc.c ****           (+) Independent configuration for each memory bank.          
  42:../STM32Cube_FW_F4_V1.4.0/Drivers/STM32F4xx_HAL_Driver/Src/stm32f4xx_ll_fsmc.c ****         
  43:../STM32Cube_FW_F4_V1.4.0/Drivers/STM32F4xx_HAL_Driver/Src/stm32f4xx_ll_fsmc.c ****   @endverbatim
  44:../STM32Cube_FW_F4_V1.4.0/Drivers/STM32F4xx_HAL_Driver/Src/stm32f4xx_ll_fsmc.c ****   ******************************************************************************
  45:../STM32Cube_FW_F4_V1.4.0/Drivers/STM32F4xx_HAL_Driver/Src/stm32f4xx_ll_fsmc.c ****   * @attention
  46:../STM32Cube_FW_F4_V1.4.0/Drivers/STM32F4xx_HAL_Driver/Src/stm32f4xx_ll_fsmc.c ****   *
  47:../STM32Cube_FW_F4_V1.4.0/Drivers/STM32F4xx_HAL_Driver/Src/stm32f4xx_ll_fsmc.c ****   * <h2><center>&copy; COPYRIGHT(c) 2014 STMicroelectronics</center></h2>
  48:../STM32Cube_FW_F4_V1.4.0/Drivers/STM32F4xx_HAL_Driver/Src/stm32f4xx_ll_fsmc.c ****   *
  49:../STM32Cube_FW_F4_V1.4.0/Drivers/STM32F4xx_HAL_Driver/Src/stm32f4xx_ll_fsmc.c ****   * Redistribution and use in source and binary forms, with or without modification,
  50:../STM32Cube_FW_F4_V1.4.0/Drivers/STM32F4xx_HAL_Driver/Src/stm32f4xx_ll_fsmc.c ****   * are permitted provided that the following conditions are met:
  51:../STM32Cube_FW_F4_V1.4.0/Drivers/STM32F4xx_HAL_Driver/Src/stm32f4xx_ll_fsmc.c ****   *   1. Redistributions of source code must retain the above copyright notice,
  52:../STM32Cube_FW_F4_V1.4.0/Drivers/STM32F4xx_HAL_Driver/Src/stm32f4xx_ll_fsmc.c ****   *      this list of conditions and the following disclaimer.
  53:../STM32Cube_FW_F4_V1.4.0/Drivers/STM32F4xx_HAL_Driver/Src/stm32f4xx_ll_fsmc.c ****   *   2. Redistributions in binary form must reproduce the above copyright notice,
  54:../STM32Cube_FW_F4_V1.4.0/Drivers/STM32F4xx_HAL_Driver/Src/stm32f4xx_ll_fsmc.c ****   *      this list of conditions and the following disclaimer in the documentation
  55:../STM32Cube_FW_F4_V1.4.0/Drivers/STM32F4xx_HAL_Driver/Src/stm32f4xx_ll_fsmc.c ****   *      and/or other materials provided with the distribution.
  56:../STM32Cube_FW_F4_V1.4.0/Drivers/STM32F4xx_HAL_Driver/Src/stm32f4xx_ll_fsmc.c ****   *   3. Neither the name of STMicroelectronics nor the names of its contributors
  57:../STM32Cube_FW_F4_V1.4.0/Drivers/STM32F4xx_HAL_Driver/Src/stm32f4xx_ll_fsmc.c ****   *      may be used to endorse or promote products derived from this software
  58:../STM32Cube_FW_F4_V1.4.0/Drivers/STM32F4xx_HAL_Driver/Src/stm32f4xx_ll_fsmc.c ****   *      without specific prior written permission.
  59:../STM32Cube_FW_F4_V1.4.0/Drivers/STM32F4xx_HAL_Driver/Src/stm32f4xx_ll_fsmc.c ****   *
  60:../STM32Cube_FW_F4_V1.4.0/Drivers/STM32F4xx_HAL_Driver/Src/stm32f4xx_ll_fsmc.c ****   * THIS SOFTWARE IS PROVIDED BY THE COPYRIGHT HOLDERS AND CONTRIBUTORS "AS IS"
  61:../STM32Cube_FW_F4_V1.4.0/Drivers/STM32F4xx_HAL_Driver/Src/stm32f4xx_ll_fsmc.c ****   * AND ANY EXPRESS OR IMPLIED WARRANTIES, INCLUDING, BUT NOT LIMITED TO, THE
  62:../STM32Cube_FW_F4_V1.4.0/Drivers/STM32F4xx_HAL_Driver/Src/stm32f4xx_ll_fsmc.c ****   * IMPLIED WARRANTIES OF MERCHANTABILITY AND FITNESS FOR A PARTICULAR PURPOSE ARE
  63:../STM32Cube_FW_F4_V1.4.0/Drivers/STM32F4xx_HAL_Driver/Src/stm32f4xx_ll_fsmc.c ****   * DISCLAIMED. IN NO EVENT SHALL THE COPYRIGHT HOLDER OR CONTRIBUTORS BE LIABLE
  64:../STM32Cube_FW_F4_V1.4.0/Drivers/STM32F4xx_HAL_Driver/Src/stm32f4xx_ll_fsmc.c ****   * FOR ANY DIRECT, INDIRECT, INCIDENTAL, SPECIAL, EXEMPLARY, OR CONSEQUENTIAL
  65:../STM32Cube_FW_F4_V1.4.0/Drivers/STM32F4xx_HAL_Driver/Src/stm32f4xx_ll_fsmc.c ****   * DAMAGES (INCLUDING, BUT NOT LIMITED TO, PROCUREMENT OF SUBSTITUTE GOODS OR
  66:../STM32Cube_FW_F4_V1.4.0/Drivers/STM32F4xx_HAL_Driver/Src/stm32f4xx_ll_fsmc.c ****   * SERVICES; LOSS OF USE, DATA, OR PROFITS; OR BUSINESS INTERRUPTION) HOWEVER
  67:../STM32Cube_FW_F4_V1.4.0/Drivers/STM32F4xx_HAL_Driver/Src/stm32f4xx_ll_fsmc.c ****   * CAUSED AND ON ANY THEORY OF LIABILITY, WHETHER IN CONTRACT, STRICT LIABILITY,
  68:../STM32Cube_FW_F4_V1.4.0/Drivers/STM32F4xx_HAL_Driver/Src/stm32f4xx_ll_fsmc.c ****   * OR TORT (INCLUDING NEGLIGENCE OR OTHERWISE) ARISING IN ANY WAY OUT OF THE USE
  69:../STM32Cube_FW_F4_V1.4.0/Drivers/STM32F4xx_HAL_Driver/Src/stm32f4xx_ll_fsmc.c ****   * OF THIS SOFTWARE, EVEN IF ADVISED OF THE POSSIBILITY OF SUCH DAMAGE.
  70:../STM32Cube_FW_F4_V1.4.0/Drivers/STM32F4xx_HAL_Driver/Src/stm32f4xx_ll_fsmc.c ****   *
  71:../STM32Cube_FW_F4_V1.4.0/Drivers/STM32F4xx_HAL_Driver/Src/stm32f4xx_ll_fsmc.c ****   ******************************************************************************
  72:../STM32Cube_FW_F4_V1.4.0/Drivers/STM32F4xx_HAL_Driver/Src/stm32f4xx_ll_fsmc.c ****   */ 
  73:../STM32Cube_FW_F4_V1.4.0/Drivers/STM32F4xx_HAL_Driver/Src/stm32f4xx_ll_fsmc.c **** 
  74:../STM32Cube_FW_F4_V1.4.0/Drivers/STM32F4xx_HAL_Driver/Src/stm32f4xx_ll_fsmc.c **** /* Includes ------------------------------------------------------------------*/
  75:../STM32Cube_FW_F4_V1.4.0/Drivers/STM32F4xx_HAL_Driver/Src/stm32f4xx_ll_fsmc.c **** #include "stm32f4xx_hal.h"
  76:../STM32Cube_FW_F4_V1.4.0/Drivers/STM32F4xx_HAL_Driver/Src/stm32f4xx_ll_fsmc.c **** 
  77:../STM32Cube_FW_F4_V1.4.0/Drivers/STM32F4xx_HAL_Driver/Src/stm32f4xx_ll_fsmc.c **** /** @addtogroup STM32F4xx_HAL_Driver
  78:../STM32Cube_FW_F4_V1.4.0/Drivers/STM32F4xx_HAL_Driver/Src/stm32f4xx_ll_fsmc.c ****   * @{
  79:../STM32Cube_FW_F4_V1.4.0/Drivers/STM32F4xx_HAL_Driver/Src/stm32f4xx_ll_fsmc.c ****   */
  80:../STM32Cube_FW_F4_V1.4.0/Drivers/STM32F4xx_HAL_Driver/Src/stm32f4xx_ll_fsmc.c **** 
  81:../STM32Cube_FW_F4_V1.4.0/Drivers/STM32F4xx_HAL_Driver/Src/stm32f4xx_ll_fsmc.c **** /** @defgroup FSMC_LL  FSMC Low Layer
  82:../STM32Cube_FW_F4_V1.4.0/Drivers/STM32F4xx_HAL_Driver/Src/stm32f4xx_ll_fsmc.c ****   * @brief FSMC driver modules
  83:../STM32Cube_FW_F4_V1.4.0/Drivers/STM32F4xx_HAL_Driver/Src/stm32f4xx_ll_fsmc.c ****   * @{
  84:../STM32Cube_FW_F4_V1.4.0/Drivers/STM32F4xx_HAL_Driver/Src/stm32f4xx_ll_fsmc.c ****   */
  85:../STM32Cube_FW_F4_V1.4.0/Drivers/STM32F4xx_HAL_Driver/Src/stm32f4xx_ll_fsmc.c **** 
  86:../STM32Cube_FW_F4_V1.4.0/Drivers/STM32F4xx_HAL_Driver/Src/stm32f4xx_ll_fsmc.c **** #if defined (HAL_SRAM_MODULE_ENABLED) || defined(HAL_NOR_MODULE_ENABLED) || defined(HAL_NAND_MODULE
  87:../STM32Cube_FW_F4_V1.4.0/Drivers/STM32F4xx_HAL_Driver/Src/stm32f4xx_ll_fsmc.c **** #if defined(STM32F405xx) || defined(STM32F415xx) || defined(STM32F407xx) || defined(STM32F417xx)
  88:../STM32Cube_FW_F4_V1.4.0/Drivers/STM32F4xx_HAL_Driver/Src/stm32f4xx_ll_fsmc.c **** /* Private typedef -----------------------------------------------------------*/
  89:../STM32Cube_FW_F4_V1.4.0/Drivers/STM32F4xx_HAL_Driver/Src/stm32f4xx_ll_fsmc.c **** /* Private define ------------------------------------------------------------*/
  90:../STM32Cube_FW_F4_V1.4.0/Drivers/STM32F4xx_HAL_Driver/Src/stm32f4xx_ll_fsmc.c **** /* Private macro -------------------------------------------------------------*/    
ARM GAS  C:\cygwin\tmp\ccPgEzdT.s 			page 4


  91:../STM32Cube_FW_F4_V1.4.0/Drivers/STM32F4xx_HAL_Driver/Src/stm32f4xx_ll_fsmc.c **** /* Private variables ---------------------------------------------------------*/
  92:../STM32Cube_FW_F4_V1.4.0/Drivers/STM32F4xx_HAL_Driver/Src/stm32f4xx_ll_fsmc.c **** /* Private function prototypes -----------------------------------------------*/
  93:../STM32Cube_FW_F4_V1.4.0/Drivers/STM32F4xx_HAL_Driver/Src/stm32f4xx_ll_fsmc.c **** /* Private functions ---------------------------------------------------------*/
  94:../STM32Cube_FW_F4_V1.4.0/Drivers/STM32F4xx_HAL_Driver/Src/stm32f4xx_ll_fsmc.c **** /** @addtogroup FSMC_LL_Private_Functions
  95:../STM32Cube_FW_F4_V1.4.0/Drivers/STM32F4xx_HAL_Driver/Src/stm32f4xx_ll_fsmc.c ****   * @{
  96:../STM32Cube_FW_F4_V1.4.0/Drivers/STM32F4xx_HAL_Driver/Src/stm32f4xx_ll_fsmc.c ****   */
  97:../STM32Cube_FW_F4_V1.4.0/Drivers/STM32F4xx_HAL_Driver/Src/stm32f4xx_ll_fsmc.c **** 
  98:../STM32Cube_FW_F4_V1.4.0/Drivers/STM32F4xx_HAL_Driver/Src/stm32f4xx_ll_fsmc.c **** /** @addtogroup FSMC_LL_NORSRAM
  99:../STM32Cube_FW_F4_V1.4.0/Drivers/STM32F4xx_HAL_Driver/Src/stm32f4xx_ll_fsmc.c ****   * @brief    NORSRAM Controller functions 
 100:../STM32Cube_FW_F4_V1.4.0/Drivers/STM32F4xx_HAL_Driver/Src/stm32f4xx_ll_fsmc.c ****   *
 101:../STM32Cube_FW_F4_V1.4.0/Drivers/STM32F4xx_HAL_Driver/Src/stm32f4xx_ll_fsmc.c ****   @verbatim 
 102:../STM32Cube_FW_F4_V1.4.0/Drivers/STM32F4xx_HAL_Driver/Src/stm32f4xx_ll_fsmc.c ****   ==============================================================================   
 103:../STM32Cube_FW_F4_V1.4.0/Drivers/STM32F4xx_HAL_Driver/Src/stm32f4xx_ll_fsmc.c ****                    ##### How to use NORSRAM device driver #####
 104:../STM32Cube_FW_F4_V1.4.0/Drivers/STM32F4xx_HAL_Driver/Src/stm32f4xx_ll_fsmc.c ****   ==============================================================================
 105:../STM32Cube_FW_F4_V1.4.0/Drivers/STM32F4xx_HAL_Driver/Src/stm32f4xx_ll_fsmc.c ****  
 106:../STM32Cube_FW_F4_V1.4.0/Drivers/STM32F4xx_HAL_Driver/Src/stm32f4xx_ll_fsmc.c ****   [..] 
 107:../STM32Cube_FW_F4_V1.4.0/Drivers/STM32F4xx_HAL_Driver/Src/stm32f4xx_ll_fsmc.c ****     This driver contains a set of APIs to interface with the FSMC NORSRAM banks in order
 108:../STM32Cube_FW_F4_V1.4.0/Drivers/STM32F4xx_HAL_Driver/Src/stm32f4xx_ll_fsmc.c ****     to run the NORSRAM external devices.
 109:../STM32Cube_FW_F4_V1.4.0/Drivers/STM32F4xx_HAL_Driver/Src/stm32f4xx_ll_fsmc.c ****       
 110:../STM32Cube_FW_F4_V1.4.0/Drivers/STM32F4xx_HAL_Driver/Src/stm32f4xx_ll_fsmc.c ****     (+) FSMC NORSRAM bank reset using the function FSMC_NORSRAM_DeInit() 
 111:../STM32Cube_FW_F4_V1.4.0/Drivers/STM32F4xx_HAL_Driver/Src/stm32f4xx_ll_fsmc.c ****     (+) FSMC NORSRAM bank control configuration using the function FSMC_NORSRAM_Init()
 112:../STM32Cube_FW_F4_V1.4.0/Drivers/STM32F4xx_HAL_Driver/Src/stm32f4xx_ll_fsmc.c ****     (+) FSMC NORSRAM bank timing configuration using the function FSMC_NORSRAM_Timing_Init()
 113:../STM32Cube_FW_F4_V1.4.0/Drivers/STM32F4xx_HAL_Driver/Src/stm32f4xx_ll_fsmc.c ****     (+) FSMC NORSRAM bank extended timing configuration using the function 
 114:../STM32Cube_FW_F4_V1.4.0/Drivers/STM32F4xx_HAL_Driver/Src/stm32f4xx_ll_fsmc.c ****         FSMC_NORSRAM_Extended_Timing_Init()
 115:../STM32Cube_FW_F4_V1.4.0/Drivers/STM32F4xx_HAL_Driver/Src/stm32f4xx_ll_fsmc.c ****     (+) FSMC NORSRAM bank enable/disable write operation using the functions
 116:../STM32Cube_FW_F4_V1.4.0/Drivers/STM32F4xx_HAL_Driver/Src/stm32f4xx_ll_fsmc.c ****         FSMC_NORSRAM_WriteOperation_Enable()/FSMC_NORSRAM_WriteOperation_Disable()
 117:../STM32Cube_FW_F4_V1.4.0/Drivers/STM32F4xx_HAL_Driver/Src/stm32f4xx_ll_fsmc.c **** 
 118:../STM32Cube_FW_F4_V1.4.0/Drivers/STM32F4xx_HAL_Driver/Src/stm32f4xx_ll_fsmc.c **** @endverbatim
 119:../STM32Cube_FW_F4_V1.4.0/Drivers/STM32F4xx_HAL_Driver/Src/stm32f4xx_ll_fsmc.c ****   * @{
 120:../STM32Cube_FW_F4_V1.4.0/Drivers/STM32F4xx_HAL_Driver/Src/stm32f4xx_ll_fsmc.c ****   */
 121:../STM32Cube_FW_F4_V1.4.0/Drivers/STM32F4xx_HAL_Driver/Src/stm32f4xx_ll_fsmc.c ****        
 122:../STM32Cube_FW_F4_V1.4.0/Drivers/STM32F4xx_HAL_Driver/Src/stm32f4xx_ll_fsmc.c **** /** @addtogroup FSMC_LL_NORSRAM_Private_Functions_Group1
 123:../STM32Cube_FW_F4_V1.4.0/Drivers/STM32F4xx_HAL_Driver/Src/stm32f4xx_ll_fsmc.c ****   * @brief    Initialization and Configuration functions 
 124:../STM32Cube_FW_F4_V1.4.0/Drivers/STM32F4xx_HAL_Driver/Src/stm32f4xx_ll_fsmc.c ****   *
 125:../STM32Cube_FW_F4_V1.4.0/Drivers/STM32F4xx_HAL_Driver/Src/stm32f4xx_ll_fsmc.c ****   @verbatim    
 126:../STM32Cube_FW_F4_V1.4.0/Drivers/STM32F4xx_HAL_Driver/Src/stm32f4xx_ll_fsmc.c ****   ==============================================================================
 127:../STM32Cube_FW_F4_V1.4.0/Drivers/STM32F4xx_HAL_Driver/Src/stm32f4xx_ll_fsmc.c ****               ##### Initialization and de_initialization functions #####
 128:../STM32Cube_FW_F4_V1.4.0/Drivers/STM32F4xx_HAL_Driver/Src/stm32f4xx_ll_fsmc.c ****   ==============================================================================
 129:../STM32Cube_FW_F4_V1.4.0/Drivers/STM32F4xx_HAL_Driver/Src/stm32f4xx_ll_fsmc.c ****   [..]  
 130:../STM32Cube_FW_F4_V1.4.0/Drivers/STM32F4xx_HAL_Driver/Src/stm32f4xx_ll_fsmc.c ****     This section provides functions allowing to:
 131:../STM32Cube_FW_F4_V1.4.0/Drivers/STM32F4xx_HAL_Driver/Src/stm32f4xx_ll_fsmc.c ****     (+) Initialize and configure the FSMC NORSRAM interface
 132:../STM32Cube_FW_F4_V1.4.0/Drivers/STM32F4xx_HAL_Driver/Src/stm32f4xx_ll_fsmc.c ****     (+) De-initialize the FSMC NORSRAM interface 
 133:../STM32Cube_FW_F4_V1.4.0/Drivers/STM32F4xx_HAL_Driver/Src/stm32f4xx_ll_fsmc.c ****     (+) Configure the FSMC clock and associated GPIOs    
 134:../STM32Cube_FW_F4_V1.4.0/Drivers/STM32F4xx_HAL_Driver/Src/stm32f4xx_ll_fsmc.c ****  
 135:../STM32Cube_FW_F4_V1.4.0/Drivers/STM32F4xx_HAL_Driver/Src/stm32f4xx_ll_fsmc.c **** @endverbatim
 136:../STM32Cube_FW_F4_V1.4.0/Drivers/STM32F4xx_HAL_Driver/Src/stm32f4xx_ll_fsmc.c ****   * @{
 137:../STM32Cube_FW_F4_V1.4.0/Drivers/STM32F4xx_HAL_Driver/Src/stm32f4xx_ll_fsmc.c ****   */
 138:../STM32Cube_FW_F4_V1.4.0/Drivers/STM32F4xx_HAL_Driver/Src/stm32f4xx_ll_fsmc.c ****   
 139:../STM32Cube_FW_F4_V1.4.0/Drivers/STM32F4xx_HAL_Driver/Src/stm32f4xx_ll_fsmc.c **** /**
 140:../STM32Cube_FW_F4_V1.4.0/Drivers/STM32F4xx_HAL_Driver/Src/stm32f4xx_ll_fsmc.c ****   * @brief  Initialize the FSMC_NORSRAM device according to the specified
 141:../STM32Cube_FW_F4_V1.4.0/Drivers/STM32F4xx_HAL_Driver/Src/stm32f4xx_ll_fsmc.c ****   *         control parameters in the FSMC_NORSRAM_InitTypeDef
 142:../STM32Cube_FW_F4_V1.4.0/Drivers/STM32F4xx_HAL_Driver/Src/stm32f4xx_ll_fsmc.c ****   * @param  Device: Pointer to NORSRAM device instance
 143:../STM32Cube_FW_F4_V1.4.0/Drivers/STM32F4xx_HAL_Driver/Src/stm32f4xx_ll_fsmc.c ****   * @param  Init: Pointer to NORSRAM Initialization structure   
 144:../STM32Cube_FW_F4_V1.4.0/Drivers/STM32F4xx_HAL_Driver/Src/stm32f4xx_ll_fsmc.c ****   * @retval HAL status
 145:../STM32Cube_FW_F4_V1.4.0/Drivers/STM32F4xx_HAL_Driver/Src/stm32f4xx_ll_fsmc.c ****   */
 146:../STM32Cube_FW_F4_V1.4.0/Drivers/STM32F4xx_HAL_Driver/Src/stm32f4xx_ll_fsmc.c **** HAL_StatusTypeDef  FSMC_NORSRAM_Init(FSMC_NORSRAM_TypeDef *Device, FSMC_NORSRAM_InitTypeDef* Init)
 147:../STM32Cube_FW_F4_V1.4.0/Drivers/STM32F4xx_HAL_Driver/Src/stm32f4xx_ll_fsmc.c **** { 
ARM GAS  C:\cygwin\tmp\ccPgEzdT.s 			page 5


  82              		.loc 1 147 0
  83              		.cfi_startproc
  84              		@ args = 0, pretend = 0, frame = 0
  85              		@ frame_needed = 0, uses_anonymous_args = 0
  86              	.LVL0:
 148:../STM32Cube_FW_F4_V1.4.0/Drivers/STM32F4xx_HAL_Driver/Src/stm32f4xx_ll_fsmc.c ****   uint32_t tmpr = 0;
 149:../STM32Cube_FW_F4_V1.4.0/Drivers/STM32F4xx_HAL_Driver/Src/stm32f4xx_ll_fsmc.c ****     
 150:../STM32Cube_FW_F4_V1.4.0/Drivers/STM32F4xx_HAL_Driver/Src/stm32f4xx_ll_fsmc.c ****   /* Check the parameters */
 151:../STM32Cube_FW_F4_V1.4.0/Drivers/STM32F4xx_HAL_Driver/Src/stm32f4xx_ll_fsmc.c ****   assert_param(IS_FSMC_NORSRAM_BANK(Init->NSBank));
  87              		.loc 1 151 0
  88 0000 0B68     		ldr	r3, [r1]	@ Init_16(D)->NSBank, Init_16(D)->NSBank
  89 0002 33F00603 		bics	r3, r3, #6	@ tmp231, Init_16(D)->NSBank,
 147:../STM32Cube_FW_F4_V1.4.0/Drivers/STM32F4xx_HAL_Driver/Src/stm32f4xx_ll_fsmc.c ****   uint32_t tmpr = 0;
  90              		.loc 1 147 0
  91 0006 70B5     		push	{r4, r5, r6, lr}	@
  92              		.cfi_def_cfa_offset 16
  93              		.cfi_offset 4, -16
  94              		.cfi_offset 5, -12
  95              		.cfi_offset 6, -8
  96              		.cfi_offset 14, -4
 147:../STM32Cube_FW_F4_V1.4.0/Drivers/STM32F4xx_HAL_Driver/Src/stm32f4xx_ll_fsmc.c ****   uint32_t tmpr = 0;
  97              		.loc 1 147 0
  98 0008 0546     		mov	r5, r0	@ Device, Device
  99 000a 0C46     		mov	r4, r1	@ Init, Init
 100              		.loc 1 151 0
 101 000c 03D0     		beq	.L2	@,
 102              		.loc 1 151 0 is_stmt 0 discriminator 4
 103 000e 4748     		ldr	r0, .L62	@,
 104              	.LVL1:
 105 0010 9721     		movs	r1, #151	@,
 106              	.LVL2:
 107 0012 FFF7FEFF 		bl	assert_failed	@
 108              	.LVL3:
 109              	.L2:
 152:../STM32Cube_FW_F4_V1.4.0/Drivers/STM32F4xx_HAL_Driver/Src/stm32f4xx_ll_fsmc.c ****   assert_param(IS_FSMC_MUX(Init->DataAddressMux));
 110              		.loc 1 152 0 is_stmt 1
 111 0016 6368     		ldr	r3, [r4, #4]	@ Init_16(D)->DataAddressMux, Init_16(D)->DataAddressMux
 112 0018 33F00203 		bics	r3, r3, #2	@ tmp232, Init_16(D)->DataAddressMux,
 113 001c 03D0     		beq	.L3	@,
 114              		.loc 1 152 0 is_stmt 0 discriminator 2
 115 001e 4348     		ldr	r0, .L62	@,
 116 0020 9821     		movs	r1, #152	@,
 117 0022 FFF7FEFF 		bl	assert_failed	@
 118              	.LVL4:
 119              	.L3:
 153:../STM32Cube_FW_F4_V1.4.0/Drivers/STM32F4xx_HAL_Driver/Src/stm32f4xx_ll_fsmc.c ****   assert_param(IS_FSMC_MEMORY(Init->MemoryType));
 120              		.loc 1 153 0 is_stmt 1
 121 0026 A368     		ldr	r3, [r4, #8]	@ D.7959, Init_16(D)->MemoryType
 122 0028 33F00402 		bics	r2, r3, #4	@ tmp233, D.7959,
 123 002c 05D0     		beq	.L4	@,
 124              		.loc 1 153 0 is_stmt 0 discriminator 2
 125 002e 082B     		cmp	r3, #8	@ D.7959,
 126 0030 03D0     		beq	.L4	@,
 127              		.loc 1 153 0 discriminator 3
 128 0032 3E48     		ldr	r0, .L62	@,
 129 0034 9921     		movs	r1, #153	@,
 130 0036 FFF7FEFF 		bl	assert_failed	@
ARM GAS  C:\cygwin\tmp\ccPgEzdT.s 			page 6


 131              	.LVL5:
 132              	.L4:
 154:../STM32Cube_FW_F4_V1.4.0/Drivers/STM32F4xx_HAL_Driver/Src/stm32f4xx_ll_fsmc.c ****   assert_param(IS_FSMC_NORSRAM_MEMORY_WIDTH(Init->MemoryDataWidth));
 133              		.loc 1 154 0 is_stmt 1
 134 003a E368     		ldr	r3, [r4, #12]	@ D.7959, Init_16(D)->MemoryDataWidth
 135 003c 33F01002 		bics	r2, r3, #16	@ tmp234, D.7959,
 136 0040 05D0     		beq	.L5	@,
 137              		.loc 1 154 0 is_stmt 0 discriminator 2
 138 0042 202B     		cmp	r3, #32	@ D.7959,
 139 0044 03D0     		beq	.L5	@,
 140              		.loc 1 154 0 discriminator 3
 141 0046 3948     		ldr	r0, .L62	@,
 142 0048 9A21     		movs	r1, #154	@,
 143 004a FFF7FEFF 		bl	assert_failed	@
 144              	.LVL6:
 145              	.L5:
 155:../STM32Cube_FW_F4_V1.4.0/Drivers/STM32F4xx_HAL_Driver/Src/stm32f4xx_ll_fsmc.c ****   assert_param(IS_FSMC_BURSTMODE(Init->BurstAccessMode));
 146              		.loc 1 155 0 is_stmt 1
 147 004e 2369     		ldr	r3, [r4, #16]	@ Init_16(D)->BurstAccessMode, Init_16(D)->BurstAccessMode
 148 0050 33F48073 		bics	r3, r3, #256	@ tmp235, Init_16(D)->BurstAccessMode,
 149 0054 03D0     		beq	.L6	@,
 150              		.loc 1 155 0 is_stmt 0 discriminator 2
 151 0056 3548     		ldr	r0, .L62	@,
 152 0058 9B21     		movs	r1, #155	@,
 153 005a FFF7FEFF 		bl	assert_failed	@
 154              	.LVL7:
 155              	.L6:
 156:../STM32Cube_FW_F4_V1.4.0/Drivers/STM32F4xx_HAL_Driver/Src/stm32f4xx_ll_fsmc.c ****   assert_param(IS_FSMC_WAIT_POLARITY(Init->WaitSignalPolarity));
 156              		.loc 1 156 0 is_stmt 1
 157 005e 6369     		ldr	r3, [r4, #20]	@ Init_16(D)->WaitSignalPolarity, Init_16(D)->WaitSignalPolarity
 158 0060 33F40073 		bics	r3, r3, #512	@ tmp236, Init_16(D)->WaitSignalPolarity,
 159 0064 03D0     		beq	.L7	@,
 160              		.loc 1 156 0 is_stmt 0 discriminator 2
 161 0066 3148     		ldr	r0, .L62	@,
 162 0068 9C21     		movs	r1, #156	@,
 163 006a FFF7FEFF 		bl	assert_failed	@
 164              	.LVL8:
 165              	.L7:
 157:../STM32Cube_FW_F4_V1.4.0/Drivers/STM32F4xx_HAL_Driver/Src/stm32f4xx_ll_fsmc.c ****   assert_param(IS_FSMC_WRAP_MODE(Init->WrapMode));
 166              		.loc 1 157 0 is_stmt 1
 167 006e A369     		ldr	r3, [r4, #24]	@ Init_16(D)->WrapMode, Init_16(D)->WrapMode
 168 0070 33F48063 		bics	r3, r3, #1024	@ tmp237, Init_16(D)->WrapMode,
 169 0074 03D0     		beq	.L8	@,
 170              		.loc 1 157 0 is_stmt 0 discriminator 2
 171 0076 2D48     		ldr	r0, .L62	@,
 172 0078 9D21     		movs	r1, #157	@,
 173 007a FFF7FEFF 		bl	assert_failed	@
 174              	.LVL9:
 175              	.L8:
 158:../STM32Cube_FW_F4_V1.4.0/Drivers/STM32F4xx_HAL_Driver/Src/stm32f4xx_ll_fsmc.c ****   assert_param(IS_FSMC_WAIT_SIGNAL_ACTIVE(Init->WaitSignalActive));
 176              		.loc 1 158 0 is_stmt 1
 177 007e E369     		ldr	r3, [r4, #28]	@ Init_16(D)->WaitSignalActive, Init_16(D)->WaitSignalActive
 178 0080 33F40063 		bics	r3, r3, #2048	@ tmp238, Init_16(D)->WaitSignalActive,
 179 0084 03D0     		beq	.L9	@,
 180              		.loc 1 158 0 is_stmt 0 discriminator 2
 181 0086 2948     		ldr	r0, .L62	@,
 182 0088 9E21     		movs	r1, #158	@,
ARM GAS  C:\cygwin\tmp\ccPgEzdT.s 			page 7


 183 008a FFF7FEFF 		bl	assert_failed	@
 184              	.LVL10:
 185              	.L9:
 159:../STM32Cube_FW_F4_V1.4.0/Drivers/STM32F4xx_HAL_Driver/Src/stm32f4xx_ll_fsmc.c ****   assert_param(IS_FSMC_WRITE_OPERATION(Init->WriteOperation));
 186              		.loc 1 159 0 is_stmt 1
 187 008e 236A     		ldr	r3, [r4, #32]	@ Init_16(D)->WriteOperation, Init_16(D)->WriteOperation
 188 0090 33F48053 		bics	r3, r3, #4096	@ tmp239, Init_16(D)->WriteOperation,
 189 0094 03D0     		beq	.L10	@,
 190              		.loc 1 159 0 is_stmt 0 discriminator 2
 191 0096 2548     		ldr	r0, .L62	@,
 192 0098 9F21     		movs	r1, #159	@,
 193 009a FFF7FEFF 		bl	assert_failed	@
 194              	.LVL11:
 195              	.L10:
 160:../STM32Cube_FW_F4_V1.4.0/Drivers/STM32F4xx_HAL_Driver/Src/stm32f4xx_ll_fsmc.c ****   assert_param(IS_FSMC_WAITE_SIGNAL(Init->WaitSignal));
 196              		.loc 1 160 0 is_stmt 1
 197 009e 636A     		ldr	r3, [r4, #36]	@ Init_16(D)->WaitSignal, Init_16(D)->WaitSignal
 198 00a0 33F40053 		bics	r3, r3, #8192	@ tmp240, Init_16(D)->WaitSignal,
 199 00a4 03D0     		beq	.L11	@,
 200              		.loc 1 160 0 is_stmt 0 discriminator 2
 201 00a6 2148     		ldr	r0, .L62	@,
 202 00a8 A021     		movs	r1, #160	@,
 203 00aa FFF7FEFF 		bl	assert_failed	@
 204              	.LVL12:
 205              	.L11:
 161:../STM32Cube_FW_F4_V1.4.0/Drivers/STM32F4xx_HAL_Driver/Src/stm32f4xx_ll_fsmc.c ****   assert_param(IS_FSMC_EXTENDED_MODE(Init->ExtendedMode));
 206              		.loc 1 161 0 is_stmt 1
 207 00ae A36A     		ldr	r3, [r4, #40]	@ Init_16(D)->ExtendedMode, Init_16(D)->ExtendedMode
 208 00b0 33F48043 		bics	r3, r3, #16384	@ tmp241, Init_16(D)->ExtendedMode,
 209 00b4 03D0     		beq	.L12	@,
 210              		.loc 1 161 0 is_stmt 0 discriminator 2
 211 00b6 1D48     		ldr	r0, .L62	@,
 212 00b8 A121     		movs	r1, #161	@,
 213 00ba FFF7FEFF 		bl	assert_failed	@
 214              	.LVL13:
 215              	.L12:
 162:../STM32Cube_FW_F4_V1.4.0/Drivers/STM32F4xx_HAL_Driver/Src/stm32f4xx_ll_fsmc.c ****   assert_param(IS_FSMC_ASYNWAIT(Init->AsynchronousWait));
 216              		.loc 1 162 0 is_stmt 1
 217 00be E36A     		ldr	r3, [r4, #44]	@ Init_16(D)->AsynchronousWait, Init_16(D)->AsynchronousWait
 218 00c0 33F40043 		bics	r3, r3, #32768	@ tmp242, Init_16(D)->AsynchronousWait,
 219 00c4 03D0     		beq	.L13	@,
 220              		.loc 1 162 0 is_stmt 0 discriminator 2
 221 00c6 1948     		ldr	r0, .L62	@,
 222 00c8 A221     		movs	r1, #162	@,
 223 00ca FFF7FEFF 		bl	assert_failed	@
 224              	.LVL14:
 225              	.L13:
 163:../STM32Cube_FW_F4_V1.4.0/Drivers/STM32F4xx_HAL_Driver/Src/stm32f4xx_ll_fsmc.c ****   assert_param(IS_FSMC_WRITE_BURST(Init->WriteBurst));
 226              		.loc 1 163 0 is_stmt 1
 227 00ce 236B     		ldr	r3, [r4, #48]	@ Init_16(D)->WriteBurst, Init_16(D)->WriteBurst
 228 00d0 33F40023 		bics	r3, r3, #524288	@ tmp243, Init_16(D)->WriteBurst,
 229 00d4 03D0     		beq	.L14	@,
 230              		.loc 1 163 0 is_stmt 0 discriminator 2
 231 00d6 1548     		ldr	r0, .L62	@,
 232 00d8 A321     		movs	r1, #163	@,
 233 00da FFF7FEFF 		bl	assert_failed	@
 234              	.LVL15:
ARM GAS  C:\cygwin\tmp\ccPgEzdT.s 			page 8


 235              	.L14:
 236 00de 2068     		ldr	r0, [r4]	@ Init_16(D)->NSBank, Init_16(D)->NSBank
 164:../STM32Cube_FW_F4_V1.4.0/Drivers/STM32F4xx_HAL_Driver/Src/stm32f4xx_ll_fsmc.c ****   
 165:../STM32Cube_FW_F4_V1.4.0/Drivers/STM32F4xx_HAL_Driver/Src/stm32f4xx_ll_fsmc.c ****   /* Get the BTCR register value */
 166:../STM32Cube_FW_F4_V1.4.0/Drivers/STM32F4xx_HAL_Driver/Src/stm32f4xx_ll_fsmc.c ****   tmpr = Device->BTCR[Init->NSBank];
 167:../STM32Cube_FW_F4_V1.4.0/Drivers/STM32F4xx_HAL_Driver/Src/stm32f4xx_ll_fsmc.c **** 
 168:../STM32Cube_FW_F4_V1.4.0/Drivers/STM32F4xx_HAL_Driver/Src/stm32f4xx_ll_fsmc.c ****   /* Clear MBKEN, MUXEN, MTYP, MWID, FACCEN, BURSTEN, WAITPOL, WRAPMOD, WAITCFG, WREN,
 169:../STM32Cube_FW_F4_V1.4.0/Drivers/STM32F4xx_HAL_Driver/Src/stm32f4xx_ll_fsmc.c ****            WAITEN, EXTMOD, ASYNCWAIT, CBURSTRW and CCLKEN bits */
 170:../STM32Cube_FW_F4_V1.4.0/Drivers/STM32F4xx_HAL_Driver/Src/stm32f4xx_ll_fsmc.c ****   tmpr &= ((uint32_t)~(FSMC_BCR1_MBKEN     | FSMC_BCR1_MUXEN    | FSMC_BCR1_MTYP     | \
 237              		.loc 1 170 0 is_stmt 1
 238 00e0 134A     		ldr	r2, .L62+4	@ tmpr,
 166:../STM32Cube_FW_F4_V1.4.0/Drivers/STM32F4xx_HAL_Driver/Src/stm32f4xx_ll_fsmc.c **** 
 239              		.loc 1 166 0
 240 00e2 55F82030 		ldr	r3, [r5, r0, lsl #2]	@ tmpr, MEM[(struct FSMC_Bank1_TypeDef *)_152]
 241              	.LVL16:
 171:../STM32Cube_FW_F4_V1.4.0/Drivers/STM32F4xx_HAL_Driver/Src/stm32f4xx_ll_fsmc.c ****                        FSMC_BCR1_MWID      | FSMC_BCR1_FACCEN   | FSMC_BCR1_BURSTEN  | \
 172:../STM32Cube_FW_F4_V1.4.0/Drivers/STM32F4xx_HAL_Driver/Src/stm32f4xx_ll_fsmc.c ****                        FSMC_BCR1_WAITPOL   | FSMC_BCR1_WRAPMOD  | FSMC_BCR1_WAITCFG  | \
 173:../STM32Cube_FW_F4_V1.4.0/Drivers/STM32F4xx_HAL_Driver/Src/stm32f4xx_ll_fsmc.c ****                        FSMC_BCR1_WREN      | FSMC_BCR1_WAITEN   | FSMC_BCR1_EXTMOD   | \
 174:../STM32Cube_FW_F4_V1.4.0/Drivers/STM32F4xx_HAL_Driver/Src/stm32f4xx_ll_fsmc.c ****                        FSMC_BCR1_ASYNCWAIT | FSMC_BCR1_CBURSTRW));
 175:../STM32Cube_FW_F4_V1.4.0/Drivers/STM32F4xx_HAL_Driver/Src/stm32f4xx_ll_fsmc.c ****   /* Set NORSRAM device control parameters */
 176:../STM32Cube_FW_F4_V1.4.0/Drivers/STM32F4xx_HAL_Driver/Src/stm32f4xx_ll_fsmc.c ****   tmpr |= (uint32_t)(Init->DataAddressMux       |\
 177:../STM32Cube_FW_F4_V1.4.0/Drivers/STM32F4xx_HAL_Driver/Src/stm32f4xx_ll_fsmc.c ****                      Init->MemoryType           |\
 242              		.loc 1 177 0
 243 00e6 A668     		ldr	r6, [r4, #8]	@ D.7959, Init_16(D)->MemoryType
 170:../STM32Cube_FW_F4_V1.4.0/Drivers/STM32F4xx_HAL_Driver/Src/stm32f4xx_ll_fsmc.c ****                        FSMC_BCR1_MWID      | FSMC_BCR1_FACCEN   | FSMC_BCR1_BURSTEN  | \
 244              		.loc 1 170 0
 245 00e8 1A40     		ands	r2, r2, r3	@, tmpr, tmpr, tmpr
 246              	.LVL17:
 176:../STM32Cube_FW_F4_V1.4.0/Drivers/STM32F4xx_HAL_Driver/Src/stm32f4xx_ll_fsmc.c ****                      Init->MemoryType           |\
 247              		.loc 1 176 0
 248 00ea 6368     		ldr	r3, [r4, #4]	@ Init_16(D)->DataAddressMux, Init_16(D)->DataAddressMux
 249 00ec 46EA0301 		orr	r1, r6, r3	@ D.7959, D.7959, Init_16(D)->DataAddressMux
 250              		.loc 1 177 0
 251 00f0 E368     		ldr	r3, [r4, #12]	@ Init_16(D)->MemoryDataWidth, Init_16(D)->MemoryDataWidth
 252 00f2 1943     		orrs	r1, r1, r3	@, D.7959, D.7959, Init_16(D)->MemoryDataWidth
 178:../STM32Cube_FW_F4_V1.4.0/Drivers/STM32F4xx_HAL_Driver/Src/stm32f4xx_ll_fsmc.c ****                      Init->MemoryDataWidth      |\
 253              		.loc 1 178 0
 254 00f4 2369     		ldr	r3, [r4, #16]	@ Init_16(D)->BurstAccessMode, Init_16(D)->BurstAccessMode
 255 00f6 1943     		orrs	r1, r1, r3	@, D.7959, D.7959, Init_16(D)->BurstAccessMode
 179:../STM32Cube_FW_F4_V1.4.0/Drivers/STM32F4xx_HAL_Driver/Src/stm32f4xx_ll_fsmc.c ****                      Init->BurstAccessMode      |\
 256              		.loc 1 179 0
 257 00f8 6369     		ldr	r3, [r4, #20]	@ Init_16(D)->WaitSignalPolarity, Init_16(D)->WaitSignalPolarity
 258 00fa 1943     		orrs	r1, r1, r3	@, D.7959, D.7959, Init_16(D)->WaitSignalPolarity
 180:../STM32Cube_FW_F4_V1.4.0/Drivers/STM32F4xx_HAL_Driver/Src/stm32f4xx_ll_fsmc.c ****                      Init->WaitSignalPolarity   |\
 259              		.loc 1 180 0
 260 00fc A369     		ldr	r3, [r4, #24]	@ Init_16(D)->WrapMode, Init_16(D)->WrapMode
 261 00fe 1943     		orrs	r1, r1, r3	@, D.7959, D.7959, Init_16(D)->WrapMode
 181:../STM32Cube_FW_F4_V1.4.0/Drivers/STM32F4xx_HAL_Driver/Src/stm32f4xx_ll_fsmc.c ****                      Init->WrapMode             |\
 262              		.loc 1 181 0
 263 0100 E369     		ldr	r3, [r4, #28]	@ Init_16(D)->WaitSignalActive, Init_16(D)->WaitSignalActive
 264 0102 1943     		orrs	r1, r1, r3	@, D.7959, D.7959, Init_16(D)->WaitSignalActive
 182:../STM32Cube_FW_F4_V1.4.0/Drivers/STM32F4xx_HAL_Driver/Src/stm32f4xx_ll_fsmc.c ****                      Init->WaitSignalActive     |\
 265              		.loc 1 182 0
 266 0104 236A     		ldr	r3, [r4, #32]	@ Init_16(D)->WriteOperation, Init_16(D)->WriteOperation
 267 0106 1943     		orrs	r1, r1, r3	@, D.7959, D.7959, Init_16(D)->WriteOperation
 183:../STM32Cube_FW_F4_V1.4.0/Drivers/STM32F4xx_HAL_Driver/Src/stm32f4xx_ll_fsmc.c ****                      Init->WriteOperation       |\
 268              		.loc 1 183 0
ARM GAS  C:\cygwin\tmp\ccPgEzdT.s 			page 9


 269 0108 636A     		ldr	r3, [r4, #36]	@ Init_16(D)->WaitSignal, Init_16(D)->WaitSignal
 270 010a 1943     		orrs	r1, r1, r3	@, D.7959, D.7959, Init_16(D)->WaitSignal
 184:../STM32Cube_FW_F4_V1.4.0/Drivers/STM32F4xx_HAL_Driver/Src/stm32f4xx_ll_fsmc.c ****                      Init->WaitSignal           |\
 271              		.loc 1 184 0
 272 010c A36A     		ldr	r3, [r4, #40]	@ Init_16(D)->ExtendedMode, Init_16(D)->ExtendedMode
 273 010e 1943     		orrs	r1, r1, r3	@, D.7959, D.7959, Init_16(D)->ExtendedMode
 185:../STM32Cube_FW_F4_V1.4.0/Drivers/STM32F4xx_HAL_Driver/Src/stm32f4xx_ll_fsmc.c ****                      Init->ExtendedMode         |\
 274              		.loc 1 185 0
 275 0110 E36A     		ldr	r3, [r4, #44]	@ Init_16(D)->AsynchronousWait, Init_16(D)->AsynchronousWait
 276 0112 0B43     		orrs	r3, r3, r1	@, D.7959, Init_16(D)->AsynchronousWait, D.7959
 176:../STM32Cube_FW_F4_V1.4.0/Drivers/STM32F4xx_HAL_Driver/Src/stm32f4xx_ll_fsmc.c ****                      Init->MemoryType           |\
 277              		.loc 1 176 0
 278 0114 216B     		ldr	r1, [r4, #48]	@ Init_16(D)->WriteBurst, Init_16(D)->WriteBurst
 279 0116 0B43     		orrs	r3, r3, r1	@, D.7959, D.7959, Init_16(D)->WriteBurst
 280 0118 1343     		orrs	r3, r3, r2	@, tmpr, D.7959, tmpr
 281              	.LVL18:
 186:../STM32Cube_FW_F4_V1.4.0/Drivers/STM32F4xx_HAL_Driver/Src/stm32f4xx_ll_fsmc.c ****                      Init->AsynchronousWait     |\
 187:../STM32Cube_FW_F4_V1.4.0/Drivers/STM32F4xx_HAL_Driver/Src/stm32f4xx_ll_fsmc.c ****                      Init->WriteBurst
 188:../STM32Cube_FW_F4_V1.4.0/Drivers/STM32F4xx_HAL_Driver/Src/stm32f4xx_ll_fsmc.c ****                      );
 189:../STM32Cube_FW_F4_V1.4.0/Drivers/STM32F4xx_HAL_Driver/Src/stm32f4xx_ll_fsmc.c ****                     
 190:../STM32Cube_FW_F4_V1.4.0/Drivers/STM32F4xx_HAL_Driver/Src/stm32f4xx_ll_fsmc.c ****   if(Init->MemoryType == FSMC_MEMORY_TYPE_NOR)
 282              		.loc 1 190 0
 283 011a 082E     		cmp	r6, #8	@ D.7959,
 191:../STM32Cube_FW_F4_V1.4.0/Drivers/STM32F4xx_HAL_Driver/Src/stm32f4xx_ll_fsmc.c ****   {
 192:../STM32Cube_FW_F4_V1.4.0/Drivers/STM32F4xx_HAL_Driver/Src/stm32f4xx_ll_fsmc.c ****     tmpr |= (uint32_t)FSMC_NORSRAM_FLASH_ACCESS_ENABLE;
 284              		.loc 1 192 0
 285 011c 08BF     		it	eq
 286 011e 43F04003 		orreq	r3, r3, #64	@ tmpr, tmpr,
 287              	.LVL19:
 193:../STM32Cube_FW_F4_V1.4.0/Drivers/STM32F4xx_HAL_Driver/Src/stm32f4xx_ll_fsmc.c ****   }
 194:../STM32Cube_FW_F4_V1.4.0/Drivers/STM32F4xx_HAL_Driver/Src/stm32f4xx_ll_fsmc.c ****   
 195:../STM32Cube_FW_F4_V1.4.0/Drivers/STM32F4xx_HAL_Driver/Src/stm32f4xx_ll_fsmc.c ****   Device->BTCR[Init->NSBank] = tmpr;                   
 288              		.loc 1 195 0
 289 0122 45F82030 		str	r3, [r5, r0, lsl #2]	@ tmpr, MEM[(struct FSMC_Bank1_TypeDef *)_152]
 196:../STM32Cube_FW_F4_V1.4.0/Drivers/STM32F4xx_HAL_Driver/Src/stm32f4xx_ll_fsmc.c ****   
 197:../STM32Cube_FW_F4_V1.4.0/Drivers/STM32F4xx_HAL_Driver/Src/stm32f4xx_ll_fsmc.c ****   return HAL_OK;
 198:../STM32Cube_FW_F4_V1.4.0/Drivers/STM32F4xx_HAL_Driver/Src/stm32f4xx_ll_fsmc.c **** }
 290              		.loc 1 198 0
 291 0126 0020     		movs	r0, #0	@,
 292 0128 70BD     		pop	{r4, r5, r6, pc}	@
 293              	.LVL20:
 294              	.L63:
 295 012a 00BF     		.align	2
 296              	.L62:
 297 012c 00000000 		.word	.LC0
 298 0130 8000F7FF 		.word	-589696
 299              		.cfi_endproc
 300              	.LFE123:
 301              		.size	FSMC_NORSRAM_Init, .-FSMC_NORSRAM_Init
 302              		.section	.text.FSMC_NORSRAM_DeInit,"ax",%progbits
 303              		.align	1
 304              		.global	FSMC_NORSRAM_DeInit
 305              		.thumb
 306              		.thumb_func
 307              		.type	FSMC_NORSRAM_DeInit, %function
 308              	FSMC_NORSRAM_DeInit:
 309              	.LFB124:
ARM GAS  C:\cygwin\tmp\ccPgEzdT.s 			page 10


 199:../STM32Cube_FW_F4_V1.4.0/Drivers/STM32F4xx_HAL_Driver/Src/stm32f4xx_ll_fsmc.c **** 
 200:../STM32Cube_FW_F4_V1.4.0/Drivers/STM32F4xx_HAL_Driver/Src/stm32f4xx_ll_fsmc.c **** /**
 201:../STM32Cube_FW_F4_V1.4.0/Drivers/STM32F4xx_HAL_Driver/Src/stm32f4xx_ll_fsmc.c ****   * @brief  DeInitialize the FSMC_NORSRAM peripheral 
 202:../STM32Cube_FW_F4_V1.4.0/Drivers/STM32F4xx_HAL_Driver/Src/stm32f4xx_ll_fsmc.c ****   * @param  Device: Pointer to NORSRAM device instance
 203:../STM32Cube_FW_F4_V1.4.0/Drivers/STM32F4xx_HAL_Driver/Src/stm32f4xx_ll_fsmc.c ****   * @param  ExDevice: Pointer to NORSRAM extended mode device instance  
 204:../STM32Cube_FW_F4_V1.4.0/Drivers/STM32F4xx_HAL_Driver/Src/stm32f4xx_ll_fsmc.c ****   * @param  Bank: NORSRAM bank number  
 205:../STM32Cube_FW_F4_V1.4.0/Drivers/STM32F4xx_HAL_Driver/Src/stm32f4xx_ll_fsmc.c ****   * @retval HAL status
 206:../STM32Cube_FW_F4_V1.4.0/Drivers/STM32F4xx_HAL_Driver/Src/stm32f4xx_ll_fsmc.c ****   */
 207:../STM32Cube_FW_F4_V1.4.0/Drivers/STM32F4xx_HAL_Driver/Src/stm32f4xx_ll_fsmc.c **** HAL_StatusTypeDef FSMC_NORSRAM_DeInit(FSMC_NORSRAM_TypeDef *Device, FSMC_NORSRAM_EXTENDED_TypeDef *
 208:../STM32Cube_FW_F4_V1.4.0/Drivers/STM32F4xx_HAL_Driver/Src/stm32f4xx_ll_fsmc.c **** {
 310              		.loc 1 208 0
 311              		.cfi_startproc
 312              		@ args = 0, pretend = 0, frame = 0
 313              		@ frame_needed = 0, uses_anonymous_args = 0
 314              	.LVL21:
 209:../STM32Cube_FW_F4_V1.4.0/Drivers/STM32F4xx_HAL_Driver/Src/stm32f4xx_ll_fsmc.c ****   /* Check the parameters */
 210:../STM32Cube_FW_F4_V1.4.0/Drivers/STM32F4xx_HAL_Driver/Src/stm32f4xx_ll_fsmc.c ****   assert_param(IS_FSMC_NORSRAM_DEVICE(Device));
 315              		.loc 1 210 0
 316 0000 B0F1204F 		cmp	r0, #-1610612736	@ Device,
 208:../STM32Cube_FW_F4_V1.4.0/Drivers/STM32F4xx_HAL_Driver/Src/stm32f4xx_ll_fsmc.c ****   /* Check the parameters */
 317              		.loc 1 208 0
 318 0004 70B5     		push	{r4, r5, r6, lr}	@
 319              		.cfi_def_cfa_offset 16
 320              		.cfi_offset 4, -16
 321              		.cfi_offset 5, -12
 322              		.cfi_offset 6, -8
 323              		.cfi_offset 14, -4
 208:../STM32Cube_FW_F4_V1.4.0/Drivers/STM32F4xx_HAL_Driver/Src/stm32f4xx_ll_fsmc.c ****   /* Check the parameters */
 324              		.loc 1 208 0
 325 0006 0546     		mov	r5, r0	@ Device, Device
 326 0008 0E46     		mov	r6, r1	@ ExDevice, ExDevice
 327 000a 1446     		mov	r4, r2	@ Bank, Bank
 328              		.loc 1 210 0
 329 000c 03D0     		beq	.L65	@,
 330              		.loc 1 210 0 is_stmt 0 discriminator 1
 331 000e 1148     		ldr	r0, .L72	@,
 332              	.LVL22:
 333 0010 D221     		movs	r1, #210	@,
 334              	.LVL23:
 335 0012 FFF7FEFF 		bl	assert_failed	@
 336              	.LVL24:
 337              	.L65:
 211:../STM32Cube_FW_F4_V1.4.0/Drivers/STM32F4xx_HAL_Driver/Src/stm32f4xx_ll_fsmc.c ****   assert_param(IS_FSMC_NORSRAM_EXTENDED_DEVICE(ExDevice));
 338              		.loc 1 211 0 is_stmt 1
 339 0016 104B     		ldr	r3, .L72+4	@ tmp119,
 340 0018 9E42     		cmp	r6, r3	@ ExDevice, tmp119
 341 001a 03D0     		beq	.L66	@,
 342              		.loc 1 211 0 is_stmt 0 discriminator 1
 343 001c 0D48     		ldr	r0, .L72	@,
 344 001e D321     		movs	r1, #211	@,
 345 0020 FFF7FEFF 		bl	assert_failed	@
 346              	.LVL25:
 347              	.L66:
 212:../STM32Cube_FW_F4_V1.4.0/Drivers/STM32F4xx_HAL_Driver/Src/stm32f4xx_ll_fsmc.c **** 
 213:../STM32Cube_FW_F4_V1.4.0/Drivers/STM32F4xx_HAL_Driver/Src/stm32f4xx_ll_fsmc.c ****   /* Disable the FSMC_NORSRAM device */
 214:../STM32Cube_FW_F4_V1.4.0/Drivers/STM32F4xx_HAL_Driver/Src/stm32f4xx_ll_fsmc.c ****   __FSMC_NORSRAM_DISABLE(Device, Bank);
 348              		.loc 1 214 0 is_stmt 1
ARM GAS  C:\cygwin\tmp\ccPgEzdT.s 			page 11


 349 0024 55F82430 		ldr	r3, [r5, r4, lsl #2]	@ D.7965, MEM[(struct FSMC_Bank1_TypeDef *)_25]
 350 0028 23F00103 		bic	r3, r3, #1	@ D.7965, D.7965,
 351 002c 05EB8402 		add	r2, r5, r4, lsl #2	@, D.7967, Device, Bank,
 352 0030 45F82430 		str	r3, [r5, r4, lsl #2]	@ D.7965, MEM[(struct FSMC_Bank1_TypeDef *)_25]
 215:../STM32Cube_FW_F4_V1.4.0/Drivers/STM32F4xx_HAL_Driver/Src/stm32f4xx_ll_fsmc.c ****   
 216:../STM32Cube_FW_F4_V1.4.0/Drivers/STM32F4xx_HAL_Driver/Src/stm32f4xx_ll_fsmc.c ****   /* De-initialize the FSMC_NORSRAM device */
 217:../STM32Cube_FW_F4_V1.4.0/Drivers/STM32F4xx_HAL_Driver/Src/stm32f4xx_ll_fsmc.c ****   /* FSMC_NORSRAM_BANK1 */
 218:../STM32Cube_FW_F4_V1.4.0/Drivers/STM32F4xx_HAL_Driver/Src/stm32f4xx_ll_fsmc.c ****   if(Bank == FSMC_NORSRAM_BANK1)
 353              		.loc 1 218 0
 354 0034 1CB9     		cbnz	r4, .L67	@ Bank,
 219:../STM32Cube_FW_F4_V1.4.0/Drivers/STM32F4xx_HAL_Driver/Src/stm32f4xx_ll_fsmc.c ****   {
 220:../STM32Cube_FW_F4_V1.4.0/Drivers/STM32F4xx_HAL_Driver/Src/stm32f4xx_ll_fsmc.c ****     Device->BTCR[Bank] = 0x000030DB;    
 355              		.loc 1 220 0
 356 0036 43F2DB03 		movw	r3, #12507	@ tmp122,
 357 003a 2B60     		str	r3, [r5]	@ tmp122, Device_4(D)->BTCR
 358 003c 03E0     		b	.L68	@
 359              	.L67:
 221:../STM32Cube_FW_F4_V1.4.0/Drivers/STM32F4xx_HAL_Driver/Src/stm32f4xx_ll_fsmc.c ****   }
 222:../STM32Cube_FW_F4_V1.4.0/Drivers/STM32F4xx_HAL_Driver/Src/stm32f4xx_ll_fsmc.c ****   /* FSMC_NORSRAM_BANK2, FSMC_NORSRAM_BANK3 or FSMC_NORSRAM_BANK4 */
 223:../STM32Cube_FW_F4_V1.4.0/Drivers/STM32F4xx_HAL_Driver/Src/stm32f4xx_ll_fsmc.c ****   else
 224:../STM32Cube_FW_F4_V1.4.0/Drivers/STM32F4xx_HAL_Driver/Src/stm32f4xx_ll_fsmc.c ****   {   
 225:../STM32Cube_FW_F4_V1.4.0/Drivers/STM32F4xx_HAL_Driver/Src/stm32f4xx_ll_fsmc.c ****     Device->BTCR[Bank] = 0x000030D2; 
 360              		.loc 1 225 0
 361 003e 43F2D203 		movw	r3, #12498	@ tmp123,
 362 0042 45F82430 		str	r3, [r5, r4, lsl #2]	@ tmp123, MEM[(struct FSMC_Bank1_TypeDef *)_25]
 363              	.L68:
 226:../STM32Cube_FW_F4_V1.4.0/Drivers/STM32F4xx_HAL_Driver/Src/stm32f4xx_ll_fsmc.c ****   }
 227:../STM32Cube_FW_F4_V1.4.0/Drivers/STM32F4xx_HAL_Driver/Src/stm32f4xx_ll_fsmc.c ****   
 228:../STM32Cube_FW_F4_V1.4.0/Drivers/STM32F4xx_HAL_Driver/Src/stm32f4xx_ll_fsmc.c ****   Device->BTCR[Bank + 1] = 0x0FFFFFFF;
 364              		.loc 1 228 0
 365 0046 6FF07043 		mvn	r3, #-268435456	@ tmp124,
 366 004a 5360     		str	r3, [r2, #4]	@ tmp124, MEM[(struct FSMC_Bank1_TypeDef *)_25 + 4B]
 229:../STM32Cube_FW_F4_V1.4.0/Drivers/STM32F4xx_HAL_Driver/Src/stm32f4xx_ll_fsmc.c ****   ExDevice->BWTR[Bank]   = 0x0FFFFFFF;
 230:../STM32Cube_FW_F4_V1.4.0/Drivers/STM32F4xx_HAL_Driver/Src/stm32f4xx_ll_fsmc.c ****    
 231:../STM32Cube_FW_F4_V1.4.0/Drivers/STM32F4xx_HAL_Driver/Src/stm32f4xx_ll_fsmc.c ****   return HAL_OK;
 232:../STM32Cube_FW_F4_V1.4.0/Drivers/STM32F4xx_HAL_Driver/Src/stm32f4xx_ll_fsmc.c **** }
 367              		.loc 1 232 0
 368 004c 0020     		movs	r0, #0	@,
 229:../STM32Cube_FW_F4_V1.4.0/Drivers/STM32F4xx_HAL_Driver/Src/stm32f4xx_ll_fsmc.c ****   ExDevice->BWTR[Bank]   = 0x0FFFFFFF;
 369              		.loc 1 229 0
 370 004e 46F82430 		str	r3, [r6, r4, lsl #2]	@ tmp124, ExDevice_7(D)->BWTR
 371              		.loc 1 232 0
 372 0052 70BD     		pop	{r4, r5, r6, pc}	@
 373              	.LVL26:
 374              	.L73:
 375              		.align	2
 376              	.L72:
 377 0054 00000000 		.word	.LC0
 378 0058 040100A0 		.word	-1610612476
 379              		.cfi_endproc
 380              	.LFE124:
 381              		.size	FSMC_NORSRAM_DeInit, .-FSMC_NORSRAM_DeInit
 382              		.section	.text.FSMC_NORSRAM_Timing_Init,"ax",%progbits
 383              		.align	1
 384              		.global	FSMC_NORSRAM_Timing_Init
 385              		.thumb
 386              		.thumb_func
ARM GAS  C:\cygwin\tmp\ccPgEzdT.s 			page 12


 387              		.type	FSMC_NORSRAM_Timing_Init, %function
 388              	FSMC_NORSRAM_Timing_Init:
 389              	.LFB125:
 233:../STM32Cube_FW_F4_V1.4.0/Drivers/STM32F4xx_HAL_Driver/Src/stm32f4xx_ll_fsmc.c **** 
 234:../STM32Cube_FW_F4_V1.4.0/Drivers/STM32F4xx_HAL_Driver/Src/stm32f4xx_ll_fsmc.c **** 
 235:../STM32Cube_FW_F4_V1.4.0/Drivers/STM32F4xx_HAL_Driver/Src/stm32f4xx_ll_fsmc.c **** /**
 236:../STM32Cube_FW_F4_V1.4.0/Drivers/STM32F4xx_HAL_Driver/Src/stm32f4xx_ll_fsmc.c ****   * @brief  Initialize the FSMC_NORSRAM Timing according to the specified
 237:../STM32Cube_FW_F4_V1.4.0/Drivers/STM32F4xx_HAL_Driver/Src/stm32f4xx_ll_fsmc.c ****   *         parameters in the FSMC_NORSRAM_TimingTypeDef
 238:../STM32Cube_FW_F4_V1.4.0/Drivers/STM32F4xx_HAL_Driver/Src/stm32f4xx_ll_fsmc.c ****   * @param  Device: Pointer to NORSRAM device instance
 239:../STM32Cube_FW_F4_V1.4.0/Drivers/STM32F4xx_HAL_Driver/Src/stm32f4xx_ll_fsmc.c ****   * @param  Timing: Pointer to NORSRAM Timing structure
 240:../STM32Cube_FW_F4_V1.4.0/Drivers/STM32F4xx_HAL_Driver/Src/stm32f4xx_ll_fsmc.c ****   * @param  Bank: NORSRAM bank number  
 241:../STM32Cube_FW_F4_V1.4.0/Drivers/STM32F4xx_HAL_Driver/Src/stm32f4xx_ll_fsmc.c ****   * @retval HAL status
 242:../STM32Cube_FW_F4_V1.4.0/Drivers/STM32F4xx_HAL_Driver/Src/stm32f4xx_ll_fsmc.c ****   */
 243:../STM32Cube_FW_F4_V1.4.0/Drivers/STM32F4xx_HAL_Driver/Src/stm32f4xx_ll_fsmc.c **** HAL_StatusTypeDef FSMC_NORSRAM_Timing_Init(FSMC_NORSRAM_TypeDef *Device, FSMC_NORSRAM_TimingTypeDef
 244:../STM32Cube_FW_F4_V1.4.0/Drivers/STM32F4xx_HAL_Driver/Src/stm32f4xx_ll_fsmc.c **** {
 390              		.loc 1 244 0
 391              		.cfi_startproc
 392              		@ args = 0, pretend = 0, frame = 0
 393              		@ frame_needed = 0, uses_anonymous_args = 0
 394              	.LVL27:
 245:../STM32Cube_FW_F4_V1.4.0/Drivers/STM32F4xx_HAL_Driver/Src/stm32f4xx_ll_fsmc.c ****   uint32_t tmpr = 0;
 246:../STM32Cube_FW_F4_V1.4.0/Drivers/STM32F4xx_HAL_Driver/Src/stm32f4xx_ll_fsmc.c ****   
 247:../STM32Cube_FW_F4_V1.4.0/Drivers/STM32F4xx_HAL_Driver/Src/stm32f4xx_ll_fsmc.c ****   /* Check the parameters */
 248:../STM32Cube_FW_F4_V1.4.0/Drivers/STM32F4xx_HAL_Driver/Src/stm32f4xx_ll_fsmc.c ****   assert_param(IS_FSMC_ADDRESS_SETUP_TIME(Timing->AddressSetupTime));
 395              		.loc 1 248 0
 396 0000 0B68     		ldr	r3, [r1]	@ Timing_9(D)->AddressSetupTime, Timing_9(D)->AddressSetupTime
 397 0002 0F2B     		cmp	r3, #15	@ Timing_9(D)->AddressSetupTime,
 244:../STM32Cube_FW_F4_V1.4.0/Drivers/STM32F4xx_HAL_Driver/Src/stm32f4xx_ll_fsmc.c ****   uint32_t tmpr = 0;
 398              		.loc 1 244 0
 399 0004 70B5     		push	{r4, r5, r6, lr}	@
 400              		.cfi_def_cfa_offset 16
 401              		.cfi_offset 4, -16
 402              		.cfi_offset 5, -12
 403              		.cfi_offset 6, -8
 404              		.cfi_offset 14, -4
 244:../STM32Cube_FW_F4_V1.4.0/Drivers/STM32F4xx_HAL_Driver/Src/stm32f4xx_ll_fsmc.c ****   uint32_t tmpr = 0;
 405              		.loc 1 244 0
 406 0006 0546     		mov	r5, r0	@ Device, Device
 407 0008 0C46     		mov	r4, r1	@ Timing, Timing
 408 000a 1646     		mov	r6, r2	@ Bank, Bank
 409              		.loc 1 248 0
 410 000c 03D9     		bls	.L75	@,
 411              		.loc 1 248 0 is_stmt 0 discriminator 1
 412 000e 2848     		ldr	r0, .L85	@,
 413              	.LVL28:
 414 0010 F821     		movs	r1, #248	@,
 415              	.LVL29:
 416 0012 FFF7FEFF 		bl	assert_failed	@
 417              	.LVL30:
 418              	.L75:
 249:../STM32Cube_FW_F4_V1.4.0/Drivers/STM32F4xx_HAL_Driver/Src/stm32f4xx_ll_fsmc.c ****   assert_param(IS_FSMC_ADDRESS_HOLD_TIME(Timing->AddressHoldTime));
 419              		.loc 1 249 0 is_stmt 1
 420 0016 6368     		ldr	r3, [r4, #4]	@ Timing_9(D)->AddressHoldTime, Timing_9(D)->AddressHoldTime
 421 0018 013B     		subs	r3, r3, #1	@ D.7970, Timing_9(D)->AddressHoldTime,
 422 001a 0E2B     		cmp	r3, #14	@ D.7970,
 423 001c 03D9     		bls	.L76	@,
 424              		.loc 1 249 0 is_stmt 0 discriminator 1
ARM GAS  C:\cygwin\tmp\ccPgEzdT.s 			page 13


 425 001e 2448     		ldr	r0, .L85	@,
 426 0020 F921     		movs	r1, #249	@,
 427 0022 FFF7FEFF 		bl	assert_failed	@
 428              	.LVL31:
 429              	.L76:
 250:../STM32Cube_FW_F4_V1.4.0/Drivers/STM32F4xx_HAL_Driver/Src/stm32f4xx_ll_fsmc.c ****   assert_param(IS_FSMC_DATASETUP_TIME(Timing->DataSetupTime));
 430              		.loc 1 250 0 is_stmt 1
 431 0026 A368     		ldr	r3, [r4, #8]	@ Timing_9(D)->DataSetupTime, Timing_9(D)->DataSetupTime
 432 0028 013B     		subs	r3, r3, #1	@ D.7970, Timing_9(D)->DataSetupTime,
 433 002a FE2B     		cmp	r3, #254	@ D.7970,
 434 002c 03D9     		bls	.L77	@,
 435              		.loc 1 250 0 is_stmt 0 discriminator 1
 436 002e 2048     		ldr	r0, .L85	@,
 437 0030 FA21     		movs	r1, #250	@,
 438 0032 FFF7FEFF 		bl	assert_failed	@
 439              	.LVL32:
 440              	.L77:
 251:../STM32Cube_FW_F4_V1.4.0/Drivers/STM32F4xx_HAL_Driver/Src/stm32f4xx_ll_fsmc.c ****   assert_param(IS_FSMC_TURNAROUND_TIME(Timing->BusTurnAroundDuration));
 441              		.loc 1 251 0 is_stmt 1
 442 0036 E368     		ldr	r3, [r4, #12]	@ Timing_9(D)->BusTurnAroundDuration, Timing_9(D)->BusTurnAroundDuration
 443 0038 0F2B     		cmp	r3, #15	@ Timing_9(D)->BusTurnAroundDuration,
 444 003a 03D9     		bls	.L78	@,
 445              		.loc 1 251 0 is_stmt 0 discriminator 1
 446 003c 1C48     		ldr	r0, .L85	@,
 447 003e FB21     		movs	r1, #251	@,
 448 0040 FFF7FEFF 		bl	assert_failed	@
 449              	.LVL33:
 450              	.L78:
 252:../STM32Cube_FW_F4_V1.4.0/Drivers/STM32F4xx_HAL_Driver/Src/stm32f4xx_ll_fsmc.c ****   assert_param(IS_FSMC_CLK_DIV(Timing->CLKDivision));
 451              		.loc 1 252 0 is_stmt 1
 452 0044 2369     		ldr	r3, [r4, #16]	@ Timing_9(D)->CLKDivision, Timing_9(D)->CLKDivision
 453 0046 013B     		subs	r3, r3, #1	@ D.7970, Timing_9(D)->CLKDivision,
 454 0048 0F2B     		cmp	r3, #15	@ D.7970,
 455 004a 03D9     		bls	.L79	@,
 456              		.loc 1 252 0 is_stmt 0 discriminator 1
 457 004c 1848     		ldr	r0, .L85	@,
 458 004e FC21     		movs	r1, #252	@,
 459 0050 FFF7FEFF 		bl	assert_failed	@
 460              	.LVL34:
 461              	.L79:
 253:../STM32Cube_FW_F4_V1.4.0/Drivers/STM32F4xx_HAL_Driver/Src/stm32f4xx_ll_fsmc.c ****   assert_param(IS_FSMC_DATA_LATENCY(Timing->DataLatency));
 462              		.loc 1 253 0 is_stmt 1
 463 0054 6369     		ldr	r3, [r4, #20]	@ Timing_9(D)->DataLatency, Timing_9(D)->DataLatency
 464 0056 013B     		subs	r3, r3, #1	@ D.7970, Timing_9(D)->DataLatency,
 465 0058 102B     		cmp	r3, #16	@ D.7970,
 466 005a 03D9     		bls	.L80	@,
 467              		.loc 1 253 0 is_stmt 0 discriminator 1
 468 005c 1448     		ldr	r0, .L85	@,
 469 005e FD21     		movs	r1, #253	@,
 470 0060 FFF7FEFF 		bl	assert_failed	@
 471              	.LVL35:
 472              	.L80:
 254:../STM32Cube_FW_F4_V1.4.0/Drivers/STM32F4xx_HAL_Driver/Src/stm32f4xx_ll_fsmc.c ****   assert_param(IS_FSMC_ACCESS_MODE(Timing->AccessMode));
 473              		.loc 1 254 0 is_stmt 1
 474 0064 A369     		ldr	r3, [r4, #24]	@ Timing_9(D)->AccessMode, Timing_9(D)->AccessMode
 475 0066 33F04053 		bics	r3, r3, #805306368	@ tmp192, Timing_9(D)->AccessMode,
 476 006a 03D0     		beq	.L81	@,
ARM GAS  C:\cygwin\tmp\ccPgEzdT.s 			page 14


 477              		.loc 1 254 0 is_stmt 0 discriminator 4
 478 006c 1048     		ldr	r0, .L85	@,
 479 006e FE21     		movs	r1, #254	@,
 480 0070 FFF7FEFF 		bl	assert_failed	@
 481              	.LVL36:
 482              	.L81:
 483 0074 05EB8602 		add	r2, r5, r6, lsl #2	@, D.7972, Device, Bank,
 484 0078 A169     		ldr	r1, [r4, #24]	@ Timing_9(D)->AccessMode, Timing_9(D)->AccessMode
 255:../STM32Cube_FW_F4_V1.4.0/Drivers/STM32F4xx_HAL_Driver/Src/stm32f4xx_ll_fsmc.c ****   
 256:../STM32Cube_FW_F4_V1.4.0/Drivers/STM32F4xx_HAL_Driver/Src/stm32f4xx_ll_fsmc.c ****   /* Get the BTCR register value */
 257:../STM32Cube_FW_F4_V1.4.0/Drivers/STM32F4xx_HAL_Driver/Src/stm32f4xx_ll_fsmc.c ****   tmpr = Device->BTCR[Bank + 1];
 485              		.loc 1 257 0 is_stmt 1
 486 007a 5368     		ldr	r3, [r2, #4]	@ tmpr, MEM[(struct FSMC_Bank1_TypeDef *)_102 + 4B]
 487              	.LVL37:
 258:../STM32Cube_FW_F4_V1.4.0/Drivers/STM32F4xx_HAL_Driver/Src/stm32f4xx_ll_fsmc.c **** 
 259:../STM32Cube_FW_F4_V1.4.0/Drivers/STM32F4xx_HAL_Driver/Src/stm32f4xx_ll_fsmc.c ****   /* Clear ADDSET, ADDHLD, DATAST, BUSTURN, CLKDIV, DATLAT and ACCMOD bits */
 260:../STM32Cube_FW_F4_V1.4.0/Drivers/STM32F4xx_HAL_Driver/Src/stm32f4xx_ll_fsmc.c ****   tmpr &= ((uint32_t)~(FSMC_BTR1_ADDSET  | FSMC_BTR1_ADDHLD | FSMC_BTR1_DATAST | \
 261:../STM32Cube_FW_F4_V1.4.0/Drivers/STM32F4xx_HAL_Driver/Src/stm32f4xx_ll_fsmc.c ****                        FSMC_BTR1_BUSTURN | FSMC_BTR1_CLKDIV | FSMC_BTR1_DATLAT | \
 262:../STM32Cube_FW_F4_V1.4.0/Drivers/STM32F4xx_HAL_Driver/Src/stm32f4xx_ll_fsmc.c ****                        FSMC_BTR1_ACCMOD));
 263:../STM32Cube_FW_F4_V1.4.0/Drivers/STM32F4xx_HAL_Driver/Src/stm32f4xx_ll_fsmc.c ****   
 264:../STM32Cube_FW_F4_V1.4.0/Drivers/STM32F4xx_HAL_Driver/Src/stm32f4xx_ll_fsmc.c ****   /* Set FSMC_NORSRAM device timing parameters */  
 265:../STM32Cube_FW_F4_V1.4.0/Drivers/STM32F4xx_HAL_Driver/Src/stm32f4xx_ll_fsmc.c ****   tmpr |= (uint32_t)(Timing->AddressSetupTime                 |\
 266:../STM32Cube_FW_F4_V1.4.0/Drivers/STM32F4xx_HAL_Driver/Src/stm32f4xx_ll_fsmc.c ****                     ((Timing->AddressHoldTime) << 4)          |\
 267:../STM32Cube_FW_F4_V1.4.0/Drivers/STM32F4xx_HAL_Driver/Src/stm32f4xx_ll_fsmc.c ****                     ((Timing->DataSetupTime) << 8)            |\
 488              		.loc 1 267 0
 489 007c A568     		ldr	r5, [r4, #8]	@ Timing_9(D)->DataSetupTime, Timing_9(D)->DataSetupTime
 490              	.LVL38:
 260:../STM32Cube_FW_F4_V1.4.0/Drivers/STM32F4xx_HAL_Driver/Src/stm32f4xx_ll_fsmc.c ****                        FSMC_BTR1_BUSTURN | FSMC_BTR1_CLKDIV | FSMC_BTR1_DATLAT | \
 491              		.loc 1 260 0
 492 007e 03F04046 		and	r6, r3, #-1073741824	@ tmpr, tmpr,
 493              	.LVL39:
 494 0082 2368     		ldr	r3, [r4]	@ Timing_9(D)->AddressSetupTime, Timing_9(D)->AddressSetupTime
 495 0084 0B43     		orrs	r3, r3, r1	@, D.7970, Timing_9(D)->AddressSetupTime, Timing_9(D)->AccessMode
 266:../STM32Cube_FW_F4_V1.4.0/Drivers/STM32F4xx_HAL_Driver/Src/stm32f4xx_ll_fsmc.c ****                     ((Timing->DataSetupTime) << 8)            |\
 496              		.loc 1 266 0
 497 0086 6168     		ldr	r1, [r4, #4]	@ Timing_9(D)->AddressHoldTime, Timing_9(D)->AddressHoldTime
 498 0088 43EA0111 		orr	r1, r3, r1, lsl #4	@, D.7970, D.7970, Timing_9(D)->AddressHoldTime,
 499 008c 41EA0521 		orr	r1, r1, r5, lsl #8	@, D.7970, D.7970, Timing_9(D)->DataSetupTime,
 268:../STM32Cube_FW_F4_V1.4.0/Drivers/STM32F4xx_HAL_Driver/Src/stm32f4xx_ll_fsmc.c ****                     ((Timing->BusTurnAroundDuration) << 16)   |\
 269:../STM32Cube_FW_F4_V1.4.0/Drivers/STM32F4xx_HAL_Driver/Src/stm32f4xx_ll_fsmc.c ****                     (((Timing->CLKDivision)-1) << 20)         |\
 500              		.loc 1 269 0
 501 0090 2369     		ldr	r3, [r4, #16]	@ Timing_9(D)->CLKDivision, Timing_9(D)->CLKDivision
 268:../STM32Cube_FW_F4_V1.4.0/Drivers/STM32F4xx_HAL_Driver/Src/stm32f4xx_ll_fsmc.c ****                     ((Timing->BusTurnAroundDuration) << 16)   |\
 502              		.loc 1 268 0
 503 0092 E568     		ldr	r5, [r4, #12]	@ Timing_9(D)->BusTurnAroundDuration, Timing_9(D)->BusTurnAroundDuration
 504              		.loc 1 269 0
 505 0094 013B     		subs	r3, r3, #1	@ D.7970, Timing_9(D)->CLKDivision,
 506 0096 41EA0545 		orr	r5, r1, r5, lsl #16	@, D.7970, D.7970, Timing_9(D)->BusTurnAroundDuration,
 507 009a 45EA0351 		orr	r1, r5, r3, lsl #20	@, D.7970, D.7970, D.7970,
 270:../STM32Cube_FW_F4_V1.4.0/Drivers/STM32F4xx_HAL_Driver/Src/stm32f4xx_ll_fsmc.c ****                     (((Timing->DataLatency)-2) << 24)         |\
 508              		.loc 1 270 0
 509 009e 6369     		ldr	r3, [r4, #20]	@ Timing_9(D)->DataLatency, Timing_9(D)->DataLatency
 510 00a0 023B     		subs	r3, r3, #2	@ D.7970, Timing_9(D)->DataLatency,
 265:../STM32Cube_FW_F4_V1.4.0/Drivers/STM32F4xx_HAL_Driver/Src/stm32f4xx_ll_fsmc.c ****                     ((Timing->AddressHoldTime) << 4)          |\
 511              		.loc 1 265 0
 512 00a2 41EA0363 		orr	r3, r1, r3, lsl #24	@, D.7970, D.7970, D.7970,
 513 00a6 3343     		orrs	r3, r3, r6	@, tmpr, D.7970, tmpr
ARM GAS  C:\cygwin\tmp\ccPgEzdT.s 			page 15


 514              	.LVL40:
 271:../STM32Cube_FW_F4_V1.4.0/Drivers/STM32F4xx_HAL_Driver/Src/stm32f4xx_ll_fsmc.c ****                     (Timing->AccessMode));
 272:../STM32Cube_FW_F4_V1.4.0/Drivers/STM32F4xx_HAL_Driver/Src/stm32f4xx_ll_fsmc.c ****   
 273:../STM32Cube_FW_F4_V1.4.0/Drivers/STM32F4xx_HAL_Driver/Src/stm32f4xx_ll_fsmc.c ****   Device->BTCR[Bank + 1] = tmpr; 
 515              		.loc 1 273 0
 516 00a8 5360     		str	r3, [r2, #4]	@ tmpr, MEM[(struct FSMC_Bank1_TypeDef *)_102 + 4B]
 274:../STM32Cube_FW_F4_V1.4.0/Drivers/STM32F4xx_HAL_Driver/Src/stm32f4xx_ll_fsmc.c ****   
 275:../STM32Cube_FW_F4_V1.4.0/Drivers/STM32F4xx_HAL_Driver/Src/stm32f4xx_ll_fsmc.c ****   return HAL_OK;   
 276:../STM32Cube_FW_F4_V1.4.0/Drivers/STM32F4xx_HAL_Driver/Src/stm32f4xx_ll_fsmc.c **** }
 517              		.loc 1 276 0
 518 00aa 0020     		movs	r0, #0	@,
 519 00ac 70BD     		pop	{r4, r5, r6, pc}	@
 520              	.LVL41:
 521              	.L86:
 522 00ae 00BF     		.align	2
 523              	.L85:
 524 00b0 00000000 		.word	.LC0
 525              		.cfi_endproc
 526              	.LFE125:
 527              		.size	FSMC_NORSRAM_Timing_Init, .-FSMC_NORSRAM_Timing_Init
 528              		.section	.text.FSMC_NORSRAM_Extended_Timing_Init,"ax",%progbits
 529              		.align	1
 530              		.global	FSMC_NORSRAM_Extended_Timing_Init
 531              		.thumb
 532              		.thumb_func
 533              		.type	FSMC_NORSRAM_Extended_Timing_Init, %function
 534              	FSMC_NORSRAM_Extended_Timing_Init:
 535              	.LFB126:
 277:../STM32Cube_FW_F4_V1.4.0/Drivers/STM32F4xx_HAL_Driver/Src/stm32f4xx_ll_fsmc.c **** 
 278:../STM32Cube_FW_F4_V1.4.0/Drivers/STM32F4xx_HAL_Driver/Src/stm32f4xx_ll_fsmc.c **** /**
 279:../STM32Cube_FW_F4_V1.4.0/Drivers/STM32F4xx_HAL_Driver/Src/stm32f4xx_ll_fsmc.c ****   * @brief  Initialize the FSMC_NORSRAM Extended mode Timing according to the specified
 280:../STM32Cube_FW_F4_V1.4.0/Drivers/STM32F4xx_HAL_Driver/Src/stm32f4xx_ll_fsmc.c ****   *         parameters in the FSMC_NORSRAM_TimingTypeDef
 281:../STM32Cube_FW_F4_V1.4.0/Drivers/STM32F4xx_HAL_Driver/Src/stm32f4xx_ll_fsmc.c ****   * @param  Device: Pointer to NORSRAM device instance
 282:../STM32Cube_FW_F4_V1.4.0/Drivers/STM32F4xx_HAL_Driver/Src/stm32f4xx_ll_fsmc.c ****   * @param  Timing: Pointer to NORSRAM Timing structure
 283:../STM32Cube_FW_F4_V1.4.0/Drivers/STM32F4xx_HAL_Driver/Src/stm32f4xx_ll_fsmc.c ****   * @param  Bank: NORSRAM bank number  
 284:../STM32Cube_FW_F4_V1.4.0/Drivers/STM32F4xx_HAL_Driver/Src/stm32f4xx_ll_fsmc.c ****   * @retval HAL status
 285:../STM32Cube_FW_F4_V1.4.0/Drivers/STM32F4xx_HAL_Driver/Src/stm32f4xx_ll_fsmc.c ****   */
 286:../STM32Cube_FW_F4_V1.4.0/Drivers/STM32F4xx_HAL_Driver/Src/stm32f4xx_ll_fsmc.c **** HAL_StatusTypeDef  FSMC_NORSRAM_Extended_Timing_Init(FSMC_NORSRAM_EXTENDED_TypeDef *Device, FSMC_NO
 287:../STM32Cube_FW_F4_V1.4.0/Drivers/STM32F4xx_HAL_Driver/Src/stm32f4xx_ll_fsmc.c **** {
 536              		.loc 1 287 0
 537              		.cfi_startproc
 538              		@ args = 0, pretend = 0, frame = 0
 539              		@ frame_needed = 0, uses_anonymous_args = 0
 540              	.LVL42:
 288:../STM32Cube_FW_F4_V1.4.0/Drivers/STM32F4xx_HAL_Driver/Src/stm32f4xx_ll_fsmc.c ****   uint32_t tmpr = 0;
 289:../STM32Cube_FW_F4_V1.4.0/Drivers/STM32F4xx_HAL_Driver/Src/stm32f4xx_ll_fsmc.c ****   
 290:../STM32Cube_FW_F4_V1.4.0/Drivers/STM32F4xx_HAL_Driver/Src/stm32f4xx_ll_fsmc.c ****   /* Set NORSRAM device timing register for write configuration, if extended mode is used */
 291:../STM32Cube_FW_F4_V1.4.0/Drivers/STM32F4xx_HAL_Driver/Src/stm32f4xx_ll_fsmc.c ****   if(ExtendedMode == FSMC_EXTENDED_MODE_ENABLE)
 541              		.loc 1 291 0
 542 0000 B3F5804F 		cmp	r3, #16384	@ ExtendedMode,
 287:../STM32Cube_FW_F4_V1.4.0/Drivers/STM32F4xx_HAL_Driver/Src/stm32f4xx_ll_fsmc.c ****   uint32_t tmpr = 0;
 543              		.loc 1 287 0
 544 0004 70B5     		push	{r4, r5, r6, lr}	@
 545              		.cfi_def_cfa_offset 16
 546              		.cfi_offset 4, -16
 547              		.cfi_offset 5, -12
 548              		.cfi_offset 6, -8
ARM GAS  C:\cygwin\tmp\ccPgEzdT.s 			page 16


 549              		.cfi_offset 14, -4
 287:../STM32Cube_FW_F4_V1.4.0/Drivers/STM32F4xx_HAL_Driver/Src/stm32f4xx_ll_fsmc.c ****   uint32_t tmpr = 0;
 550              		.loc 1 287 0
 551 0006 0546     		mov	r5, r0	@ Device, Device
 552 0008 0C46     		mov	r4, r1	@ Timing, Timing
 553 000a 1646     		mov	r6, r2	@ Bank, Bank
 554              		.loc 1 291 0
 555 000c 56D1     		bne	.L88	@,
 292:../STM32Cube_FW_F4_V1.4.0/Drivers/STM32F4xx_HAL_Driver/Src/stm32f4xx_ll_fsmc.c ****   {
 293:../STM32Cube_FW_F4_V1.4.0/Drivers/STM32F4xx_HAL_Driver/Src/stm32f4xx_ll_fsmc.c ****     /* Check the parameters */  
 294:../STM32Cube_FW_F4_V1.4.0/Drivers/STM32F4xx_HAL_Driver/Src/stm32f4xx_ll_fsmc.c ****     assert_param(IS_FSMC_ADDRESS_SETUP_TIME(Timing->AddressSetupTime));
 556              		.loc 1 294 0
 557 000e 0B68     		ldr	r3, [r1]	@ Timing_11(D)->AddressSetupTime, Timing_11(D)->AddressSetupTime
 558              	.LVL43:
 559 0010 0F2B     		cmp	r3, #15	@ Timing_11(D)->AddressSetupTime,
 560 0012 04D9     		bls	.L89	@,
 561              		.loc 1 294 0 is_stmt 0 discriminator 1
 562 0014 2C48     		ldr	r0, .L101	@,
 563              	.LVL44:
 564 0016 4FF49371 		mov	r1, #294	@,
 565              	.LVL45:
 566 001a FFF7FEFF 		bl	assert_failed	@
 567              	.LVL46:
 568              	.L89:
 295:../STM32Cube_FW_F4_V1.4.0/Drivers/STM32F4xx_HAL_Driver/Src/stm32f4xx_ll_fsmc.c ****     assert_param(IS_FSMC_ADDRESS_HOLD_TIME(Timing->AddressHoldTime));
 569              		.loc 1 295 0 is_stmt 1
 570 001e 6368     		ldr	r3, [r4, #4]	@ Timing_11(D)->AddressHoldTime, Timing_11(D)->AddressHoldTime
 571 0020 013B     		subs	r3, r3, #1	@ D.7975, Timing_11(D)->AddressHoldTime,
 572 0022 0E2B     		cmp	r3, #14	@ D.7975,
 573 0024 04D9     		bls	.L90	@,
 574              		.loc 1 295 0 is_stmt 0 discriminator 1
 575 0026 2848     		ldr	r0, .L101	@,
 576 0028 40F22711 		movw	r1, #295	@,
 577 002c FFF7FEFF 		bl	assert_failed	@
 578              	.LVL47:
 579              	.L90:
 296:../STM32Cube_FW_F4_V1.4.0/Drivers/STM32F4xx_HAL_Driver/Src/stm32f4xx_ll_fsmc.c ****     assert_param(IS_FSMC_DATASETUP_TIME(Timing->DataSetupTime));
 580              		.loc 1 296 0 is_stmt 1
 581 0030 A368     		ldr	r3, [r4, #8]	@ Timing_11(D)->DataSetupTime, Timing_11(D)->DataSetupTime
 582 0032 013B     		subs	r3, r3, #1	@ D.7975, Timing_11(D)->DataSetupTime,
 583 0034 FE2B     		cmp	r3, #254	@ D.7975,
 584 0036 04D9     		bls	.L91	@,
 585              		.loc 1 296 0 is_stmt 0 discriminator 1
 586 0038 2348     		ldr	r0, .L101	@,
 587 003a 4FF49471 		mov	r1, #296	@,
 588 003e FFF7FEFF 		bl	assert_failed	@
 589              	.LVL48:
 590              	.L91:
 297:../STM32Cube_FW_F4_V1.4.0/Drivers/STM32F4xx_HAL_Driver/Src/stm32f4xx_ll_fsmc.c ****     assert_param(IS_FSMC_TURNAROUND_TIME(Timing->BusTurnAroundDuration));
 591              		.loc 1 297 0 is_stmt 1
 592 0042 E368     		ldr	r3, [r4, #12]	@ Timing_11(D)->BusTurnAroundDuration, Timing_11(D)->BusTurnAroundDuration
 593 0044 0F2B     		cmp	r3, #15	@ Timing_11(D)->BusTurnAroundDuration,
 594 0046 04D9     		bls	.L92	@,
 595              		.loc 1 297 0 is_stmt 0 discriminator 1
 596 0048 1F48     		ldr	r0, .L101	@,
 597 004a 40F22911 		movw	r1, #297	@,
 598 004e FFF7FEFF 		bl	assert_failed	@
ARM GAS  C:\cygwin\tmp\ccPgEzdT.s 			page 17


 599              	.LVL49:
 600              	.L92:
 298:../STM32Cube_FW_F4_V1.4.0/Drivers/STM32F4xx_HAL_Driver/Src/stm32f4xx_ll_fsmc.c ****     assert_param(IS_FSMC_CLK_DIV(Timing->CLKDivision));
 601              		.loc 1 298 0 is_stmt 1
 602 0052 2369     		ldr	r3, [r4, #16]	@ Timing_11(D)->CLKDivision, Timing_11(D)->CLKDivision
 603 0054 013B     		subs	r3, r3, #1	@ D.7975, Timing_11(D)->CLKDivision,
 604 0056 0F2B     		cmp	r3, #15	@ D.7975,
 605 0058 04D9     		bls	.L93	@,
 606              		.loc 1 298 0 is_stmt 0 discriminator 1
 607 005a 1B48     		ldr	r0, .L101	@,
 608 005c 4FF49571 		mov	r1, #298	@,
 609 0060 FFF7FEFF 		bl	assert_failed	@
 610              	.LVL50:
 611              	.L93:
 299:../STM32Cube_FW_F4_V1.4.0/Drivers/STM32F4xx_HAL_Driver/Src/stm32f4xx_ll_fsmc.c ****     assert_param(IS_FSMC_DATA_LATENCY(Timing->DataLatency));
 612              		.loc 1 299 0 is_stmt 1
 613 0064 6369     		ldr	r3, [r4, #20]	@ Timing_11(D)->DataLatency, Timing_11(D)->DataLatency
 614 0066 013B     		subs	r3, r3, #1	@ D.7975, Timing_11(D)->DataLatency,
 615 0068 102B     		cmp	r3, #16	@ D.7975,
 616 006a 04D9     		bls	.L94	@,
 617              		.loc 1 299 0 is_stmt 0 discriminator 1
 618 006c 1648     		ldr	r0, .L101	@,
 619 006e 40F22B11 		movw	r1, #299	@,
 620 0072 FFF7FEFF 		bl	assert_failed	@
 621              	.LVL51:
 622              	.L94:
 300:../STM32Cube_FW_F4_V1.4.0/Drivers/STM32F4xx_HAL_Driver/Src/stm32f4xx_ll_fsmc.c ****     assert_param(IS_FSMC_ACCESS_MODE(Timing->AccessMode));
 623              		.loc 1 300 0 is_stmt 1
 624 0076 A369     		ldr	r3, [r4, #24]	@ Timing_11(D)->AccessMode, Timing_11(D)->AccessMode
 625 0078 33F04053 		bics	r3, r3, #805306368	@ tmp194, Timing_11(D)->AccessMode,
 626 007c 04D0     		beq	.L95	@,
 627              		.loc 1 300 0 is_stmt 0 discriminator 4
 628 007e 1248     		ldr	r0, .L101	@,
 629 0080 4FF49671 		mov	r1, #300	@,
 630 0084 FFF7FEFF 		bl	assert_failed	@
 631              	.LVL52:
 632              	.L95:
 301:../STM32Cube_FW_F4_V1.4.0/Drivers/STM32F4xx_HAL_Driver/Src/stm32f4xx_ll_fsmc.c ****   
 302:../STM32Cube_FW_F4_V1.4.0/Drivers/STM32F4xx_HAL_Driver/Src/stm32f4xx_ll_fsmc.c ****     /* Get the BWTR register value */
 303:../STM32Cube_FW_F4_V1.4.0/Drivers/STM32F4xx_HAL_Driver/Src/stm32f4xx_ll_fsmc.c ****     tmpr = Device->BWTR[Bank];
 633              		.loc 1 303 0 is_stmt 1
 634 0088 55F82630 		ldr	r3, [r5, r6, lsl #2]	@ tmpr, MEM[(struct FSMC_Bank1E_TypeDef *)_104]
 635              	.LVL53:
 636 008c A269     		ldr	r2, [r4, #24]	@ Timing_11(D)->AccessMode, Timing_11(D)->AccessMode
 304:../STM32Cube_FW_F4_V1.4.0/Drivers/STM32F4xx_HAL_Driver/Src/stm32f4xx_ll_fsmc.c ****     
 305:../STM32Cube_FW_F4_V1.4.0/Drivers/STM32F4xx_HAL_Driver/Src/stm32f4xx_ll_fsmc.c ****     /* Clear ADDSET, ADDHLD, DATAST, BUSTURN, CLKDIV, DATLAT and ACCMOD bits */
 306:../STM32Cube_FW_F4_V1.4.0/Drivers/STM32F4xx_HAL_Driver/Src/stm32f4xx_ll_fsmc.c ****     tmpr &= ((uint32_t)~(FSMC_BWTR1_ADDSET  | FSMC_BWTR1_ADDHLD | FSMC_BWTR1_DATAST | \
 307:../STM32Cube_FW_F4_V1.4.0/Drivers/STM32F4xx_HAL_Driver/Src/stm32f4xx_ll_fsmc.c ****                          FSMC_BWTR1_BUSTURN | FSMC_BWTR1_CLKDIV | FSMC_BWTR1_DATLAT | \
 308:../STM32Cube_FW_F4_V1.4.0/Drivers/STM32F4xx_HAL_Driver/Src/stm32f4xx_ll_fsmc.c ****                          FSMC_BWTR1_ACCMOD));
 309:../STM32Cube_FW_F4_V1.4.0/Drivers/STM32F4xx_HAL_Driver/Src/stm32f4xx_ll_fsmc.c **** 
 310:../STM32Cube_FW_F4_V1.4.0/Drivers/STM32F4xx_HAL_Driver/Src/stm32f4xx_ll_fsmc.c ****     tmpr |= (uint32_t)(Timing->AddressSetupTime                 |\
 311:../STM32Cube_FW_F4_V1.4.0/Drivers/STM32F4xx_HAL_Driver/Src/stm32f4xx_ll_fsmc.c ****                      ((Timing->AddressHoldTime) << 4)          |\
 312:../STM32Cube_FW_F4_V1.4.0/Drivers/STM32F4xx_HAL_Driver/Src/stm32f4xx_ll_fsmc.c ****                      ((Timing->DataSetupTime) << 8)            |\
 637              		.loc 1 312 0
 638 008e A168     		ldr	r1, [r4, #8]	@ Timing_11(D)->DataSetupTime, Timing_11(D)->DataSetupTime
 306:../STM32Cube_FW_F4_V1.4.0/Drivers/STM32F4xx_HAL_Driver/Src/stm32f4xx_ll_fsmc.c ****                          FSMC_BWTR1_BUSTURN | FSMC_BWTR1_CLKDIV | FSMC_BWTR1_DATLAT | \
 639              		.loc 1 306 0
ARM GAS  C:\cygwin\tmp\ccPgEzdT.s 			page 18


 640 0090 03F04040 		and	r0, r3, #-1073741824	@ tmpr, tmpr,
 641              	.LVL54:
 642 0094 2368     		ldr	r3, [r4]	@ Timing_11(D)->AddressSetupTime, Timing_11(D)->AddressSetupTime
 643 0096 1343     		orrs	r3, r3, r2	@, D.7975, Timing_11(D)->AddressSetupTime, Timing_11(D)->AccessMode
 311:../STM32Cube_FW_F4_V1.4.0/Drivers/STM32F4xx_HAL_Driver/Src/stm32f4xx_ll_fsmc.c ****                      ((Timing->DataSetupTime) << 8)            |\
 644              		.loc 1 311 0
 645 0098 6268     		ldr	r2, [r4, #4]	@ Timing_11(D)->AddressHoldTime, Timing_11(D)->AddressHoldTime
 646 009a 43EA0212 		orr	r2, r3, r2, lsl #4	@, D.7975, D.7975, Timing_11(D)->AddressHoldTime,
 647 009e 42EA0122 		orr	r2, r2, r1, lsl #8	@, D.7975, D.7975, Timing_11(D)->DataSetupTime,
 313:../STM32Cube_FW_F4_V1.4.0/Drivers/STM32F4xx_HAL_Driver/Src/stm32f4xx_ll_fsmc.c ****                      ((Timing->BusTurnAroundDuration) << 16)   |\
 314:../STM32Cube_FW_F4_V1.4.0/Drivers/STM32F4xx_HAL_Driver/Src/stm32f4xx_ll_fsmc.c ****                      (((Timing->CLKDivision)-1) << 20)         |\
 648              		.loc 1 314 0
 649 00a2 2369     		ldr	r3, [r4, #16]	@ Timing_11(D)->CLKDivision, Timing_11(D)->CLKDivision
 313:../STM32Cube_FW_F4_V1.4.0/Drivers/STM32F4xx_HAL_Driver/Src/stm32f4xx_ll_fsmc.c ****                      ((Timing->BusTurnAroundDuration) << 16)   |\
 650              		.loc 1 313 0
 651 00a4 E168     		ldr	r1, [r4, #12]	@ Timing_11(D)->BusTurnAroundDuration, Timing_11(D)->BusTurnAroundDuration
 652              		.loc 1 314 0
 653 00a6 013B     		subs	r3, r3, #1	@ D.7975, Timing_11(D)->CLKDivision,
 654 00a8 42EA0141 		orr	r1, r2, r1, lsl #16	@, D.7975, D.7975, Timing_11(D)->BusTurnAroundDuration,
 655 00ac 41EA0352 		orr	r2, r1, r3, lsl #20	@, D.7975, D.7975, D.7975,
 315:../STM32Cube_FW_F4_V1.4.0/Drivers/STM32F4xx_HAL_Driver/Src/stm32f4xx_ll_fsmc.c ****                      (((Timing->DataLatency)-2) << 24)         |\
 656              		.loc 1 315 0
 657 00b0 6369     		ldr	r3, [r4, #20]	@ Timing_11(D)->DataLatency, Timing_11(D)->DataLatency
 658 00b2 023B     		subs	r3, r3, #2	@ D.7975, Timing_11(D)->DataLatency,
 310:../STM32Cube_FW_F4_V1.4.0/Drivers/STM32F4xx_HAL_Driver/Src/stm32f4xx_ll_fsmc.c ****                      ((Timing->AddressHoldTime) << 4)          |\
 659              		.loc 1 310 0
 660 00b4 42EA0363 		orr	r3, r2, r3, lsl #24	@, D.7975, D.7975, D.7975,
 661 00b8 0343     		orrs	r3, r3, r0	@, tmpr, D.7975, tmpr
 662              	.LVL55:
 663 00ba 01E0     		b	.L100	@
 664              	.LVL56:
 665              	.L88:
 316:../STM32Cube_FW_F4_V1.4.0/Drivers/STM32F4xx_HAL_Driver/Src/stm32f4xx_ll_fsmc.c ****                      (Timing->AccessMode));
 317:../STM32Cube_FW_F4_V1.4.0/Drivers/STM32F4xx_HAL_Driver/Src/stm32f4xx_ll_fsmc.c ****     
 318:../STM32Cube_FW_F4_V1.4.0/Drivers/STM32F4xx_HAL_Driver/Src/stm32f4xx_ll_fsmc.c ****     Device->BWTR[Bank] = tmpr; 
 319:../STM32Cube_FW_F4_V1.4.0/Drivers/STM32F4xx_HAL_Driver/Src/stm32f4xx_ll_fsmc.c ****   }
 320:../STM32Cube_FW_F4_V1.4.0/Drivers/STM32F4xx_HAL_Driver/Src/stm32f4xx_ll_fsmc.c ****   else                                        
 321:../STM32Cube_FW_F4_V1.4.0/Drivers/STM32F4xx_HAL_Driver/Src/stm32f4xx_ll_fsmc.c ****   {
 322:../STM32Cube_FW_F4_V1.4.0/Drivers/STM32F4xx_HAL_Driver/Src/stm32f4xx_ll_fsmc.c ****     Device->BWTR[Bank] = 0x0FFFFFFF;
 666              		.loc 1 322 0
 667 00bc 6FF07043 		mvn	r3, #-268435456	@ tmp192,
 668              	.LVL57:
 669              	.L100:
 670 00c0 45F82630 		str	r3, [r5, r6, lsl #2]	@ tmp192,* Device
 323:../STM32Cube_FW_F4_V1.4.0/Drivers/STM32F4xx_HAL_Driver/Src/stm32f4xx_ll_fsmc.c ****   }   
 324:../STM32Cube_FW_F4_V1.4.0/Drivers/STM32F4xx_HAL_Driver/Src/stm32f4xx_ll_fsmc.c ****   
 325:../STM32Cube_FW_F4_V1.4.0/Drivers/STM32F4xx_HAL_Driver/Src/stm32f4xx_ll_fsmc.c ****   return HAL_OK;  
 326:../STM32Cube_FW_F4_V1.4.0/Drivers/STM32F4xx_HAL_Driver/Src/stm32f4xx_ll_fsmc.c **** }
 671              		.loc 1 326 0
 672 00c4 0020     		movs	r0, #0	@,
 673 00c6 70BD     		pop	{r4, r5, r6, pc}	@
 674              	.LVL58:
 675              	.L102:
 676              		.align	2
 677              	.L101:
 678 00c8 00000000 		.word	.LC0
 679              		.cfi_endproc
ARM GAS  C:\cygwin\tmp\ccPgEzdT.s 			page 19


 680              	.LFE126:
 681              		.size	FSMC_NORSRAM_Extended_Timing_Init, .-FSMC_NORSRAM_Extended_Timing_Init
 682              		.section	.text.FSMC_NORSRAM_WriteOperation_Enable,"ax",%progbits
 683              		.align	1
 684              		.global	FSMC_NORSRAM_WriteOperation_Enable
 685              		.thumb
 686              		.thumb_func
 687              		.type	FSMC_NORSRAM_WriteOperation_Enable, %function
 688              	FSMC_NORSRAM_WriteOperation_Enable:
 689              	.LFB127:
 327:../STM32Cube_FW_F4_V1.4.0/Drivers/STM32F4xx_HAL_Driver/Src/stm32f4xx_ll_fsmc.c **** /**
 328:../STM32Cube_FW_F4_V1.4.0/Drivers/STM32F4xx_HAL_Driver/Src/stm32f4xx_ll_fsmc.c ****   * @}
 329:../STM32Cube_FW_F4_V1.4.0/Drivers/STM32F4xx_HAL_Driver/Src/stm32f4xx_ll_fsmc.c ****   */
 330:../STM32Cube_FW_F4_V1.4.0/Drivers/STM32F4xx_HAL_Driver/Src/stm32f4xx_ll_fsmc.c ****   
 331:../STM32Cube_FW_F4_V1.4.0/Drivers/STM32F4xx_HAL_Driver/Src/stm32f4xx_ll_fsmc.c **** /** @addtogroup FSMC_LL_NORSRAM_Private_Functions_Group2
 332:../STM32Cube_FW_F4_V1.4.0/Drivers/STM32F4xx_HAL_Driver/Src/stm32f4xx_ll_fsmc.c ****   *  @brief   management functions 
 333:../STM32Cube_FW_F4_V1.4.0/Drivers/STM32F4xx_HAL_Driver/Src/stm32f4xx_ll_fsmc.c ****   *
 334:../STM32Cube_FW_F4_V1.4.0/Drivers/STM32F4xx_HAL_Driver/Src/stm32f4xx_ll_fsmc.c **** @verbatim   
 335:../STM32Cube_FW_F4_V1.4.0/Drivers/STM32F4xx_HAL_Driver/Src/stm32f4xx_ll_fsmc.c ****   ==============================================================================
 336:../STM32Cube_FW_F4_V1.4.0/Drivers/STM32F4xx_HAL_Driver/Src/stm32f4xx_ll_fsmc.c ****                       ##### FSMC_NORSRAM Control functions #####
 337:../STM32Cube_FW_F4_V1.4.0/Drivers/STM32F4xx_HAL_Driver/Src/stm32f4xx_ll_fsmc.c ****   ==============================================================================
 338:../STM32Cube_FW_F4_V1.4.0/Drivers/STM32F4xx_HAL_Driver/Src/stm32f4xx_ll_fsmc.c ****   [..]
 339:../STM32Cube_FW_F4_V1.4.0/Drivers/STM32F4xx_HAL_Driver/Src/stm32f4xx_ll_fsmc.c ****     This subsection provides a set of functions allowing to control dynamically
 340:../STM32Cube_FW_F4_V1.4.0/Drivers/STM32F4xx_HAL_Driver/Src/stm32f4xx_ll_fsmc.c ****     the FSMC NORSRAM interface.
 341:../STM32Cube_FW_F4_V1.4.0/Drivers/STM32F4xx_HAL_Driver/Src/stm32f4xx_ll_fsmc.c **** 
 342:../STM32Cube_FW_F4_V1.4.0/Drivers/STM32F4xx_HAL_Driver/Src/stm32f4xx_ll_fsmc.c **** @endverbatim
 343:../STM32Cube_FW_F4_V1.4.0/Drivers/STM32F4xx_HAL_Driver/Src/stm32f4xx_ll_fsmc.c ****   * @{
 344:../STM32Cube_FW_F4_V1.4.0/Drivers/STM32F4xx_HAL_Driver/Src/stm32f4xx_ll_fsmc.c ****   */
 345:../STM32Cube_FW_F4_V1.4.0/Drivers/STM32F4xx_HAL_Driver/Src/stm32f4xx_ll_fsmc.c ****     
 346:../STM32Cube_FW_F4_V1.4.0/Drivers/STM32F4xx_HAL_Driver/Src/stm32f4xx_ll_fsmc.c **** /**
 347:../STM32Cube_FW_F4_V1.4.0/Drivers/STM32F4xx_HAL_Driver/Src/stm32f4xx_ll_fsmc.c ****   * @brief  Enables dynamically FSMC_NORSRAM write operation.
 348:../STM32Cube_FW_F4_V1.4.0/Drivers/STM32F4xx_HAL_Driver/Src/stm32f4xx_ll_fsmc.c ****   * @param  Device: Pointer to NORSRAM device instance
 349:../STM32Cube_FW_F4_V1.4.0/Drivers/STM32F4xx_HAL_Driver/Src/stm32f4xx_ll_fsmc.c ****   * @param  Bank: NORSRAM bank number   
 350:../STM32Cube_FW_F4_V1.4.0/Drivers/STM32F4xx_HAL_Driver/Src/stm32f4xx_ll_fsmc.c ****   * @retval HAL status
 351:../STM32Cube_FW_F4_V1.4.0/Drivers/STM32F4xx_HAL_Driver/Src/stm32f4xx_ll_fsmc.c ****   */
 352:../STM32Cube_FW_F4_V1.4.0/Drivers/STM32F4xx_HAL_Driver/Src/stm32f4xx_ll_fsmc.c **** HAL_StatusTypeDef FSMC_NORSRAM_WriteOperation_Enable(FSMC_NORSRAM_TypeDef *Device, uint32_t Bank)
 353:../STM32Cube_FW_F4_V1.4.0/Drivers/STM32F4xx_HAL_Driver/Src/stm32f4xx_ll_fsmc.c **** {
 690              		.loc 1 353 0
 691              		.cfi_startproc
 692              		@ args = 0, pretend = 0, frame = 0
 693              		@ frame_needed = 0, uses_anonymous_args = 0
 694              		@ link register save eliminated.
 695              	.LVL59:
 354:../STM32Cube_FW_F4_V1.4.0/Drivers/STM32F4xx_HAL_Driver/Src/stm32f4xx_ll_fsmc.c ****   /* Enable write operation */
 355:../STM32Cube_FW_F4_V1.4.0/Drivers/STM32F4xx_HAL_Driver/Src/stm32f4xx_ll_fsmc.c ****   Device->BTCR[Bank] |= FSMC_WRITE_OPERATION_ENABLE; 
 696              		.loc 1 355 0
 697 0000 50F82130 		ldr	r3, [r0, r1, lsl #2]	@ D.7980, MEM[(struct FSMC_Bank1_TypeDef *)_8]
 698 0004 43F48053 		orr	r3, r3, #4096	@ D.7980, D.7980,
 699 0008 40F82130 		str	r3, [r0, r1, lsl #2]	@ D.7980, MEM[(struct FSMC_Bank1_TypeDef *)_8]
 356:../STM32Cube_FW_F4_V1.4.0/Drivers/STM32F4xx_HAL_Driver/Src/stm32f4xx_ll_fsmc.c **** 
 357:../STM32Cube_FW_F4_V1.4.0/Drivers/STM32F4xx_HAL_Driver/Src/stm32f4xx_ll_fsmc.c ****   return HAL_OK;  
 358:../STM32Cube_FW_F4_V1.4.0/Drivers/STM32F4xx_HAL_Driver/Src/stm32f4xx_ll_fsmc.c **** }
 700              		.loc 1 358 0
 701 000c 0020     		movs	r0, #0	@,
 702              	.LVL60:
 703 000e 7047     		bx	lr	@
 704              		.cfi_endproc
ARM GAS  C:\cygwin\tmp\ccPgEzdT.s 			page 20


 705              	.LFE127:
 706              		.size	FSMC_NORSRAM_WriteOperation_Enable, .-FSMC_NORSRAM_WriteOperation_Enable
 707              		.section	.text.FSMC_NORSRAM_WriteOperation_Disable,"ax",%progbits
 708              		.align	1
 709              		.global	FSMC_NORSRAM_WriteOperation_Disable
 710              		.thumb
 711              		.thumb_func
 712              		.type	FSMC_NORSRAM_WriteOperation_Disable, %function
 713              	FSMC_NORSRAM_WriteOperation_Disable:
 714              	.LFB128:
 359:../STM32Cube_FW_F4_V1.4.0/Drivers/STM32F4xx_HAL_Driver/Src/stm32f4xx_ll_fsmc.c **** 
 360:../STM32Cube_FW_F4_V1.4.0/Drivers/STM32F4xx_HAL_Driver/Src/stm32f4xx_ll_fsmc.c **** /**
 361:../STM32Cube_FW_F4_V1.4.0/Drivers/STM32F4xx_HAL_Driver/Src/stm32f4xx_ll_fsmc.c ****   * @brief  Disables dynamically FSMC_NORSRAM write operation.
 362:../STM32Cube_FW_F4_V1.4.0/Drivers/STM32F4xx_HAL_Driver/Src/stm32f4xx_ll_fsmc.c ****   * @param  Device: Pointer to NORSRAM device instance
 363:../STM32Cube_FW_F4_V1.4.0/Drivers/STM32F4xx_HAL_Driver/Src/stm32f4xx_ll_fsmc.c ****   * @param  Bank: NORSRAM bank number   
 364:../STM32Cube_FW_F4_V1.4.0/Drivers/STM32F4xx_HAL_Driver/Src/stm32f4xx_ll_fsmc.c ****   * @retval HAL status
 365:../STM32Cube_FW_F4_V1.4.0/Drivers/STM32F4xx_HAL_Driver/Src/stm32f4xx_ll_fsmc.c ****   */
 366:../STM32Cube_FW_F4_V1.4.0/Drivers/STM32F4xx_HAL_Driver/Src/stm32f4xx_ll_fsmc.c **** HAL_StatusTypeDef FSMC_NORSRAM_WriteOperation_Disable(FSMC_NORSRAM_TypeDef *Device, uint32_t Bank)
 367:../STM32Cube_FW_F4_V1.4.0/Drivers/STM32F4xx_HAL_Driver/Src/stm32f4xx_ll_fsmc.c **** { 
 715              		.loc 1 367 0
 716              		.cfi_startproc
 717              		@ args = 0, pretend = 0, frame = 0
 718              		@ frame_needed = 0, uses_anonymous_args = 0
 719              		@ link register save eliminated.
 720              	.LVL61:
 368:../STM32Cube_FW_F4_V1.4.0/Drivers/STM32F4xx_HAL_Driver/Src/stm32f4xx_ll_fsmc.c ****   /* Disable write operation */
 369:../STM32Cube_FW_F4_V1.4.0/Drivers/STM32F4xx_HAL_Driver/Src/stm32f4xx_ll_fsmc.c ****   Device->BTCR[Bank] &= ~FSMC_WRITE_OPERATION_ENABLE; 
 721              		.loc 1 369 0
 722 0000 50F82130 		ldr	r3, [r0, r1, lsl #2]	@ D.7985, MEM[(struct FSMC_Bank1_TypeDef *)_8]
 723 0004 23F48053 		bic	r3, r3, #4096	@ D.7985, D.7985,
 724 0008 40F82130 		str	r3, [r0, r1, lsl #2]	@ D.7985, MEM[(struct FSMC_Bank1_TypeDef *)_8]
 370:../STM32Cube_FW_F4_V1.4.0/Drivers/STM32F4xx_HAL_Driver/Src/stm32f4xx_ll_fsmc.c **** 
 371:../STM32Cube_FW_F4_V1.4.0/Drivers/STM32F4xx_HAL_Driver/Src/stm32f4xx_ll_fsmc.c ****   return HAL_OK;  
 372:../STM32Cube_FW_F4_V1.4.0/Drivers/STM32F4xx_HAL_Driver/Src/stm32f4xx_ll_fsmc.c **** }
 725              		.loc 1 372 0
 726 000c 0020     		movs	r0, #0	@,
 727              	.LVL62:
 728 000e 7047     		bx	lr	@
 729              		.cfi_endproc
 730              	.LFE128:
 731              		.size	FSMC_NORSRAM_WriteOperation_Disable, .-FSMC_NORSRAM_WriteOperation_Disable
 732              		.section	.text.FSMC_NAND_Init,"ax",%progbits
 733              		.align	1
 734              		.global	FSMC_NAND_Init
 735              		.thumb
 736              		.thumb_func
 737              		.type	FSMC_NAND_Init, %function
 738              	FSMC_NAND_Init:
 739              	.LFB129:
 373:../STM32Cube_FW_F4_V1.4.0/Drivers/STM32F4xx_HAL_Driver/Src/stm32f4xx_ll_fsmc.c **** /**
 374:../STM32Cube_FW_F4_V1.4.0/Drivers/STM32F4xx_HAL_Driver/Src/stm32f4xx_ll_fsmc.c ****   * @}
 375:../STM32Cube_FW_F4_V1.4.0/Drivers/STM32F4xx_HAL_Driver/Src/stm32f4xx_ll_fsmc.c ****   */
 376:../STM32Cube_FW_F4_V1.4.0/Drivers/STM32F4xx_HAL_Driver/Src/stm32f4xx_ll_fsmc.c **** 
 377:../STM32Cube_FW_F4_V1.4.0/Drivers/STM32F4xx_HAL_Driver/Src/stm32f4xx_ll_fsmc.c **** /**
 378:../STM32Cube_FW_F4_V1.4.0/Drivers/STM32F4xx_HAL_Driver/Src/stm32f4xx_ll_fsmc.c ****   * @}
 379:../STM32Cube_FW_F4_V1.4.0/Drivers/STM32F4xx_HAL_Driver/Src/stm32f4xx_ll_fsmc.c ****   */
 380:../STM32Cube_FW_F4_V1.4.0/Drivers/STM32F4xx_HAL_Driver/Src/stm32f4xx_ll_fsmc.c ****   
ARM GAS  C:\cygwin\tmp\ccPgEzdT.s 			page 21


 381:../STM32Cube_FW_F4_V1.4.0/Drivers/STM32F4xx_HAL_Driver/Src/stm32f4xx_ll_fsmc.c **** /** @addtogroup FSMC_LL_NAND
 382:../STM32Cube_FW_F4_V1.4.0/Drivers/STM32F4xx_HAL_Driver/Src/stm32f4xx_ll_fsmc.c ****   * @brief    NAND Controller functions 
 383:../STM32Cube_FW_F4_V1.4.0/Drivers/STM32F4xx_HAL_Driver/Src/stm32f4xx_ll_fsmc.c ****   *
 384:../STM32Cube_FW_F4_V1.4.0/Drivers/STM32F4xx_HAL_Driver/Src/stm32f4xx_ll_fsmc.c ****   @verbatim 
 385:../STM32Cube_FW_F4_V1.4.0/Drivers/STM32F4xx_HAL_Driver/Src/stm32f4xx_ll_fsmc.c ****   ==============================================================================   
 386:../STM32Cube_FW_F4_V1.4.0/Drivers/STM32F4xx_HAL_Driver/Src/stm32f4xx_ll_fsmc.c ****                     ##### How to use NAND device driver #####
 387:../STM32Cube_FW_F4_V1.4.0/Drivers/STM32F4xx_HAL_Driver/Src/stm32f4xx_ll_fsmc.c ****   ==============================================================================
 388:../STM32Cube_FW_F4_V1.4.0/Drivers/STM32F4xx_HAL_Driver/Src/stm32f4xx_ll_fsmc.c ****   [..]
 389:../STM32Cube_FW_F4_V1.4.0/Drivers/STM32F4xx_HAL_Driver/Src/stm32f4xx_ll_fsmc.c ****     This driver contains a set of APIs to interface with the FSMC NAND banks in order
 390:../STM32Cube_FW_F4_V1.4.0/Drivers/STM32F4xx_HAL_Driver/Src/stm32f4xx_ll_fsmc.c ****     to run the NAND external devices.
 391:../STM32Cube_FW_F4_V1.4.0/Drivers/STM32F4xx_HAL_Driver/Src/stm32f4xx_ll_fsmc.c ****   
 392:../STM32Cube_FW_F4_V1.4.0/Drivers/STM32F4xx_HAL_Driver/Src/stm32f4xx_ll_fsmc.c ****     (+) FSMC NAND bank reset using the function FSMC_NAND_DeInit() 
 393:../STM32Cube_FW_F4_V1.4.0/Drivers/STM32F4xx_HAL_Driver/Src/stm32f4xx_ll_fsmc.c ****     (+) FSMC NAND bank control configuration using the function FSMC_NAND_Init()
 394:../STM32Cube_FW_F4_V1.4.0/Drivers/STM32F4xx_HAL_Driver/Src/stm32f4xx_ll_fsmc.c ****     (+) FSMC NAND bank common space timing configuration using the function 
 395:../STM32Cube_FW_F4_V1.4.0/Drivers/STM32F4xx_HAL_Driver/Src/stm32f4xx_ll_fsmc.c ****         FSMC_NAND_CommonSpace_Timing_Init()
 396:../STM32Cube_FW_F4_V1.4.0/Drivers/STM32F4xx_HAL_Driver/Src/stm32f4xx_ll_fsmc.c ****     (+) FSMC NAND bank attribute space timing configuration using the function 
 397:../STM32Cube_FW_F4_V1.4.0/Drivers/STM32F4xx_HAL_Driver/Src/stm32f4xx_ll_fsmc.c ****         FSMC_NAND_AttributeSpace_Timing_Init()
 398:../STM32Cube_FW_F4_V1.4.0/Drivers/STM32F4xx_HAL_Driver/Src/stm32f4xx_ll_fsmc.c ****     (+) FSMC NAND bank enable/disable ECC correction feature using the functions
 399:../STM32Cube_FW_F4_V1.4.0/Drivers/STM32F4xx_HAL_Driver/Src/stm32f4xx_ll_fsmc.c ****         FSMC_NAND_ECC_Enable()/FSMC_NAND_ECC_Disable()
 400:../STM32Cube_FW_F4_V1.4.0/Drivers/STM32F4xx_HAL_Driver/Src/stm32f4xx_ll_fsmc.c ****     (+) FSMC NAND bank get ECC correction code using the function FSMC_NAND_GetECC()  
 401:../STM32Cube_FW_F4_V1.4.0/Drivers/STM32F4xx_HAL_Driver/Src/stm32f4xx_ll_fsmc.c **** 
 402:../STM32Cube_FW_F4_V1.4.0/Drivers/STM32F4xx_HAL_Driver/Src/stm32f4xx_ll_fsmc.c **** @endverbatim
 403:../STM32Cube_FW_F4_V1.4.0/Drivers/STM32F4xx_HAL_Driver/Src/stm32f4xx_ll_fsmc.c ****   * @{
 404:../STM32Cube_FW_F4_V1.4.0/Drivers/STM32F4xx_HAL_Driver/Src/stm32f4xx_ll_fsmc.c ****   */
 405:../STM32Cube_FW_F4_V1.4.0/Drivers/STM32F4xx_HAL_Driver/Src/stm32f4xx_ll_fsmc.c ****     
 406:../STM32Cube_FW_F4_V1.4.0/Drivers/STM32F4xx_HAL_Driver/Src/stm32f4xx_ll_fsmc.c **** /** @addtogroup FSMC_LL_NAND_Private_Functions_Group1
 407:../STM32Cube_FW_F4_V1.4.0/Drivers/STM32F4xx_HAL_Driver/Src/stm32f4xx_ll_fsmc.c ****   *  @brief    Initialization and Configuration functions 
 408:../STM32Cube_FW_F4_V1.4.0/Drivers/STM32F4xx_HAL_Driver/Src/stm32f4xx_ll_fsmc.c ****   *
 409:../STM32Cube_FW_F4_V1.4.0/Drivers/STM32F4xx_HAL_Driver/Src/stm32f4xx_ll_fsmc.c **** @verbatim    
 410:../STM32Cube_FW_F4_V1.4.0/Drivers/STM32F4xx_HAL_Driver/Src/stm32f4xx_ll_fsmc.c ****   ==============================================================================
 411:../STM32Cube_FW_F4_V1.4.0/Drivers/STM32F4xx_HAL_Driver/Src/stm32f4xx_ll_fsmc.c ****               ##### Initialization and de_initialization functions #####
 412:../STM32Cube_FW_F4_V1.4.0/Drivers/STM32F4xx_HAL_Driver/Src/stm32f4xx_ll_fsmc.c ****   ==============================================================================
 413:../STM32Cube_FW_F4_V1.4.0/Drivers/STM32F4xx_HAL_Driver/Src/stm32f4xx_ll_fsmc.c ****   [..]  
 414:../STM32Cube_FW_F4_V1.4.0/Drivers/STM32F4xx_HAL_Driver/Src/stm32f4xx_ll_fsmc.c ****     This section provides functions allowing to:
 415:../STM32Cube_FW_F4_V1.4.0/Drivers/STM32F4xx_HAL_Driver/Src/stm32f4xx_ll_fsmc.c ****     (+) Initialize and configure the FSMC NAND interface
 416:../STM32Cube_FW_F4_V1.4.0/Drivers/STM32F4xx_HAL_Driver/Src/stm32f4xx_ll_fsmc.c ****     (+) De-initialize the FSMC NAND interface 
 417:../STM32Cube_FW_F4_V1.4.0/Drivers/STM32F4xx_HAL_Driver/Src/stm32f4xx_ll_fsmc.c ****     (+) Configure the FSMC clock and associated GPIOs
 418:../STM32Cube_FW_F4_V1.4.0/Drivers/STM32F4xx_HAL_Driver/Src/stm32f4xx_ll_fsmc.c ****         
 419:../STM32Cube_FW_F4_V1.4.0/Drivers/STM32F4xx_HAL_Driver/Src/stm32f4xx_ll_fsmc.c **** @endverbatim
 420:../STM32Cube_FW_F4_V1.4.0/Drivers/STM32F4xx_HAL_Driver/Src/stm32f4xx_ll_fsmc.c ****   * @{
 421:../STM32Cube_FW_F4_V1.4.0/Drivers/STM32F4xx_HAL_Driver/Src/stm32f4xx_ll_fsmc.c ****   */
 422:../STM32Cube_FW_F4_V1.4.0/Drivers/STM32F4xx_HAL_Driver/Src/stm32f4xx_ll_fsmc.c ****   
 423:../STM32Cube_FW_F4_V1.4.0/Drivers/STM32F4xx_HAL_Driver/Src/stm32f4xx_ll_fsmc.c **** /**
 424:../STM32Cube_FW_F4_V1.4.0/Drivers/STM32F4xx_HAL_Driver/Src/stm32f4xx_ll_fsmc.c ****   * @brief  Initializes the FSMC_NAND device according to the specified
 425:../STM32Cube_FW_F4_V1.4.0/Drivers/STM32F4xx_HAL_Driver/Src/stm32f4xx_ll_fsmc.c ****   *         control parameters in the FSMC_NAND_HandleTypeDef
 426:../STM32Cube_FW_F4_V1.4.0/Drivers/STM32F4xx_HAL_Driver/Src/stm32f4xx_ll_fsmc.c ****   * @param  Device: Pointer to NAND device instance
 427:../STM32Cube_FW_F4_V1.4.0/Drivers/STM32F4xx_HAL_Driver/Src/stm32f4xx_ll_fsmc.c ****   * @param  Init: Pointer to NAND Initialization structure
 428:../STM32Cube_FW_F4_V1.4.0/Drivers/STM32F4xx_HAL_Driver/Src/stm32f4xx_ll_fsmc.c ****   * @retval HAL status
 429:../STM32Cube_FW_F4_V1.4.0/Drivers/STM32F4xx_HAL_Driver/Src/stm32f4xx_ll_fsmc.c ****   */
 430:../STM32Cube_FW_F4_V1.4.0/Drivers/STM32F4xx_HAL_Driver/Src/stm32f4xx_ll_fsmc.c **** HAL_StatusTypeDef FSMC_NAND_Init(FSMC_NAND_TypeDef *Device, FSMC_NAND_InitTypeDef *Init)
 431:../STM32Cube_FW_F4_V1.4.0/Drivers/STM32F4xx_HAL_Driver/Src/stm32f4xx_ll_fsmc.c **** {
 740              		.loc 1 431 0
 741              		.cfi_startproc
 742              		@ args = 0, pretend = 0, frame = 0
 743              		@ frame_needed = 0, uses_anonymous_args = 0
 744              	.LVL63:
 745 0000 38B5     		push	{r3, r4, r5, lr}	@
ARM GAS  C:\cygwin\tmp\ccPgEzdT.s 			page 22


 746              		.cfi_def_cfa_offset 16
 747              		.cfi_offset 3, -16
 748              		.cfi_offset 4, -12
 749              		.cfi_offset 5, -8
 750              		.cfi_offset 14, -4
 432:../STM32Cube_FW_F4_V1.4.0/Drivers/STM32F4xx_HAL_Driver/Src/stm32f4xx_ll_fsmc.c ****   uint32_t tmpr  = 0; 
 433:../STM32Cube_FW_F4_V1.4.0/Drivers/STM32F4xx_HAL_Driver/Src/stm32f4xx_ll_fsmc.c ****     
 434:../STM32Cube_FW_F4_V1.4.0/Drivers/STM32F4xx_HAL_Driver/Src/stm32f4xx_ll_fsmc.c ****   /* Check the parameters */
 435:../STM32Cube_FW_F4_V1.4.0/Drivers/STM32F4xx_HAL_Driver/Src/stm32f4xx_ll_fsmc.c ****   assert_param(IS_FSMC_NAND_BANK(Init->NandBank));
 751              		.loc 1 435 0
 752 0002 0B68     		ldr	r3, [r1]	@ D.7990, Init_11(D)->NandBank
 753 0004 102B     		cmp	r3, #16	@ D.7990,
 431:../STM32Cube_FW_F4_V1.4.0/Drivers/STM32F4xx_HAL_Driver/Src/stm32f4xx_ll_fsmc.c ****   uint32_t tmpr  = 0; 
 754              		.loc 1 431 0
 755 0006 0546     		mov	r5, r0	@ Device, Device
 756 0008 0C46     		mov	r4, r1	@ Init, Init
 757              		.loc 1 435 0
 758 000a 07D0     		beq	.L106	@,
 759              		.loc 1 435 0 is_stmt 0 discriminator 1
 760 000c B3F5807F 		cmp	r3, #256	@ D.7990,
 761 0010 04D0     		beq	.L106	@,
 762              		.loc 1 435 0 discriminator 2
 763 0012 2E48     		ldr	r0, .L138	@,
 764              	.LVL64:
 765 0014 40F2B311 		movw	r1, #435	@,
 766              	.LVL65:
 767 0018 FFF7FEFF 		bl	assert_failed	@
 768              	.LVL66:
 769              	.L106:
 436:../STM32Cube_FW_F4_V1.4.0/Drivers/STM32F4xx_HAL_Driver/Src/stm32f4xx_ll_fsmc.c ****   assert_param(IS_FSMC_WAIT_FEATURE(Init->Waitfeature));
 770              		.loc 1 436 0 is_stmt 1
 771 001c 6368     		ldr	r3, [r4, #4]	@ Init_11(D)->Waitfeature, Init_11(D)->Waitfeature
 772 001e 33F00203 		bics	r3, r3, #2	@ tmp175, Init_11(D)->Waitfeature,
 773 0022 04D0     		beq	.L107	@,
 774              		.loc 1 436 0 is_stmt 0 discriminator 2
 775 0024 2948     		ldr	r0, .L138	@,
 776 0026 4FF4DA71 		mov	r1, #436	@,
 777 002a FFF7FEFF 		bl	assert_failed	@
 778              	.LVL67:
 779              	.L107:
 437:../STM32Cube_FW_F4_V1.4.0/Drivers/STM32F4xx_HAL_Driver/Src/stm32f4xx_ll_fsmc.c ****   assert_param(IS_FSMC_NAND_MEMORY_WIDTH(Init->MemoryDataWidth));
 780              		.loc 1 437 0 is_stmt 1
 781 002e A368     		ldr	r3, [r4, #8]	@ Init_11(D)->MemoryDataWidth, Init_11(D)->MemoryDataWidth
 782 0030 33F01003 		bics	r3, r3, #16	@ tmp176, Init_11(D)->MemoryDataWidth,
 783 0034 04D0     		beq	.L108	@,
 784              		.loc 1 437 0 is_stmt 0 discriminator 2
 785 0036 2548     		ldr	r0, .L138	@,
 786 0038 40F2B511 		movw	r1, #437	@,
 787 003c FFF7FEFF 		bl	assert_failed	@
 788              	.LVL68:
 789              	.L108:
 438:../STM32Cube_FW_F4_V1.4.0/Drivers/STM32F4xx_HAL_Driver/Src/stm32f4xx_ll_fsmc.c ****   assert_param(IS_FSMC_ECC_STATE(Init->EccComputation));
 790              		.loc 1 438 0 is_stmt 1
 791 0040 E368     		ldr	r3, [r4, #12]	@ Init_11(D)->EccComputation, Init_11(D)->EccComputation
 792 0042 33F04003 		bics	r3, r3, #64	@ tmp177, Init_11(D)->EccComputation,
 793 0046 04D0     		beq	.L109	@,
 794              		.loc 1 438 0 is_stmt 0 discriminator 2
ARM GAS  C:\cygwin\tmp\ccPgEzdT.s 			page 23


 795 0048 2048     		ldr	r0, .L138	@,
 796 004a 4FF4DB71 		mov	r1, #438	@,
 797 004e FFF7FEFF 		bl	assert_failed	@
 798              	.LVL69:
 799              	.L109:
 439:../STM32Cube_FW_F4_V1.4.0/Drivers/STM32F4xx_HAL_Driver/Src/stm32f4xx_ll_fsmc.c ****   assert_param(IS_FSMC_ECCPAGE_SIZE(Init->ECCPageSize));
 800              		.loc 1 439 0 is_stmt 1
 801 0052 2369     		ldr	r3, [r4, #16]	@ D.7990, Init_11(D)->ECCPageSize
 802 0054 23F40032 		bic	r2, r3, #131072	@ D.7990, D.7990,
 803 0058 33F4C023 		bics	r3, r3, #393216	@ tmp178, D.7990,
 804 005c 07D0     		beq	.L110	@,
 805              		.loc 1 439 0 is_stmt 0 discriminator 4
 806 005e B2F5002F 		cmp	r2, #524288	@ D.7990,
 807 0062 04D0     		beq	.L110	@,
 808              		.loc 1 439 0 discriminator 6
 809 0064 1948     		ldr	r0, .L138	@,
 810 0066 40F2B711 		movw	r1, #439	@,
 811 006a FFF7FEFF 		bl	assert_failed	@
 812              	.LVL70:
 813              	.L110:
 440:../STM32Cube_FW_F4_V1.4.0/Drivers/STM32F4xx_HAL_Driver/Src/stm32f4xx_ll_fsmc.c ****   assert_param(IS_FSMC_TCLR_TIME(Init->TCLRSetupTime));
 814              		.loc 1 440 0 is_stmt 1
 815 006e 6369     		ldr	r3, [r4, #20]	@ Init_11(D)->TCLRSetupTime, Init_11(D)->TCLRSetupTime
 816 0070 FF2B     		cmp	r3, #255	@ Init_11(D)->TCLRSetupTime,
 817 0072 04D9     		bls	.L111	@,
 818              		.loc 1 440 0 is_stmt 0 discriminator 1
 819 0074 1548     		ldr	r0, .L138	@,
 820 0076 4FF4DC71 		mov	r1, #440	@,
 821 007a FFF7FEFF 		bl	assert_failed	@
 822              	.LVL71:
 823              	.L111:
 441:../STM32Cube_FW_F4_V1.4.0/Drivers/STM32F4xx_HAL_Driver/Src/stm32f4xx_ll_fsmc.c ****   assert_param(IS_FSMC_TAR_TIME(Init->TARSetupTime));   
 824              		.loc 1 441 0 is_stmt 1
 825 007e A369     		ldr	r3, [r4, #24]	@ Init_11(D)->TARSetupTime, Init_11(D)->TARSetupTime
 826 0080 FF2B     		cmp	r3, #255	@ Init_11(D)->TARSetupTime,
 827 0082 04D9     		bls	.L112	@,
 828              		.loc 1 441 0 is_stmt 0 discriminator 1
 829 0084 1148     		ldr	r0, .L138	@,
 830 0086 40F2B911 		movw	r1, #441	@,
 831 008a FFF7FEFF 		bl	assert_failed	@
 832              	.LVL72:
 833              	.L112:
 442:../STM32Cube_FW_F4_V1.4.0/Drivers/STM32F4xx_HAL_Driver/Src/stm32f4xx_ll_fsmc.c **** 
 443:../STM32Cube_FW_F4_V1.4.0/Drivers/STM32F4xx_HAL_Driver/Src/stm32f4xx_ll_fsmc.c ****     if(Init->NandBank == FSMC_NAND_BANK2)
 834              		.loc 1 443 0 is_stmt 1
 835 008e 2068     		ldr	r0, [r4]	@ D.7990, Init_11(D)->NandBank
 444:../STM32Cube_FW_F4_V1.4.0/Drivers/STM32F4xx_HAL_Driver/Src/stm32f4xx_ll_fsmc.c ****   {
 445:../STM32Cube_FW_F4_V1.4.0/Drivers/STM32F4xx_HAL_Driver/Src/stm32f4xx_ll_fsmc.c ****     /* Get the NAND bank 2 register value */
 446:../STM32Cube_FW_F4_V1.4.0/Drivers/STM32F4xx_HAL_Driver/Src/stm32f4xx_ll_fsmc.c ****     tmpr = Device->PCR2;
 447:../STM32Cube_FW_F4_V1.4.0/Drivers/STM32F4xx_HAL_Driver/Src/stm32f4xx_ll_fsmc.c ****   }
 448:../STM32Cube_FW_F4_V1.4.0/Drivers/STM32F4xx_HAL_Driver/Src/stm32f4xx_ll_fsmc.c ****   else
 449:../STM32Cube_FW_F4_V1.4.0/Drivers/STM32F4xx_HAL_Driver/Src/stm32f4xx_ll_fsmc.c ****   {
 450:../STM32Cube_FW_F4_V1.4.0/Drivers/STM32F4xx_HAL_Driver/Src/stm32f4xx_ll_fsmc.c ****     /* Get the NAND bank 3 register value */
 451:../STM32Cube_FW_F4_V1.4.0/Drivers/STM32F4xx_HAL_Driver/Src/stm32f4xx_ll_fsmc.c ****     tmpr = Device->PCR3;
 452:../STM32Cube_FW_F4_V1.4.0/Drivers/STM32F4xx_HAL_Driver/Src/stm32f4xx_ll_fsmc.c ****   }
 453:../STM32Cube_FW_F4_V1.4.0/Drivers/STM32F4xx_HAL_Driver/Src/stm32f4xx_ll_fsmc.c ****   
 454:../STM32Cube_FW_F4_V1.4.0/Drivers/STM32F4xx_HAL_Driver/Src/stm32f4xx_ll_fsmc.c ****   /* Clear PWAITEN, PBKEN, PTYP, PWID, ECCEN, TCLR, TAR and ECCPS bits */
ARM GAS  C:\cygwin\tmp\ccPgEzdT.s 			page 24


 455:../STM32Cube_FW_F4_V1.4.0/Drivers/STM32F4xx_HAL_Driver/Src/stm32f4xx_ll_fsmc.c ****   tmpr &= ((uint32_t)~(FSMC_PCR2_PWAITEN  | FSMC_PCR2_PBKEN | FSMC_PCR2_PTYP | \
 836              		.loc 1 455 0
 837 0090 0F49     		ldr	r1, .L138+4	@ tmpr,
 456:../STM32Cube_FW_F4_V1.4.0/Drivers/STM32F4xx_HAL_Driver/Src/stm32f4xx_ll_fsmc.c ****                        FSMC_PCR2_PWID | FSMC_PCR2_ECCEN | FSMC_PCR2_TCLR | \
 457:../STM32Cube_FW_F4_V1.4.0/Drivers/STM32F4xx_HAL_Driver/Src/stm32f4xx_ll_fsmc.c ****                        FSMC_PCR2_TAR | FSMC_PCR2_ECCPS));  
 458:../STM32Cube_FW_F4_V1.4.0/Drivers/STM32F4xx_HAL_Driver/Src/stm32f4xx_ll_fsmc.c ****   
 459:../STM32Cube_FW_F4_V1.4.0/Drivers/STM32F4xx_HAL_Driver/Src/stm32f4xx_ll_fsmc.c ****   /* Set NAND device control parameters */
 460:../STM32Cube_FW_F4_V1.4.0/Drivers/STM32F4xx_HAL_Driver/Src/stm32f4xx_ll_fsmc.c ****   tmpr |= (uint32_t)(Init->Waitfeature                |\
 461:../STM32Cube_FW_F4_V1.4.0/Drivers/STM32F4xx_HAL_Driver/Src/stm32f4xx_ll_fsmc.c ****                      FSMC_PCR_MEMORY_TYPE_NAND         |\
 838              		.loc 1 461 0
 839 0092 6268     		ldr	r2, [r4, #4]	@ Init_11(D)->Waitfeature, Init_11(D)->Waitfeature
 443:../STM32Cube_FW_F4_V1.4.0/Drivers/STM32F4xx_HAL_Driver/Src/stm32f4xx_ll_fsmc.c ****   {
 840              		.loc 1 443 0
 841 0094 1028     		cmp	r0, #16	@ D.7990,
 446:../STM32Cube_FW_F4_V1.4.0/Drivers/STM32F4xx_HAL_Driver/Src/stm32f4xx_ll_fsmc.c ****   }
 842              		.loc 1 446 0
 843 0096 0CBF     		ite	eq
 844 0098 2B68     		ldreq	r3, [r5]	@ tmpr, Device_27(D)->PCR2
 845              	.LVL73:
 451:../STM32Cube_FW_F4_V1.4.0/Drivers/STM32F4xx_HAL_Driver/Src/stm32f4xx_ll_fsmc.c ****   }
 846              		.loc 1 451 0
 847 009a 2B6A     		ldrne	r3, [r5, #32]	@ tmpr, Device_27(D)->PCR3
 848              	.LVL74:
 455:../STM32Cube_FW_F4_V1.4.0/Drivers/STM32F4xx_HAL_Driver/Src/stm32f4xx_ll_fsmc.c ****                        FSMC_PCR2_PWID | FSMC_PCR2_ECCEN | FSMC_PCR2_TCLR | \
 849              		.loc 1 455 0
 850 009c 1940     		ands	r1, r1, r3	@, tmpr, tmpr, tmpr
 851              	.LVL75:
 852              		.loc 1 461 0
 853 009e A368     		ldr	r3, [r4, #8]	@ Init_11(D)->MemoryDataWidth, Init_11(D)->MemoryDataWidth
 854 00a0 1343     		orrs	r3, r3, r2	@, D.7990, Init_11(D)->MemoryDataWidth, Init_11(D)->Waitfeature
 855 00a2 E268     		ldr	r2, [r4, #12]	@ Init_11(D)->EccComputation, Init_11(D)->EccComputation
 856 00a4 43F00803 		orr	r3, r3, #8	@ D.7990, D.7990,
 857 00a8 1A43     		orrs	r2, r2, r3	@, D.7990, Init_11(D)->EccComputation, D.7990
 858 00aa 2369     		ldr	r3, [r4, #16]	@ Init_11(D)->ECCPageSize, Init_11(D)->ECCPageSize
 859 00ac 1343     		orrs	r3, r3, r2	@, D.7990, Init_11(D)->ECCPageSize, D.7990
 462:../STM32Cube_FW_F4_V1.4.0/Drivers/STM32F4xx_HAL_Driver/Src/stm32f4xx_ll_fsmc.c ****                      Init->MemoryDataWidth            |\
 463:../STM32Cube_FW_F4_V1.4.0/Drivers/STM32F4xx_HAL_Driver/Src/stm32f4xx_ll_fsmc.c ****                      Init->EccComputation             |\
 464:../STM32Cube_FW_F4_V1.4.0/Drivers/STM32F4xx_HAL_Driver/Src/stm32f4xx_ll_fsmc.c ****                      Init->ECCPageSize                |\
 465:../STM32Cube_FW_F4_V1.4.0/Drivers/STM32F4xx_HAL_Driver/Src/stm32f4xx_ll_fsmc.c ****                      ((Init->TCLRSetupTime) << 9)     |\
 860              		.loc 1 465 0
 861 00ae 6269     		ldr	r2, [r4, #20]	@ Init_11(D)->TCLRSetupTime, Init_11(D)->TCLRSetupTime
 862 00b0 43EA4222 		orr	r2, r3, r2, lsl #9	@, D.7990, D.7990, Init_11(D)->TCLRSetupTime,
 466:../STM32Cube_FW_F4_V1.4.0/Drivers/STM32F4xx_HAL_Driver/Src/stm32f4xx_ll_fsmc.c ****                      ((Init->TARSetupTime) << 13));   
 863              		.loc 1 466 0
 864 00b4 A369     		ldr	r3, [r4, #24]	@ Init_11(D)->TARSetupTime, Init_11(D)->TARSetupTime
 865 00b6 42EA4333 		orr	r3, r2, r3, lsl #13	@, D.7990, D.7990, Init_11(D)->TARSetupTime,
 467:../STM32Cube_FW_F4_V1.4.0/Drivers/STM32F4xx_HAL_Driver/Src/stm32f4xx_ll_fsmc.c ****   
 468:../STM32Cube_FW_F4_V1.4.0/Drivers/STM32F4xx_HAL_Driver/Src/stm32f4xx_ll_fsmc.c ****   if(Init->NandBank == FSMC_NAND_BANK2)
 866              		.loc 1 468 0
 867 00ba 1028     		cmp	r0, #16	@ D.7990,
 460:../STM32Cube_FW_F4_V1.4.0/Drivers/STM32F4xx_HAL_Driver/Src/stm32f4xx_ll_fsmc.c ****                      FSMC_PCR_MEMORY_TYPE_NAND         |\
 868              		.loc 1 460 0
 869 00bc 43EA0103 		orr	r3, r3, r1	@ tmpr, D.7990, tmpr
 870              	.LVL76:
 469:../STM32Cube_FW_F4_V1.4.0/Drivers/STM32F4xx_HAL_Driver/Src/stm32f4xx_ll_fsmc.c ****   {
 470:../STM32Cube_FW_F4_V1.4.0/Drivers/STM32F4xx_HAL_Driver/Src/stm32f4xx_ll_fsmc.c ****     /* NAND bank 2 registers configuration */
 471:../STM32Cube_FW_F4_V1.4.0/Drivers/STM32F4xx_HAL_Driver/Src/stm32f4xx_ll_fsmc.c ****     Device->PCR2  = tmpr;
ARM GAS  C:\cygwin\tmp\ccPgEzdT.s 			page 25


 871              		.loc 1 471 0
 872 00c0 0CBF     		ite	eq
 873 00c2 2B60     		streq	r3, [r5]	@ tmpr, Device_27(D)->PCR2
 472:../STM32Cube_FW_F4_V1.4.0/Drivers/STM32F4xx_HAL_Driver/Src/stm32f4xx_ll_fsmc.c ****   }
 473:../STM32Cube_FW_F4_V1.4.0/Drivers/STM32F4xx_HAL_Driver/Src/stm32f4xx_ll_fsmc.c ****   else
 474:../STM32Cube_FW_F4_V1.4.0/Drivers/STM32F4xx_HAL_Driver/Src/stm32f4xx_ll_fsmc.c ****   {
 475:../STM32Cube_FW_F4_V1.4.0/Drivers/STM32F4xx_HAL_Driver/Src/stm32f4xx_ll_fsmc.c ****     /* NAND bank 3 registers configuration */
 476:../STM32Cube_FW_F4_V1.4.0/Drivers/STM32F4xx_HAL_Driver/Src/stm32f4xx_ll_fsmc.c ****     Device->PCR3  = tmpr;
 874              		.loc 1 476 0
 875 00c4 2B62     		strne	r3, [r5, #32]	@ tmpr, Device_27(D)->PCR3
 477:../STM32Cube_FW_F4_V1.4.0/Drivers/STM32F4xx_HAL_Driver/Src/stm32f4xx_ll_fsmc.c ****   }
 478:../STM32Cube_FW_F4_V1.4.0/Drivers/STM32F4xx_HAL_Driver/Src/stm32f4xx_ll_fsmc.c ****   
 479:../STM32Cube_FW_F4_V1.4.0/Drivers/STM32F4xx_HAL_Driver/Src/stm32f4xx_ll_fsmc.c ****   return HAL_OK;
 480:../STM32Cube_FW_F4_V1.4.0/Drivers/STM32F4xx_HAL_Driver/Src/stm32f4xx_ll_fsmc.c **** }
 876              		.loc 1 480 0
 877 00c6 0020     		movs	r0, #0	@,
 878 00c8 38BD     		pop	{r3, r4, r5, pc}	@
 879              	.LVL77:
 880              	.L139:
 881 00ca 00BF     		.align	2
 882              	.L138:
 883 00cc 00000000 		.word	.LC0
 884 00d0 8101F0FF 		.word	-1048191
 885              		.cfi_endproc
 886              	.LFE129:
 887              		.size	FSMC_NAND_Init, .-FSMC_NAND_Init
 888              		.section	.text.FSMC_NAND_CommonSpace_Timing_Init,"ax",%progbits
 889              		.align	1
 890              		.global	FSMC_NAND_CommonSpace_Timing_Init
 891              		.thumb
 892              		.thumb_func
 893              		.type	FSMC_NAND_CommonSpace_Timing_Init, %function
 894              	FSMC_NAND_CommonSpace_Timing_Init:
 895              	.LFB130:
 481:../STM32Cube_FW_F4_V1.4.0/Drivers/STM32F4xx_HAL_Driver/Src/stm32f4xx_ll_fsmc.c **** 
 482:../STM32Cube_FW_F4_V1.4.0/Drivers/STM32F4xx_HAL_Driver/Src/stm32f4xx_ll_fsmc.c **** /**
 483:../STM32Cube_FW_F4_V1.4.0/Drivers/STM32F4xx_HAL_Driver/Src/stm32f4xx_ll_fsmc.c ****   * @brief  Initializes the FSMC_NAND Common space Timing according to the specified
 484:../STM32Cube_FW_F4_V1.4.0/Drivers/STM32F4xx_HAL_Driver/Src/stm32f4xx_ll_fsmc.c ****   *         parameters in the FSMC_NAND_PCC_TimingTypeDef
 485:../STM32Cube_FW_F4_V1.4.0/Drivers/STM32F4xx_HAL_Driver/Src/stm32f4xx_ll_fsmc.c ****   * @param  Device: Pointer to NAND device instance
 486:../STM32Cube_FW_F4_V1.4.0/Drivers/STM32F4xx_HAL_Driver/Src/stm32f4xx_ll_fsmc.c ****   * @param  Timing: Pointer to NAND timing structure
 487:../STM32Cube_FW_F4_V1.4.0/Drivers/STM32F4xx_HAL_Driver/Src/stm32f4xx_ll_fsmc.c ****   * @param  Bank: NAND bank number   
 488:../STM32Cube_FW_F4_V1.4.0/Drivers/STM32F4xx_HAL_Driver/Src/stm32f4xx_ll_fsmc.c ****   * @retval HAL status
 489:../STM32Cube_FW_F4_V1.4.0/Drivers/STM32F4xx_HAL_Driver/Src/stm32f4xx_ll_fsmc.c ****   */
 490:../STM32Cube_FW_F4_V1.4.0/Drivers/STM32F4xx_HAL_Driver/Src/stm32f4xx_ll_fsmc.c **** HAL_StatusTypeDef FSMC_NAND_CommonSpace_Timing_Init(FSMC_NAND_TypeDef *Device, FSMC_NAND_PCC_Timing
 491:../STM32Cube_FW_F4_V1.4.0/Drivers/STM32F4xx_HAL_Driver/Src/stm32f4xx_ll_fsmc.c **** {
 896              		.loc 1 491 0
 897              		.cfi_startproc
 898              		@ args = 0, pretend = 0, frame = 0
 899              		@ frame_needed = 0, uses_anonymous_args = 0
 900              	.LVL78:
 492:../STM32Cube_FW_F4_V1.4.0/Drivers/STM32F4xx_HAL_Driver/Src/stm32f4xx_ll_fsmc.c ****   uint32_t tmpr = 0;  
 493:../STM32Cube_FW_F4_V1.4.0/Drivers/STM32F4xx_HAL_Driver/Src/stm32f4xx_ll_fsmc.c ****   
 494:../STM32Cube_FW_F4_V1.4.0/Drivers/STM32F4xx_HAL_Driver/Src/stm32f4xx_ll_fsmc.c ****   /* Check the parameters */
 495:../STM32Cube_FW_F4_V1.4.0/Drivers/STM32F4xx_HAL_Driver/Src/stm32f4xx_ll_fsmc.c ****   assert_param(IS_FSMC_SETUP_TIME(Timing->SetupTime));
 901              		.loc 1 495 0
 902 0000 0B68     		ldr	r3, [r1]	@ Timing_7(D)->SetupTime, Timing_7(D)->SetupTime
 903 0002 FF2B     		cmp	r3, #255	@ Timing_7(D)->SetupTime,
ARM GAS  C:\cygwin\tmp\ccPgEzdT.s 			page 26


 491:../STM32Cube_FW_F4_V1.4.0/Drivers/STM32F4xx_HAL_Driver/Src/stm32f4xx_ll_fsmc.c ****   uint32_t tmpr = 0;  
 904              		.loc 1 491 0
 905 0004 70B5     		push	{r4, r5, r6, lr}	@
 906              		.cfi_def_cfa_offset 16
 907              		.cfi_offset 4, -16
 908              		.cfi_offset 5, -12
 909              		.cfi_offset 6, -8
 910              		.cfi_offset 14, -4
 491:../STM32Cube_FW_F4_V1.4.0/Drivers/STM32F4xx_HAL_Driver/Src/stm32f4xx_ll_fsmc.c ****   uint32_t tmpr = 0;  
 911              		.loc 1 491 0
 912 0006 0546     		mov	r5, r0	@ Device, Device
 913 0008 0C46     		mov	r4, r1	@ Timing, Timing
 914 000a 1646     		mov	r6, r2	@ Bank, Bank
 915              		.loc 1 495 0
 916 000c 04D9     		bls	.L141	@,
 917              		.loc 1 495 0 is_stmt 0 discriminator 1
 918 000e 1848     		ldr	r0, .L149	@,
 919              	.LVL79:
 920 0010 40F2EF11 		movw	r1, #495	@,
 921              	.LVL80:
 922 0014 FFF7FEFF 		bl	assert_failed	@
 923              	.LVL81:
 924              	.L141:
 496:../STM32Cube_FW_F4_V1.4.0/Drivers/STM32F4xx_HAL_Driver/Src/stm32f4xx_ll_fsmc.c ****   assert_param(IS_FSMC_WAIT_TIME(Timing->WaitSetupTime));
 925              		.loc 1 496 0 is_stmt 1
 926 0018 6368     		ldr	r3, [r4, #4]	@ Timing_7(D)->WaitSetupTime, Timing_7(D)->WaitSetupTime
 927 001a FF2B     		cmp	r3, #255	@ Timing_7(D)->WaitSetupTime,
 928 001c 04D9     		bls	.L142	@,
 929              		.loc 1 496 0 is_stmt 0 discriminator 1
 930 001e 1448     		ldr	r0, .L149	@,
 931 0020 4FF4F871 		mov	r1, #496	@,
 932 0024 FFF7FEFF 		bl	assert_failed	@
 933              	.LVL82:
 934              	.L142:
 497:../STM32Cube_FW_F4_V1.4.0/Drivers/STM32F4xx_HAL_Driver/Src/stm32f4xx_ll_fsmc.c ****   assert_param(IS_FSMC_HOLD_TIME(Timing->HoldSetupTime));
 935              		.loc 1 497 0 is_stmt 1
 936 0028 A368     		ldr	r3, [r4, #8]	@ Timing_7(D)->HoldSetupTime, Timing_7(D)->HoldSetupTime
 937 002a FF2B     		cmp	r3, #255	@ Timing_7(D)->HoldSetupTime,
 938 002c 04D9     		bls	.L143	@,
 939              		.loc 1 497 0 is_stmt 0 discriminator 1
 940 002e 1048     		ldr	r0, .L149	@,
 941 0030 40F2F111 		movw	r1, #497	@,
 942 0034 FFF7FEFF 		bl	assert_failed	@
 943              	.LVL83:
 944              	.L143:
 498:../STM32Cube_FW_F4_V1.4.0/Drivers/STM32F4xx_HAL_Driver/Src/stm32f4xx_ll_fsmc.c ****   assert_param(IS_FSMC_HIZ_TIME(Timing->HiZSetupTime));
 945              		.loc 1 498 0 is_stmt 1
 946 0038 E368     		ldr	r3, [r4, #12]	@ Timing_7(D)->HiZSetupTime, Timing_7(D)->HiZSetupTime
 947 003a FF2B     		cmp	r3, #255	@ Timing_7(D)->HiZSetupTime,
 948 003c 04D9     		bls	.L144	@,
 949              		.loc 1 498 0 is_stmt 0 discriminator 1
 950 003e 0C48     		ldr	r0, .L149	@,
 951 0040 4FF4F971 		mov	r1, #498	@,
 952 0044 FFF7FEFF 		bl	assert_failed	@
 953              	.LVL84:
 954              	.L144:
 499:../STM32Cube_FW_F4_V1.4.0/Drivers/STM32F4xx_HAL_Driver/Src/stm32f4xx_ll_fsmc.c ****   
ARM GAS  C:\cygwin\tmp\ccPgEzdT.s 			page 27


 500:../STM32Cube_FW_F4_V1.4.0/Drivers/STM32F4xx_HAL_Driver/Src/stm32f4xx_ll_fsmc.c ****   if(Bank == FSMC_NAND_BANK2)
 955              		.loc 1 500 0 is_stmt 1
 956 0048 102E     		cmp	r6, #16	@ Bank,
 501:../STM32Cube_FW_F4_V1.4.0/Drivers/STM32F4xx_HAL_Driver/Src/stm32f4xx_ll_fsmc.c ****   {
 502:../STM32Cube_FW_F4_V1.4.0/Drivers/STM32F4xx_HAL_Driver/Src/stm32f4xx_ll_fsmc.c ****     /* Get the NAND bank 2 register value */
 503:../STM32Cube_FW_F4_V1.4.0/Drivers/STM32F4xx_HAL_Driver/Src/stm32f4xx_ll_fsmc.c ****     tmpr = Device->PMEM2;
 504:../STM32Cube_FW_F4_V1.4.0/Drivers/STM32F4xx_HAL_Driver/Src/stm32f4xx_ll_fsmc.c ****   }
 505:../STM32Cube_FW_F4_V1.4.0/Drivers/STM32F4xx_HAL_Driver/Src/stm32f4xx_ll_fsmc.c ****   else
 506:../STM32Cube_FW_F4_V1.4.0/Drivers/STM32F4xx_HAL_Driver/Src/stm32f4xx_ll_fsmc.c ****   {
 507:../STM32Cube_FW_F4_V1.4.0/Drivers/STM32F4xx_HAL_Driver/Src/stm32f4xx_ll_fsmc.c ****     /* Get the NAND bank 3 register value */
 508:../STM32Cube_FW_F4_V1.4.0/Drivers/STM32F4xx_HAL_Driver/Src/stm32f4xx_ll_fsmc.c ****     tmpr = Device->PMEM3;
 509:../STM32Cube_FW_F4_V1.4.0/Drivers/STM32F4xx_HAL_Driver/Src/stm32f4xx_ll_fsmc.c ****   } 
 510:../STM32Cube_FW_F4_V1.4.0/Drivers/STM32F4xx_HAL_Driver/Src/stm32f4xx_ll_fsmc.c ****   
 511:../STM32Cube_FW_F4_V1.4.0/Drivers/STM32F4xx_HAL_Driver/Src/stm32f4xx_ll_fsmc.c ****   /* Clear MEMSETx, MEMWAITx, MEMHOLDx and MEMHIZx bits */
 512:../STM32Cube_FW_F4_V1.4.0/Drivers/STM32F4xx_HAL_Driver/Src/stm32f4xx_ll_fsmc.c ****   tmpr &= ((uint32_t)~(FSMC_PMEM2_MEMSET2  | FSMC_PMEM2_MEMWAIT2 | FSMC_PMEM2_MEMHOLD2 | \
 513:../STM32Cube_FW_F4_V1.4.0/Drivers/STM32F4xx_HAL_Driver/Src/stm32f4xx_ll_fsmc.c ****                        FSMC_PMEM2_MEMHIZ2));
 514:../STM32Cube_FW_F4_V1.4.0/Drivers/STM32F4xx_HAL_Driver/Src/stm32f4xx_ll_fsmc.c ****   
 515:../STM32Cube_FW_F4_V1.4.0/Drivers/STM32F4xx_HAL_Driver/Src/stm32f4xx_ll_fsmc.c ****   /* Set FSMC_NAND device timing parameters */
 516:../STM32Cube_FW_F4_V1.4.0/Drivers/STM32F4xx_HAL_Driver/Src/stm32f4xx_ll_fsmc.c ****   tmpr |= (uint32_t)(Timing->SetupTime                  |\
 517:../STM32Cube_FW_F4_V1.4.0/Drivers/STM32F4xx_HAL_Driver/Src/stm32f4xx_ll_fsmc.c ****                        ((Timing->WaitSetupTime) << 8)     |\
 518:../STM32Cube_FW_F4_V1.4.0/Drivers/STM32F4xx_HAL_Driver/Src/stm32f4xx_ll_fsmc.c ****                        ((Timing->HoldSetupTime) << 16)    |\
 957              		.loc 1 518 0
 958 004a A268     		ldr	r2, [r4, #8]	@ Timing_7(D)->HoldSetupTime, Timing_7(D)->HoldSetupTime
 503:../STM32Cube_FW_F4_V1.4.0/Drivers/STM32F4xx_HAL_Driver/Src/stm32f4xx_ll_fsmc.c ****   }
 959              		.loc 1 503 0
 960 004c 0CBF     		ite	eq
 961 004e AB68     		ldreq	r3, [r5, #8]	@ tmpr, Device_17(D)->PMEM2
 962              	.LVL85:
 508:../STM32Cube_FW_F4_V1.4.0/Drivers/STM32F4xx_HAL_Driver/Src/stm32f4xx_ll_fsmc.c ****   } 
 963              		.loc 1 508 0
 964 0050 AB6A     		ldrne	r3, [r5, #40]	@ tmpr, Device_17(D)->PMEM3
 965              	.LVL86:
 517:../STM32Cube_FW_F4_V1.4.0/Drivers/STM32F4xx_HAL_Driver/Src/stm32f4xx_ll_fsmc.c ****                        ((Timing->HoldSetupTime) << 16)    |\
 966              		.loc 1 517 0
 967 0052 6368     		ldr	r3, [r4, #4]	@ Timing_7(D)->WaitSetupTime, Timing_7(D)->WaitSetupTime
 968              		.loc 1 518 0
 969 0054 1204     		lsls	r2, r2, #16	@ D.7993, Timing_7(D)->HoldSetupTime,
 970 0056 42EA0322 		orr	r2, r2, r3, lsl #8	@, D.7993, D.7993, Timing_7(D)->WaitSetupTime,
 517:../STM32Cube_FW_F4_V1.4.0/Drivers/STM32F4xx_HAL_Driver/Src/stm32f4xx_ll_fsmc.c ****                        ((Timing->HoldSetupTime) << 16)    |\
 971              		.loc 1 517 0
 972 005a 2368     		ldr	r3, [r4]	@ Timing_7(D)->SetupTime, Timing_7(D)->SetupTime
 973 005c 1343     		orrs	r3, r3, r2	@, D.7993, Timing_7(D)->SetupTime, D.7993
 519:../STM32Cube_FW_F4_V1.4.0/Drivers/STM32F4xx_HAL_Driver/Src/stm32f4xx_ll_fsmc.c ****                        ((Timing->HiZSetupTime) << 24)
 974              		.loc 1 519 0
 975 005e E268     		ldr	r2, [r4, #12]	@ Timing_7(D)->HiZSetupTime, Timing_7(D)->HiZSetupTime
 520:../STM32Cube_FW_F4_V1.4.0/Drivers/STM32F4xx_HAL_Driver/Src/stm32f4xx_ll_fsmc.c ****                        );
 521:../STM32Cube_FW_F4_V1.4.0/Drivers/STM32F4xx_HAL_Driver/Src/stm32f4xx_ll_fsmc.c ****                             
 522:../STM32Cube_FW_F4_V1.4.0/Drivers/STM32F4xx_HAL_Driver/Src/stm32f4xx_ll_fsmc.c ****   if(Bank == FSMC_NAND_BANK2)
 976              		.loc 1 522 0
 977 0060 102E     		cmp	r6, #16	@ Bank,
 516:../STM32Cube_FW_F4_V1.4.0/Drivers/STM32F4xx_HAL_Driver/Src/stm32f4xx_ll_fsmc.c ****                        ((Timing->WaitSetupTime) << 8)     |\
 978              		.loc 1 516 0
 979 0062 43EA0263 		orr	r3, r3, r2, lsl #24	@, D.7993, D.7993, Timing_7(D)->HiZSetupTime,
 980              	.LVL87:
 523:../STM32Cube_FW_F4_V1.4.0/Drivers/STM32F4xx_HAL_Driver/Src/stm32f4xx_ll_fsmc.c ****   {
 524:../STM32Cube_FW_F4_V1.4.0/Drivers/STM32F4xx_HAL_Driver/Src/stm32f4xx_ll_fsmc.c ****     /* NAND bank 2 registers configuration */
 525:../STM32Cube_FW_F4_V1.4.0/Drivers/STM32F4xx_HAL_Driver/Src/stm32f4xx_ll_fsmc.c ****     Device->PMEM2 = tmpr;
ARM GAS  C:\cygwin\tmp\ccPgEzdT.s 			page 28


 981              		.loc 1 525 0
 982 0066 0CBF     		ite	eq
 983 0068 AB60     		streq	r3, [r5, #8]	@ D.7993, Device_17(D)->PMEM2
 526:../STM32Cube_FW_F4_V1.4.0/Drivers/STM32F4xx_HAL_Driver/Src/stm32f4xx_ll_fsmc.c ****   }
 527:../STM32Cube_FW_F4_V1.4.0/Drivers/STM32F4xx_HAL_Driver/Src/stm32f4xx_ll_fsmc.c ****   else
 528:../STM32Cube_FW_F4_V1.4.0/Drivers/STM32F4xx_HAL_Driver/Src/stm32f4xx_ll_fsmc.c ****   {
 529:../STM32Cube_FW_F4_V1.4.0/Drivers/STM32F4xx_HAL_Driver/Src/stm32f4xx_ll_fsmc.c ****     /* NAND bank 3 registers configuration */
 530:../STM32Cube_FW_F4_V1.4.0/Drivers/STM32F4xx_HAL_Driver/Src/stm32f4xx_ll_fsmc.c ****     Device->PMEM3 = tmpr;
 984              		.loc 1 530 0
 985 006a AB62     		strne	r3, [r5, #40]	@ D.7993, Device_17(D)->PMEM3
 531:../STM32Cube_FW_F4_V1.4.0/Drivers/STM32F4xx_HAL_Driver/Src/stm32f4xx_ll_fsmc.c ****   }  
 532:../STM32Cube_FW_F4_V1.4.0/Drivers/STM32F4xx_HAL_Driver/Src/stm32f4xx_ll_fsmc.c ****   
 533:../STM32Cube_FW_F4_V1.4.0/Drivers/STM32F4xx_HAL_Driver/Src/stm32f4xx_ll_fsmc.c ****   return HAL_OK;  
 534:../STM32Cube_FW_F4_V1.4.0/Drivers/STM32F4xx_HAL_Driver/Src/stm32f4xx_ll_fsmc.c **** }
 986              		.loc 1 534 0
 987 006c 0020     		movs	r0, #0	@,
 988 006e 70BD     		pop	{r4, r5, r6, pc}	@
 989              	.LVL88:
 990              	.L150:
 991              		.align	2
 992              	.L149:
 993 0070 00000000 		.word	.LC0
 994              		.cfi_endproc
 995              	.LFE130:
 996              		.size	FSMC_NAND_CommonSpace_Timing_Init, .-FSMC_NAND_CommonSpace_Timing_Init
 997              		.section	.text.FSMC_NAND_AttributeSpace_Timing_Init,"ax",%progbits
 998              		.align	1
 999              		.global	FSMC_NAND_AttributeSpace_Timing_Init
 1000              		.thumb
 1001              		.thumb_func
 1002              		.type	FSMC_NAND_AttributeSpace_Timing_Init, %function
 1003              	FSMC_NAND_AttributeSpace_Timing_Init:
 1004              	.LFB131:
 535:../STM32Cube_FW_F4_V1.4.0/Drivers/STM32F4xx_HAL_Driver/Src/stm32f4xx_ll_fsmc.c **** 
 536:../STM32Cube_FW_F4_V1.4.0/Drivers/STM32F4xx_HAL_Driver/Src/stm32f4xx_ll_fsmc.c **** /**
 537:../STM32Cube_FW_F4_V1.4.0/Drivers/STM32F4xx_HAL_Driver/Src/stm32f4xx_ll_fsmc.c ****   * @brief  Initializes the FSMC_NAND Attribute space Timing according to the specified
 538:../STM32Cube_FW_F4_V1.4.0/Drivers/STM32F4xx_HAL_Driver/Src/stm32f4xx_ll_fsmc.c ****   *         parameters in the FSMC_NAND_PCC_TimingTypeDef
 539:../STM32Cube_FW_F4_V1.4.0/Drivers/STM32F4xx_HAL_Driver/Src/stm32f4xx_ll_fsmc.c ****   * @param  Device: Pointer to NAND device instance
 540:../STM32Cube_FW_F4_V1.4.0/Drivers/STM32F4xx_HAL_Driver/Src/stm32f4xx_ll_fsmc.c ****   * @param  Timing: Pointer to NAND timing structure
 541:../STM32Cube_FW_F4_V1.4.0/Drivers/STM32F4xx_HAL_Driver/Src/stm32f4xx_ll_fsmc.c ****   * @param  Bank: NAND bank number 
 542:../STM32Cube_FW_F4_V1.4.0/Drivers/STM32F4xx_HAL_Driver/Src/stm32f4xx_ll_fsmc.c ****   * @retval HAL status
 543:../STM32Cube_FW_F4_V1.4.0/Drivers/STM32F4xx_HAL_Driver/Src/stm32f4xx_ll_fsmc.c ****   */
 544:../STM32Cube_FW_F4_V1.4.0/Drivers/STM32F4xx_HAL_Driver/Src/stm32f4xx_ll_fsmc.c **** HAL_StatusTypeDef FSMC_NAND_AttributeSpace_Timing_Init(FSMC_NAND_TypeDef *Device, FSMC_NAND_PCC_Tim
 545:../STM32Cube_FW_F4_V1.4.0/Drivers/STM32F4xx_HAL_Driver/Src/stm32f4xx_ll_fsmc.c **** {
 1005              		.loc 1 545 0
 1006              		.cfi_startproc
 1007              		@ args = 0, pretend = 0, frame = 0
 1008              		@ frame_needed = 0, uses_anonymous_args = 0
 1009              	.LVL89:
 546:../STM32Cube_FW_F4_V1.4.0/Drivers/STM32F4xx_HAL_Driver/Src/stm32f4xx_ll_fsmc.c ****   uint32_t tmpr = 0;  
 547:../STM32Cube_FW_F4_V1.4.0/Drivers/STM32F4xx_HAL_Driver/Src/stm32f4xx_ll_fsmc.c ****   
 548:../STM32Cube_FW_F4_V1.4.0/Drivers/STM32F4xx_HAL_Driver/Src/stm32f4xx_ll_fsmc.c ****   /* Check the parameters */  
 549:../STM32Cube_FW_F4_V1.4.0/Drivers/STM32F4xx_HAL_Driver/Src/stm32f4xx_ll_fsmc.c ****   assert_param(IS_FSMC_SETUP_TIME(Timing->SetupTime));
 1010              		.loc 1 549 0
 1011 0000 0B68     		ldr	r3, [r1]	@ Timing_7(D)->SetupTime, Timing_7(D)->SetupTime
 1012 0002 FF2B     		cmp	r3, #255	@ Timing_7(D)->SetupTime,
 545:../STM32Cube_FW_F4_V1.4.0/Drivers/STM32F4xx_HAL_Driver/Src/stm32f4xx_ll_fsmc.c ****   uint32_t tmpr = 0;  
ARM GAS  C:\cygwin\tmp\ccPgEzdT.s 			page 29


 1013              		.loc 1 545 0
 1014 0004 70B5     		push	{r4, r5, r6, lr}	@
 1015              		.cfi_def_cfa_offset 16
 1016              		.cfi_offset 4, -16
 1017              		.cfi_offset 5, -12
 1018              		.cfi_offset 6, -8
 1019              		.cfi_offset 14, -4
 545:../STM32Cube_FW_F4_V1.4.0/Drivers/STM32F4xx_HAL_Driver/Src/stm32f4xx_ll_fsmc.c ****   uint32_t tmpr = 0;  
 1020              		.loc 1 545 0
 1021 0006 0546     		mov	r5, r0	@ Device, Device
 1022 0008 0C46     		mov	r4, r1	@ Timing, Timing
 1023 000a 1646     		mov	r6, r2	@ Bank, Bank
 1024              		.loc 1 549 0
 1025 000c 04D9     		bls	.L152	@,
 1026              		.loc 1 549 0 is_stmt 0 discriminator 1
 1027 000e 1848     		ldr	r0, .L160	@,
 1028              	.LVL90:
 1029 0010 40F22521 		movw	r1, #549	@,
 1030              	.LVL91:
 1031 0014 FFF7FEFF 		bl	assert_failed	@
 1032              	.LVL92:
 1033              	.L152:
 550:../STM32Cube_FW_F4_V1.4.0/Drivers/STM32F4xx_HAL_Driver/Src/stm32f4xx_ll_fsmc.c ****   assert_param(IS_FSMC_WAIT_TIME(Timing->WaitSetupTime));
 1034              		.loc 1 550 0 is_stmt 1
 1035 0018 6368     		ldr	r3, [r4, #4]	@ Timing_7(D)->WaitSetupTime, Timing_7(D)->WaitSetupTime
 1036 001a FF2B     		cmp	r3, #255	@ Timing_7(D)->WaitSetupTime,
 1037 001c 04D9     		bls	.L153	@,
 1038              		.loc 1 550 0 is_stmt 0 discriminator 1
 1039 001e 1448     		ldr	r0, .L160	@,
 1040 0020 40F22621 		movw	r1, #550	@,
 1041 0024 FFF7FEFF 		bl	assert_failed	@
 1042              	.LVL93:
 1043              	.L153:
 551:../STM32Cube_FW_F4_V1.4.0/Drivers/STM32F4xx_HAL_Driver/Src/stm32f4xx_ll_fsmc.c ****   assert_param(IS_FSMC_HOLD_TIME(Timing->HoldSetupTime));
 1044              		.loc 1 551 0 is_stmt 1
 1045 0028 A368     		ldr	r3, [r4, #8]	@ Timing_7(D)->HoldSetupTime, Timing_7(D)->HoldSetupTime
 1046 002a FF2B     		cmp	r3, #255	@ Timing_7(D)->HoldSetupTime,
 1047 002c 04D9     		bls	.L154	@,
 1048              		.loc 1 551 0 is_stmt 0 discriminator 1
 1049 002e 1048     		ldr	r0, .L160	@,
 1050 0030 40F22721 		movw	r1, #551	@,
 1051 0034 FFF7FEFF 		bl	assert_failed	@
 1052              	.LVL94:
 1053              	.L154:
 552:../STM32Cube_FW_F4_V1.4.0/Drivers/STM32F4xx_HAL_Driver/Src/stm32f4xx_ll_fsmc.c ****   assert_param(IS_FSMC_HIZ_TIME(Timing->HiZSetupTime));
 1054              		.loc 1 552 0 is_stmt 1
 1055 0038 E368     		ldr	r3, [r4, #12]	@ Timing_7(D)->HiZSetupTime, Timing_7(D)->HiZSetupTime
 1056 003a FF2B     		cmp	r3, #255	@ Timing_7(D)->HiZSetupTime,
 1057 003c 04D9     		bls	.L155	@,
 1058              		.loc 1 552 0 is_stmt 0 discriminator 1
 1059 003e 0C48     		ldr	r0, .L160	@,
 1060 0040 4FF40A71 		mov	r1, #552	@,
 1061 0044 FFF7FEFF 		bl	assert_failed	@
 1062              	.LVL95:
 1063              	.L155:
 553:../STM32Cube_FW_F4_V1.4.0/Drivers/STM32F4xx_HAL_Driver/Src/stm32f4xx_ll_fsmc.c ****   
 554:../STM32Cube_FW_F4_V1.4.0/Drivers/STM32F4xx_HAL_Driver/Src/stm32f4xx_ll_fsmc.c ****   if(Bank == FSMC_NAND_BANK2)
ARM GAS  C:\cygwin\tmp\ccPgEzdT.s 			page 30


 1064              		.loc 1 554 0 is_stmt 1
 1065 0048 102E     		cmp	r6, #16	@ Bank,
 555:../STM32Cube_FW_F4_V1.4.0/Drivers/STM32F4xx_HAL_Driver/Src/stm32f4xx_ll_fsmc.c ****   {
 556:../STM32Cube_FW_F4_V1.4.0/Drivers/STM32F4xx_HAL_Driver/Src/stm32f4xx_ll_fsmc.c ****     /* Get the NAND bank 2 register value */
 557:../STM32Cube_FW_F4_V1.4.0/Drivers/STM32F4xx_HAL_Driver/Src/stm32f4xx_ll_fsmc.c ****     tmpr = Device->PATT2;
 558:../STM32Cube_FW_F4_V1.4.0/Drivers/STM32F4xx_HAL_Driver/Src/stm32f4xx_ll_fsmc.c ****   }
 559:../STM32Cube_FW_F4_V1.4.0/Drivers/STM32F4xx_HAL_Driver/Src/stm32f4xx_ll_fsmc.c ****   else
 560:../STM32Cube_FW_F4_V1.4.0/Drivers/STM32F4xx_HAL_Driver/Src/stm32f4xx_ll_fsmc.c ****   {
 561:../STM32Cube_FW_F4_V1.4.0/Drivers/STM32F4xx_HAL_Driver/Src/stm32f4xx_ll_fsmc.c ****     /* Get the NAND bank 3 register value */
 562:../STM32Cube_FW_F4_V1.4.0/Drivers/STM32F4xx_HAL_Driver/Src/stm32f4xx_ll_fsmc.c ****     tmpr = Device->PATT3;
 563:../STM32Cube_FW_F4_V1.4.0/Drivers/STM32F4xx_HAL_Driver/Src/stm32f4xx_ll_fsmc.c ****   } 
 564:../STM32Cube_FW_F4_V1.4.0/Drivers/STM32F4xx_HAL_Driver/Src/stm32f4xx_ll_fsmc.c ****   
 565:../STM32Cube_FW_F4_V1.4.0/Drivers/STM32F4xx_HAL_Driver/Src/stm32f4xx_ll_fsmc.c ****   /* Clear ATTSETx, ATTWAITx, ATTHOLDx and ATTHIZx bits */
 566:../STM32Cube_FW_F4_V1.4.0/Drivers/STM32F4xx_HAL_Driver/Src/stm32f4xx_ll_fsmc.c ****   tmpr &= ((uint32_t)~(FSMC_PATT2_ATTSET2  | FSMC_PATT2_ATTWAIT2 | FSMC_PATT2_ATTHOLD2 | \
 567:../STM32Cube_FW_F4_V1.4.0/Drivers/STM32F4xx_HAL_Driver/Src/stm32f4xx_ll_fsmc.c ****                        FSMC_PATT2_ATTHIZ2));
 568:../STM32Cube_FW_F4_V1.4.0/Drivers/STM32F4xx_HAL_Driver/Src/stm32f4xx_ll_fsmc.c ****   
 569:../STM32Cube_FW_F4_V1.4.0/Drivers/STM32F4xx_HAL_Driver/Src/stm32f4xx_ll_fsmc.c ****   /* Set FSMC_NAND device timing parameters */
 570:../STM32Cube_FW_F4_V1.4.0/Drivers/STM32F4xx_HAL_Driver/Src/stm32f4xx_ll_fsmc.c ****   tmpr |= (uint32_t)(Timing->SetupTime                  |\
 571:../STM32Cube_FW_F4_V1.4.0/Drivers/STM32F4xx_HAL_Driver/Src/stm32f4xx_ll_fsmc.c ****                        ((Timing->WaitSetupTime) << 8)     |\
 572:../STM32Cube_FW_F4_V1.4.0/Drivers/STM32F4xx_HAL_Driver/Src/stm32f4xx_ll_fsmc.c ****                        ((Timing->HoldSetupTime) << 16)    |\
 1066              		.loc 1 572 0
 1067 004a A268     		ldr	r2, [r4, #8]	@ Timing_7(D)->HoldSetupTime, Timing_7(D)->HoldSetupTime
 557:../STM32Cube_FW_F4_V1.4.0/Drivers/STM32F4xx_HAL_Driver/Src/stm32f4xx_ll_fsmc.c ****   }
 1068              		.loc 1 557 0
 1069 004c 0CBF     		ite	eq
 1070 004e EB68     		ldreq	r3, [r5, #12]	@ tmpr, Device_17(D)->PATT2
 1071              	.LVL96:
 562:../STM32Cube_FW_F4_V1.4.0/Drivers/STM32F4xx_HAL_Driver/Src/stm32f4xx_ll_fsmc.c ****   } 
 1072              		.loc 1 562 0
 1073 0050 EB6A     		ldrne	r3, [r5, #44]	@ tmpr, Device_17(D)->PATT3
 1074              	.LVL97:
 571:../STM32Cube_FW_F4_V1.4.0/Drivers/STM32F4xx_HAL_Driver/Src/stm32f4xx_ll_fsmc.c ****                        ((Timing->HoldSetupTime) << 16)    |\
 1075              		.loc 1 571 0
 1076 0052 6368     		ldr	r3, [r4, #4]	@ Timing_7(D)->WaitSetupTime, Timing_7(D)->WaitSetupTime
 1077              		.loc 1 572 0
 1078 0054 1204     		lsls	r2, r2, #16	@ D.7996, Timing_7(D)->HoldSetupTime,
 1079 0056 42EA0322 		orr	r2, r2, r3, lsl #8	@, D.7996, D.7996, Timing_7(D)->WaitSetupTime,
 571:../STM32Cube_FW_F4_V1.4.0/Drivers/STM32F4xx_HAL_Driver/Src/stm32f4xx_ll_fsmc.c ****                        ((Timing->HoldSetupTime) << 16)    |\
 1080              		.loc 1 571 0
 1081 005a 2368     		ldr	r3, [r4]	@ Timing_7(D)->SetupTime, Timing_7(D)->SetupTime
 1082 005c 1343     		orrs	r3, r3, r2	@, D.7996, Timing_7(D)->SetupTime, D.7996
 573:../STM32Cube_FW_F4_V1.4.0/Drivers/STM32F4xx_HAL_Driver/Src/stm32f4xx_ll_fsmc.c ****                        ((Timing->HiZSetupTime) << 24)
 1083              		.loc 1 573 0
 1084 005e E268     		ldr	r2, [r4, #12]	@ Timing_7(D)->HiZSetupTime, Timing_7(D)->HiZSetupTime
 574:../STM32Cube_FW_F4_V1.4.0/Drivers/STM32F4xx_HAL_Driver/Src/stm32f4xx_ll_fsmc.c ****                        );
 575:../STM32Cube_FW_F4_V1.4.0/Drivers/STM32F4xx_HAL_Driver/Src/stm32f4xx_ll_fsmc.c ****                        
 576:../STM32Cube_FW_F4_V1.4.0/Drivers/STM32F4xx_HAL_Driver/Src/stm32f4xx_ll_fsmc.c ****   if(Bank == FSMC_NAND_BANK2)
 1085              		.loc 1 576 0
 1086 0060 102E     		cmp	r6, #16	@ Bank,
 570:../STM32Cube_FW_F4_V1.4.0/Drivers/STM32F4xx_HAL_Driver/Src/stm32f4xx_ll_fsmc.c ****                        ((Timing->WaitSetupTime) << 8)     |\
 1087              		.loc 1 570 0
 1088 0062 43EA0263 		orr	r3, r3, r2, lsl #24	@, D.7996, D.7996, Timing_7(D)->HiZSetupTime,
 1089              	.LVL98:
 577:../STM32Cube_FW_F4_V1.4.0/Drivers/STM32F4xx_HAL_Driver/Src/stm32f4xx_ll_fsmc.c ****   {
 578:../STM32Cube_FW_F4_V1.4.0/Drivers/STM32F4xx_HAL_Driver/Src/stm32f4xx_ll_fsmc.c ****     /* NAND bank 2 registers configuration */
 579:../STM32Cube_FW_F4_V1.4.0/Drivers/STM32F4xx_HAL_Driver/Src/stm32f4xx_ll_fsmc.c ****     Device->PATT2 = tmpr;
 1090              		.loc 1 579 0
ARM GAS  C:\cygwin\tmp\ccPgEzdT.s 			page 31


 1091 0066 0CBF     		ite	eq
 1092 0068 EB60     		streq	r3, [r5, #12]	@ D.7996, Device_17(D)->PATT2
 580:../STM32Cube_FW_F4_V1.4.0/Drivers/STM32F4xx_HAL_Driver/Src/stm32f4xx_ll_fsmc.c ****   }
 581:../STM32Cube_FW_F4_V1.4.0/Drivers/STM32F4xx_HAL_Driver/Src/stm32f4xx_ll_fsmc.c ****   else
 582:../STM32Cube_FW_F4_V1.4.0/Drivers/STM32F4xx_HAL_Driver/Src/stm32f4xx_ll_fsmc.c ****   {
 583:../STM32Cube_FW_F4_V1.4.0/Drivers/STM32F4xx_HAL_Driver/Src/stm32f4xx_ll_fsmc.c ****     /* NAND bank 3 registers configuration */
 584:../STM32Cube_FW_F4_V1.4.0/Drivers/STM32F4xx_HAL_Driver/Src/stm32f4xx_ll_fsmc.c ****     Device->PATT3 = tmpr;
 1093              		.loc 1 584 0
 1094 006a EB62     		strne	r3, [r5, #44]	@ D.7996, Device_17(D)->PATT3
 585:../STM32Cube_FW_F4_V1.4.0/Drivers/STM32F4xx_HAL_Driver/Src/stm32f4xx_ll_fsmc.c ****   }   
 586:../STM32Cube_FW_F4_V1.4.0/Drivers/STM32F4xx_HAL_Driver/Src/stm32f4xx_ll_fsmc.c ****   
 587:../STM32Cube_FW_F4_V1.4.0/Drivers/STM32F4xx_HAL_Driver/Src/stm32f4xx_ll_fsmc.c ****   return HAL_OK;
 588:../STM32Cube_FW_F4_V1.4.0/Drivers/STM32F4xx_HAL_Driver/Src/stm32f4xx_ll_fsmc.c **** }
 1095              		.loc 1 588 0
 1096 006c 0020     		movs	r0, #0	@,
 1097 006e 70BD     		pop	{r4, r5, r6, pc}	@
 1098              	.LVL99:
 1099              	.L161:
 1100              		.align	2
 1101              	.L160:
 1102 0070 00000000 		.word	.LC0
 1103              		.cfi_endproc
 1104              	.LFE131:
 1105              		.size	FSMC_NAND_AttributeSpace_Timing_Init, .-FSMC_NAND_AttributeSpace_Timing_Init
 1106              		.section	.text.FSMC_NAND_DeInit,"ax",%progbits
 1107              		.align	1
 1108              		.global	FSMC_NAND_DeInit
 1109              		.thumb
 1110              		.thumb_func
 1111              		.type	FSMC_NAND_DeInit, %function
 1112              	FSMC_NAND_DeInit:
 1113              	.LFB132:
 589:../STM32Cube_FW_F4_V1.4.0/Drivers/STM32F4xx_HAL_Driver/Src/stm32f4xx_ll_fsmc.c **** 
 590:../STM32Cube_FW_F4_V1.4.0/Drivers/STM32F4xx_HAL_Driver/Src/stm32f4xx_ll_fsmc.c **** /**
 591:../STM32Cube_FW_F4_V1.4.0/Drivers/STM32F4xx_HAL_Driver/Src/stm32f4xx_ll_fsmc.c ****   * @brief  DeInitializes the FSMC_NAND device 
 592:../STM32Cube_FW_F4_V1.4.0/Drivers/STM32F4xx_HAL_Driver/Src/stm32f4xx_ll_fsmc.c ****   * @param  Device: Pointer to NAND device instance
 593:../STM32Cube_FW_F4_V1.4.0/Drivers/STM32F4xx_HAL_Driver/Src/stm32f4xx_ll_fsmc.c ****   * @param  Bank: NAND bank number
 594:../STM32Cube_FW_F4_V1.4.0/Drivers/STM32F4xx_HAL_Driver/Src/stm32f4xx_ll_fsmc.c ****   * @retval HAL status
 595:../STM32Cube_FW_F4_V1.4.0/Drivers/STM32F4xx_HAL_Driver/Src/stm32f4xx_ll_fsmc.c ****   */
 596:../STM32Cube_FW_F4_V1.4.0/Drivers/STM32F4xx_HAL_Driver/Src/stm32f4xx_ll_fsmc.c **** HAL_StatusTypeDef FSMC_NAND_DeInit(FSMC_NAND_TypeDef *Device, uint32_t Bank)
 597:../STM32Cube_FW_F4_V1.4.0/Drivers/STM32F4xx_HAL_Driver/Src/stm32f4xx_ll_fsmc.c **** {
 1114              		.loc 1 597 0
 1115              		.cfi_startproc
 1116              		@ args = 0, pretend = 0, frame = 0
 1117              		@ frame_needed = 0, uses_anonymous_args = 0
 1118              		@ link register save eliminated.
 1119              	.LVL100:
 598:../STM32Cube_FW_F4_V1.4.0/Drivers/STM32F4xx_HAL_Driver/Src/stm32f4xx_ll_fsmc.c ****   /* Disable the NAND Bank */
 599:../STM32Cube_FW_F4_V1.4.0/Drivers/STM32F4xx_HAL_Driver/Src/stm32f4xx_ll_fsmc.c ****   __FSMC_NAND_DISABLE(Device, Bank);
 1120              		.loc 1 599 0
 1121 0000 1029     		cmp	r1, #16	@ Bank,
 1122 0002 4FF01802 		mov	r2, #24	@ tmp126,
 1123 0006 0BD1     		bne	.L163	@,
 1124              		.loc 1 599 0 is_stmt 0 discriminator 1
 1125 0008 0368     		ldr	r3, [r0]	@ D.7999, Device_5(D)->PCR2
 1126 000a 23F00403 		bic	r3, r3, #4	@ D.7999, D.7999,
 1127 000e 0360     		str	r3, [r0]	@ D.7999, Device_5(D)->PCR2
ARM GAS  C:\cygwin\tmp\ccPgEzdT.s 			page 32


 600:../STM32Cube_FW_F4_V1.4.0/Drivers/STM32F4xx_HAL_Driver/Src/stm32f4xx_ll_fsmc.c ****  
 601:../STM32Cube_FW_F4_V1.4.0/Drivers/STM32F4xx_HAL_Driver/Src/stm32f4xx_ll_fsmc.c ****   /* De-initialize the NAND Bank */
 602:../STM32Cube_FW_F4_V1.4.0/Drivers/STM32F4xx_HAL_Driver/Src/stm32f4xx_ll_fsmc.c ****   if(Bank == FSMC_NAND_BANK2)
 603:../STM32Cube_FW_F4_V1.4.0/Drivers/STM32F4xx_HAL_Driver/Src/stm32f4xx_ll_fsmc.c ****   {
 604:../STM32Cube_FW_F4_V1.4.0/Drivers/STM32F4xx_HAL_Driver/Src/stm32f4xx_ll_fsmc.c ****     /* Set the FSMC_NAND_BANK2 registers to their reset values */
 605:../STM32Cube_FW_F4_V1.4.0/Drivers/STM32F4xx_HAL_Driver/Src/stm32f4xx_ll_fsmc.c ****     Device->PCR2  = 0x00000018;
 606:../STM32Cube_FW_F4_V1.4.0/Drivers/STM32F4xx_HAL_Driver/Src/stm32f4xx_ll_fsmc.c ****     Device->SR2   = 0x00000040;
 1128              		.loc 1 606 0 is_stmt 1 discriminator 1
 1129 0010 4023     		movs	r3, #64	@ tmp118,
 605:../STM32Cube_FW_F4_V1.4.0/Drivers/STM32F4xx_HAL_Driver/Src/stm32f4xx_ll_fsmc.c ****     Device->SR2   = 0x00000040;
 1130              		.loc 1 605 0 discriminator 1
 1131 0012 0260     		str	r2, [r0]	@ tmp126, Device_5(D)->PCR2
 1132              		.loc 1 606 0 discriminator 1
 1133 0014 4360     		str	r3, [r0, #4]	@ tmp118, Device_5(D)->SR2
 607:../STM32Cube_FW_F4_V1.4.0/Drivers/STM32F4xx_HAL_Driver/Src/stm32f4xx_ll_fsmc.c ****     Device->PMEM2 = 0xFCFCFCFC;
 1134              		.loc 1 607 0 discriminator 1
 1135 0016 4FF0FC33 		mov	r3, #-50529028	@ tmp119,
 1136 001a 8360     		str	r3, [r0, #8]	@ tmp119, Device_5(D)->PMEM2
 608:../STM32Cube_FW_F4_V1.4.0/Drivers/STM32F4xx_HAL_Driver/Src/stm32f4xx_ll_fsmc.c ****     Device->PATT2 = 0xFCFCFCFC;  
 1137              		.loc 1 608 0 discriminator 1
 1138 001c C360     		str	r3, [r0, #12]	@ tmp119, Device_5(D)->PATT2
 1139 001e 0AE0     		b	.L164	@
 1140              	.L163:
 599:../STM32Cube_FW_F4_V1.4.0/Drivers/STM32F4xx_HAL_Driver/Src/stm32f4xx_ll_fsmc.c ****  
 1141              		.loc 1 599 0 discriminator 2
 1142 0020 036A     		ldr	r3, [r0, #32]	@ D.7999, Device_5(D)->PCR3
 1143 0022 23F00403 		bic	r3, r3, #4	@ D.7999, D.7999,
 1144 0026 0362     		str	r3, [r0, #32]	@ D.7999, Device_5(D)->PCR3
 609:../STM32Cube_FW_F4_V1.4.0/Drivers/STM32F4xx_HAL_Driver/Src/stm32f4xx_ll_fsmc.c ****   }
 610:../STM32Cube_FW_F4_V1.4.0/Drivers/STM32F4xx_HAL_Driver/Src/stm32f4xx_ll_fsmc.c ****   /* FSMC_Bank3_NAND */  
 611:../STM32Cube_FW_F4_V1.4.0/Drivers/STM32F4xx_HAL_Driver/Src/stm32f4xx_ll_fsmc.c ****   else
 612:../STM32Cube_FW_F4_V1.4.0/Drivers/STM32F4xx_HAL_Driver/Src/stm32f4xx_ll_fsmc.c ****   {
 613:../STM32Cube_FW_F4_V1.4.0/Drivers/STM32F4xx_HAL_Driver/Src/stm32f4xx_ll_fsmc.c ****     /* Set the FSMC_NAND_BANK3 registers to their reset values */
 614:../STM32Cube_FW_F4_V1.4.0/Drivers/STM32F4xx_HAL_Driver/Src/stm32f4xx_ll_fsmc.c ****     Device->PCR3  = 0x00000018;
 615:../STM32Cube_FW_F4_V1.4.0/Drivers/STM32F4xx_HAL_Driver/Src/stm32f4xx_ll_fsmc.c ****     Device->SR3   = 0x00000040;
 1145              		.loc 1 615 0 discriminator 2
 1146 0028 4023     		movs	r3, #64	@ tmp122,
 614:../STM32Cube_FW_F4_V1.4.0/Drivers/STM32F4xx_HAL_Driver/Src/stm32f4xx_ll_fsmc.c ****     Device->SR3   = 0x00000040;
 1147              		.loc 1 614 0 discriminator 2
 1148 002a 0262     		str	r2, [r0, #32]	@ tmp126, Device_5(D)->PCR3
 1149              		.loc 1 615 0 discriminator 2
 1150 002c 4362     		str	r3, [r0, #36]	@ tmp122, Device_5(D)->SR3
 616:../STM32Cube_FW_F4_V1.4.0/Drivers/STM32F4xx_HAL_Driver/Src/stm32f4xx_ll_fsmc.c ****     Device->PMEM3 = 0xFCFCFCFC;
 1151              		.loc 1 616 0 discriminator 2
 1152 002e 4FF0FC33 		mov	r3, #-50529028	@ tmp123,
 1153 0032 8362     		str	r3, [r0, #40]	@ tmp123, Device_5(D)->PMEM3
 617:../STM32Cube_FW_F4_V1.4.0/Drivers/STM32F4xx_HAL_Driver/Src/stm32f4xx_ll_fsmc.c ****     Device->PATT3 = 0xFCFCFCFC; 
 1154              		.loc 1 617 0 discriminator 2
 1155 0034 C362     		str	r3, [r0, #44]	@ tmp123, Device_5(D)->PATT3
 1156              	.L164:
 618:../STM32Cube_FW_F4_V1.4.0/Drivers/STM32F4xx_HAL_Driver/Src/stm32f4xx_ll_fsmc.c ****   }
 619:../STM32Cube_FW_F4_V1.4.0/Drivers/STM32F4xx_HAL_Driver/Src/stm32f4xx_ll_fsmc.c ****   
 620:../STM32Cube_FW_F4_V1.4.0/Drivers/STM32F4xx_HAL_Driver/Src/stm32f4xx_ll_fsmc.c ****   return HAL_OK;
 621:../STM32Cube_FW_F4_V1.4.0/Drivers/STM32F4xx_HAL_Driver/Src/stm32f4xx_ll_fsmc.c **** }
 1157              		.loc 1 621 0
 1158 0036 0020     		movs	r0, #0	@,
 1159              	.LVL101:
ARM GAS  C:\cygwin\tmp\ccPgEzdT.s 			page 33


 1160 0038 7047     		bx	lr	@
 1161              		.cfi_endproc
 1162              	.LFE132:
 1163              		.size	FSMC_NAND_DeInit, .-FSMC_NAND_DeInit
 1164              		.section	.text.FSMC_NAND_ECC_Enable,"ax",%progbits
 1165              		.align	1
 1166              		.global	FSMC_NAND_ECC_Enable
 1167              		.thumb
 1168              		.thumb_func
 1169              		.type	FSMC_NAND_ECC_Enable, %function
 1170              	FSMC_NAND_ECC_Enable:
 1171              	.LFB133:
 622:../STM32Cube_FW_F4_V1.4.0/Drivers/STM32F4xx_HAL_Driver/Src/stm32f4xx_ll_fsmc.c **** /**
 623:../STM32Cube_FW_F4_V1.4.0/Drivers/STM32F4xx_HAL_Driver/Src/stm32f4xx_ll_fsmc.c ****   * @}
 624:../STM32Cube_FW_F4_V1.4.0/Drivers/STM32F4xx_HAL_Driver/Src/stm32f4xx_ll_fsmc.c ****   */
 625:../STM32Cube_FW_F4_V1.4.0/Drivers/STM32F4xx_HAL_Driver/Src/stm32f4xx_ll_fsmc.c ****   
 626:../STM32Cube_FW_F4_V1.4.0/Drivers/STM32F4xx_HAL_Driver/Src/stm32f4xx_ll_fsmc.c **** /** @addtogroup FSMC_LL_NAND_Private_Functions_Group2
 627:../STM32Cube_FW_F4_V1.4.0/Drivers/STM32F4xx_HAL_Driver/Src/stm32f4xx_ll_fsmc.c ****   *  @brief   management functions 
 628:../STM32Cube_FW_F4_V1.4.0/Drivers/STM32F4xx_HAL_Driver/Src/stm32f4xx_ll_fsmc.c ****   *
 629:../STM32Cube_FW_F4_V1.4.0/Drivers/STM32F4xx_HAL_Driver/Src/stm32f4xx_ll_fsmc.c **** @verbatim   
 630:../STM32Cube_FW_F4_V1.4.0/Drivers/STM32F4xx_HAL_Driver/Src/stm32f4xx_ll_fsmc.c ****   ==============================================================================
 631:../STM32Cube_FW_F4_V1.4.0/Drivers/STM32F4xx_HAL_Driver/Src/stm32f4xx_ll_fsmc.c ****                        ##### FSMC_NAND Control functions #####
 632:../STM32Cube_FW_F4_V1.4.0/Drivers/STM32F4xx_HAL_Driver/Src/stm32f4xx_ll_fsmc.c ****   ==============================================================================  
 633:../STM32Cube_FW_F4_V1.4.0/Drivers/STM32F4xx_HAL_Driver/Src/stm32f4xx_ll_fsmc.c ****   [..]
 634:../STM32Cube_FW_F4_V1.4.0/Drivers/STM32F4xx_HAL_Driver/Src/stm32f4xx_ll_fsmc.c ****     This subsection provides a set of functions allowing to control dynamically
 635:../STM32Cube_FW_F4_V1.4.0/Drivers/STM32F4xx_HAL_Driver/Src/stm32f4xx_ll_fsmc.c ****     the FSMC NAND interface.
 636:../STM32Cube_FW_F4_V1.4.0/Drivers/STM32F4xx_HAL_Driver/Src/stm32f4xx_ll_fsmc.c **** 
 637:../STM32Cube_FW_F4_V1.4.0/Drivers/STM32F4xx_HAL_Driver/Src/stm32f4xx_ll_fsmc.c **** @endverbatim
 638:../STM32Cube_FW_F4_V1.4.0/Drivers/STM32F4xx_HAL_Driver/Src/stm32f4xx_ll_fsmc.c ****   * @{
 639:../STM32Cube_FW_F4_V1.4.0/Drivers/STM32F4xx_HAL_Driver/Src/stm32f4xx_ll_fsmc.c ****   */ 
 640:../STM32Cube_FW_F4_V1.4.0/Drivers/STM32F4xx_HAL_Driver/Src/stm32f4xx_ll_fsmc.c ****     
 641:../STM32Cube_FW_F4_V1.4.0/Drivers/STM32F4xx_HAL_Driver/Src/stm32f4xx_ll_fsmc.c **** /**
 642:../STM32Cube_FW_F4_V1.4.0/Drivers/STM32F4xx_HAL_Driver/Src/stm32f4xx_ll_fsmc.c ****   * @brief  Enables dynamically FSMC_NAND ECC feature.
 643:../STM32Cube_FW_F4_V1.4.0/Drivers/STM32F4xx_HAL_Driver/Src/stm32f4xx_ll_fsmc.c ****   * @param  Device: Pointer to NAND device instance
 644:../STM32Cube_FW_F4_V1.4.0/Drivers/STM32F4xx_HAL_Driver/Src/stm32f4xx_ll_fsmc.c ****   * @param  Bank: NAND bank number
 645:../STM32Cube_FW_F4_V1.4.0/Drivers/STM32F4xx_HAL_Driver/Src/stm32f4xx_ll_fsmc.c ****   * @retval HAL status
 646:../STM32Cube_FW_F4_V1.4.0/Drivers/STM32F4xx_HAL_Driver/Src/stm32f4xx_ll_fsmc.c ****   */    
 647:../STM32Cube_FW_F4_V1.4.0/Drivers/STM32F4xx_HAL_Driver/Src/stm32f4xx_ll_fsmc.c **** HAL_StatusTypeDef  FSMC_NAND_ECC_Enable(FSMC_NAND_TypeDef *Device, uint32_t Bank)
 648:../STM32Cube_FW_F4_V1.4.0/Drivers/STM32F4xx_HAL_Driver/Src/stm32f4xx_ll_fsmc.c **** {
 1172              		.loc 1 648 0
 1173              		.cfi_startproc
 1174              		@ args = 0, pretend = 0, frame = 0
 1175              		@ frame_needed = 0, uses_anonymous_args = 0
 1176              		@ link register save eliminated.
 1177              	.LVL102:
 649:../STM32Cube_FW_F4_V1.4.0/Drivers/STM32F4xx_HAL_Driver/Src/stm32f4xx_ll_fsmc.c ****   /* Enable ECC feature */
 650:../STM32Cube_FW_F4_V1.4.0/Drivers/STM32F4xx_HAL_Driver/Src/stm32f4xx_ll_fsmc.c ****   if(Bank == FSMC_NAND_BANK2)
 1178              		.loc 1 650 0
 1179 0000 1029     		cmp	r1, #16	@ Bank,
 651:../STM32Cube_FW_F4_V1.4.0/Drivers/STM32F4xx_HAL_Driver/Src/stm32f4xx_ll_fsmc.c ****   {
 652:../STM32Cube_FW_F4_V1.4.0/Drivers/STM32F4xx_HAL_Driver/Src/stm32f4xx_ll_fsmc.c ****     Device->PCR2 |= FSMC_PCR2_ECCEN;
 1180              		.loc 1 652 0
 1181 0002 0BBF     		itete	eq
 1182 0004 0368     		ldreq	r3, [r0]	@ D.8002, Device_4(D)->PCR2
 653:../STM32Cube_FW_F4_V1.4.0/Drivers/STM32F4xx_HAL_Driver/Src/stm32f4xx_ll_fsmc.c ****   }
 654:../STM32Cube_FW_F4_V1.4.0/Drivers/STM32F4xx_HAL_Driver/Src/stm32f4xx_ll_fsmc.c ****   else
 655:../STM32Cube_FW_F4_V1.4.0/Drivers/STM32F4xx_HAL_Driver/Src/stm32f4xx_ll_fsmc.c ****   {
ARM GAS  C:\cygwin\tmp\ccPgEzdT.s 			page 34


 656:../STM32Cube_FW_F4_V1.4.0/Drivers/STM32F4xx_HAL_Driver/Src/stm32f4xx_ll_fsmc.c ****     Device->PCR3 |= FSMC_PCR3_ECCEN;
 1183              		.loc 1 656 0
 1184 0006 036A     		ldrne	r3, [r0, #32]	@ D.8002, Device_4(D)->PCR3
 652:../STM32Cube_FW_F4_V1.4.0/Drivers/STM32F4xx_HAL_Driver/Src/stm32f4xx_ll_fsmc.c ****   }
 1185              		.loc 1 652 0
 1186 0008 43F04003 		orreq	r3, r3, #64	@ D.8002, D.8002,
 1187              		.loc 1 656 0
 1188 000c 43F04003 		orrne	r3, r3, #64	@ D.8002, D.8002,
 652:../STM32Cube_FW_F4_V1.4.0/Drivers/STM32F4xx_HAL_Driver/Src/stm32f4xx_ll_fsmc.c ****   }
 1189              		.loc 1 652 0
 1190 0010 0CBF     		ite	eq
 1191 0012 0360     		streq	r3, [r0]	@ D.8002, Device_4(D)->PCR2
 1192              		.loc 1 656 0
 1193 0014 0362     		strne	r3, [r0, #32]	@ D.8002, Device_4(D)->PCR3
 657:../STM32Cube_FW_F4_V1.4.0/Drivers/STM32F4xx_HAL_Driver/Src/stm32f4xx_ll_fsmc.c ****   } 
 658:../STM32Cube_FW_F4_V1.4.0/Drivers/STM32F4xx_HAL_Driver/Src/stm32f4xx_ll_fsmc.c ****   
 659:../STM32Cube_FW_F4_V1.4.0/Drivers/STM32F4xx_HAL_Driver/Src/stm32f4xx_ll_fsmc.c ****   return HAL_OK;  
 660:../STM32Cube_FW_F4_V1.4.0/Drivers/STM32F4xx_HAL_Driver/Src/stm32f4xx_ll_fsmc.c **** }
 1194              		.loc 1 660 0
 1195 0016 0020     		movs	r0, #0	@,
 1196              	.LVL103:
 1197 0018 7047     		bx	lr	@
 1198              		.cfi_endproc
 1199              	.LFE133:
 1200              		.size	FSMC_NAND_ECC_Enable, .-FSMC_NAND_ECC_Enable
 1201              		.section	.text.FSMC_NAND_ECC_Disable,"ax",%progbits
 1202              		.align	1
 1203              		.global	FSMC_NAND_ECC_Disable
 1204              		.thumb
 1205              		.thumb_func
 1206              		.type	FSMC_NAND_ECC_Disable, %function
 1207              	FSMC_NAND_ECC_Disable:
 1208              	.LFB134:
 661:../STM32Cube_FW_F4_V1.4.0/Drivers/STM32F4xx_HAL_Driver/Src/stm32f4xx_ll_fsmc.c **** 
 662:../STM32Cube_FW_F4_V1.4.0/Drivers/STM32F4xx_HAL_Driver/Src/stm32f4xx_ll_fsmc.c **** /**
 663:../STM32Cube_FW_F4_V1.4.0/Drivers/STM32F4xx_HAL_Driver/Src/stm32f4xx_ll_fsmc.c ****   * @brief  Disables dynamically FSMC_NAND ECC feature.
 664:../STM32Cube_FW_F4_V1.4.0/Drivers/STM32F4xx_HAL_Driver/Src/stm32f4xx_ll_fsmc.c ****   * @param  Device: Pointer to NAND device instance
 665:../STM32Cube_FW_F4_V1.4.0/Drivers/STM32F4xx_HAL_Driver/Src/stm32f4xx_ll_fsmc.c ****   * @param  Bank: NAND bank number
 666:../STM32Cube_FW_F4_V1.4.0/Drivers/STM32F4xx_HAL_Driver/Src/stm32f4xx_ll_fsmc.c ****   * @retval HAL status
 667:../STM32Cube_FW_F4_V1.4.0/Drivers/STM32F4xx_HAL_Driver/Src/stm32f4xx_ll_fsmc.c ****   */  
 668:../STM32Cube_FW_F4_V1.4.0/Drivers/STM32F4xx_HAL_Driver/Src/stm32f4xx_ll_fsmc.c **** HAL_StatusTypeDef FSMC_NAND_ECC_Disable(FSMC_NAND_TypeDef *Device, uint32_t Bank)  
 669:../STM32Cube_FW_F4_V1.4.0/Drivers/STM32F4xx_HAL_Driver/Src/stm32f4xx_ll_fsmc.c **** {  
 1209              		.loc 1 669 0
 1210              		.cfi_startproc
 1211              		@ args = 0, pretend = 0, frame = 0
 1212              		@ frame_needed = 0, uses_anonymous_args = 0
 1213              		@ link register save eliminated.
 1214              	.LVL104:
 670:../STM32Cube_FW_F4_V1.4.0/Drivers/STM32F4xx_HAL_Driver/Src/stm32f4xx_ll_fsmc.c ****   /* Disable ECC feature */
 671:../STM32Cube_FW_F4_V1.4.0/Drivers/STM32F4xx_HAL_Driver/Src/stm32f4xx_ll_fsmc.c ****   if(Bank == FSMC_NAND_BANK2)
 1215              		.loc 1 671 0
 1216 0000 1029     		cmp	r1, #16	@ Bank,
 672:../STM32Cube_FW_F4_V1.4.0/Drivers/STM32F4xx_HAL_Driver/Src/stm32f4xx_ll_fsmc.c ****   {
 673:../STM32Cube_FW_F4_V1.4.0/Drivers/STM32F4xx_HAL_Driver/Src/stm32f4xx_ll_fsmc.c ****     Device->PCR2 &= ~FSMC_PCR2_ECCEN;
 1217              		.loc 1 673 0
 1218 0002 0BBF     		itete	eq
 1219 0004 0368     		ldreq	r3, [r0]	@ D.8005, Device_4(D)->PCR2
ARM GAS  C:\cygwin\tmp\ccPgEzdT.s 			page 35


 674:../STM32Cube_FW_F4_V1.4.0/Drivers/STM32F4xx_HAL_Driver/Src/stm32f4xx_ll_fsmc.c ****   }
 675:../STM32Cube_FW_F4_V1.4.0/Drivers/STM32F4xx_HAL_Driver/Src/stm32f4xx_ll_fsmc.c ****   else
 676:../STM32Cube_FW_F4_V1.4.0/Drivers/STM32F4xx_HAL_Driver/Src/stm32f4xx_ll_fsmc.c ****   {
 677:../STM32Cube_FW_F4_V1.4.0/Drivers/STM32F4xx_HAL_Driver/Src/stm32f4xx_ll_fsmc.c ****     Device->PCR3 &= ~FSMC_PCR3_ECCEN;
 1220              		.loc 1 677 0
 1221 0006 036A     		ldrne	r3, [r0, #32]	@ D.8005, Device_4(D)->PCR3
 673:../STM32Cube_FW_F4_V1.4.0/Drivers/STM32F4xx_HAL_Driver/Src/stm32f4xx_ll_fsmc.c ****   }
 1222              		.loc 1 673 0
 1223 0008 23F04003 		biceq	r3, r3, #64	@ D.8005, D.8005,
 1224              		.loc 1 677 0
 1225 000c 23F04003 		bicne	r3, r3, #64	@ D.8005, D.8005,
 673:../STM32Cube_FW_F4_V1.4.0/Drivers/STM32F4xx_HAL_Driver/Src/stm32f4xx_ll_fsmc.c ****   }
 1226              		.loc 1 673 0
 1227 0010 0CBF     		ite	eq
 1228 0012 0360     		streq	r3, [r0]	@ D.8005, Device_4(D)->PCR2
 1229              		.loc 1 677 0
 1230 0014 0362     		strne	r3, [r0, #32]	@ D.8005, Device_4(D)->PCR3
 678:../STM32Cube_FW_F4_V1.4.0/Drivers/STM32F4xx_HAL_Driver/Src/stm32f4xx_ll_fsmc.c ****   } 
 679:../STM32Cube_FW_F4_V1.4.0/Drivers/STM32F4xx_HAL_Driver/Src/stm32f4xx_ll_fsmc.c **** 
 680:../STM32Cube_FW_F4_V1.4.0/Drivers/STM32F4xx_HAL_Driver/Src/stm32f4xx_ll_fsmc.c ****   return HAL_OK;  
 681:../STM32Cube_FW_F4_V1.4.0/Drivers/STM32F4xx_HAL_Driver/Src/stm32f4xx_ll_fsmc.c **** }
 1231              		.loc 1 681 0
 1232 0016 0020     		movs	r0, #0	@,
 1233              	.LVL105:
 1234 0018 7047     		bx	lr	@
 1235              		.cfi_endproc
 1236              	.LFE134:
 1237              		.size	FSMC_NAND_ECC_Disable, .-FSMC_NAND_ECC_Disable
 1238              		.section	.text.FSMC_NAND_GetECC,"ax",%progbits
 1239              		.align	1
 1240              		.global	FSMC_NAND_GetECC
 1241              		.thumb
 1242              		.thumb_func
 1243              		.type	FSMC_NAND_GetECC, %function
 1244              	FSMC_NAND_GetECC:
 1245              	.LFB135:
 682:../STM32Cube_FW_F4_V1.4.0/Drivers/STM32F4xx_HAL_Driver/Src/stm32f4xx_ll_fsmc.c **** 
 683:../STM32Cube_FW_F4_V1.4.0/Drivers/STM32F4xx_HAL_Driver/Src/stm32f4xx_ll_fsmc.c **** /**
 684:../STM32Cube_FW_F4_V1.4.0/Drivers/STM32F4xx_HAL_Driver/Src/stm32f4xx_ll_fsmc.c ****   * @brief  Disables dynamically FSMC_NAND ECC feature.
 685:../STM32Cube_FW_F4_V1.4.0/Drivers/STM32F4xx_HAL_Driver/Src/stm32f4xx_ll_fsmc.c ****   * @param  Device: Pointer to NAND device instance
 686:../STM32Cube_FW_F4_V1.4.0/Drivers/STM32F4xx_HAL_Driver/Src/stm32f4xx_ll_fsmc.c ****   * @param  ECCval: Pointer to ECC value
 687:../STM32Cube_FW_F4_V1.4.0/Drivers/STM32F4xx_HAL_Driver/Src/stm32f4xx_ll_fsmc.c ****   * @param  Bank: NAND bank number
 688:../STM32Cube_FW_F4_V1.4.0/Drivers/STM32F4xx_HAL_Driver/Src/stm32f4xx_ll_fsmc.c ****   * @param  Timeout: Timeout wait value  
 689:../STM32Cube_FW_F4_V1.4.0/Drivers/STM32F4xx_HAL_Driver/Src/stm32f4xx_ll_fsmc.c ****   * @retval HAL status
 690:../STM32Cube_FW_F4_V1.4.0/Drivers/STM32F4xx_HAL_Driver/Src/stm32f4xx_ll_fsmc.c ****   */
 691:../STM32Cube_FW_F4_V1.4.0/Drivers/STM32F4xx_HAL_Driver/Src/stm32f4xx_ll_fsmc.c **** HAL_StatusTypeDef FSMC_NAND_GetECC(FSMC_NAND_TypeDef *Device, uint32_t *ECCval, uint32_t Bank, uint
 692:../STM32Cube_FW_F4_V1.4.0/Drivers/STM32F4xx_HAL_Driver/Src/stm32f4xx_ll_fsmc.c **** {
 1246              		.loc 1 692 0
 1247              		.cfi_startproc
 1248              		@ args = 0, pretend = 0, frame = 0
 1249              		@ frame_needed = 0, uses_anonymous_args = 0
 1250              	.LVL106:
 1251 0000 2DE9F041 		push	{r4, r5, r6, r7, r8, lr}	@
 1252              		.cfi_def_cfa_offset 24
 1253              		.cfi_offset 4, -24
 1254              		.cfi_offset 5, -20
 1255              		.cfi_offset 6, -16
ARM GAS  C:\cygwin\tmp\ccPgEzdT.s 			page 36


 1256              		.cfi_offset 7, -12
 1257              		.cfi_offset 8, -8
 1258              		.cfi_offset 14, -4
 1259              		.loc 1 692 0
 1260 0004 1E46     		mov	r6, r3	@ Timeout, Timeout
 693:../STM32Cube_FW_F4_V1.4.0/Drivers/STM32F4xx_HAL_Driver/Src/stm32f4xx_ll_fsmc.c ****   uint32_t tickstart = 0;
 694:../STM32Cube_FW_F4_V1.4.0/Drivers/STM32F4xx_HAL_Driver/Src/stm32f4xx_ll_fsmc.c ****   
 695:../STM32Cube_FW_F4_V1.4.0/Drivers/STM32F4xx_HAL_Driver/Src/stm32f4xx_ll_fsmc.c ****   /* Check the parameters */ 
 696:../STM32Cube_FW_F4_V1.4.0/Drivers/STM32F4xx_HAL_Driver/Src/stm32f4xx_ll_fsmc.c ****   assert_param(IS_FSMC_NAND_DEVICE(Device)); 
 1261              		.loc 1 696 0
 1262 0006 1A4B     		ldr	r3, .L194	@ tmp126,
 1263              	.LVL107:
 1264 0008 9842     		cmp	r0, r3	@ Device, tmp126
 692:../STM32Cube_FW_F4_V1.4.0/Drivers/STM32F4xx_HAL_Driver/Src/stm32f4xx_ll_fsmc.c ****   uint32_t tickstart = 0;
 1265              		.loc 1 692 0
 1266 000a 0446     		mov	r4, r0	@ Device, Device
 1267 000c 0F46     		mov	r7, r1	@ ECCval, ECCval
 1268 000e 1546     		mov	r5, r2	@ Bank, Bank
 1269              		.loc 1 696 0
 1270 0010 04D0     		beq	.L172	@,
 1271              		.loc 1 696 0 is_stmt 0 discriminator 1
 1272 0012 1848     		ldr	r0, .L194+4	@,
 1273              	.LVL108:
 1274 0014 4FF42E71 		mov	r1, #696	@,
 1275              	.LVL109:
 1276 0018 FFF7FEFF 		bl	assert_failed	@
 1277              	.LVL110:
 1278              	.L172:
 697:../STM32Cube_FW_F4_V1.4.0/Drivers/STM32F4xx_HAL_Driver/Src/stm32f4xx_ll_fsmc.c ****   assert_param(IS_FSMC_NAND_BANK(Bank));
 1279              		.loc 1 697 0 is_stmt 1
 1280 001c 102D     		cmp	r5, #16	@ Bank,
 1281 001e 07D0     		beq	.L173	@,
 1282              		.loc 1 697 0 is_stmt 0 discriminator 1
 1283 0020 B5F5807F 		cmp	r5, #256	@ Bank,
 1284 0024 04D0     		beq	.L173	@,
 1285              		.loc 1 697 0 discriminator 2
 1286 0026 1348     		ldr	r0, .L194+4	@,
 1287 0028 40F2B921 		movw	r1, #697	@,
 1288 002c FFF7FEFF 		bl	assert_failed	@
 1289              	.LVL111:
 1290              	.L173:
 698:../STM32Cube_FW_F4_V1.4.0/Drivers/STM32F4xx_HAL_Driver/Src/stm32f4xx_ll_fsmc.c **** 
 699:../STM32Cube_FW_F4_V1.4.0/Drivers/STM32F4xx_HAL_Driver/Src/stm32f4xx_ll_fsmc.c ****   /* Get tick */ 
 700:../STM32Cube_FW_F4_V1.4.0/Drivers/STM32F4xx_HAL_Driver/Src/stm32f4xx_ll_fsmc.c ****   tickstart = HAL_GetTick();
 1291              		.loc 1 700 0 is_stmt 1
 1292 0030 FFF7FEFF 		bl	HAL_GetTick	@
 1293              	.LVL112:
 1294 0034 8046     		mov	r8, r0	@ tickstart,
 1295              	.LVL113:
 1296              	.L175:
 701:../STM32Cube_FW_F4_V1.4.0/Drivers/STM32F4xx_HAL_Driver/Src/stm32f4xx_ll_fsmc.c **** 
 702:../STM32Cube_FW_F4_V1.4.0/Drivers/STM32F4xx_HAL_Driver/Src/stm32f4xx_ll_fsmc.c ****   /* Wait until FIFO is empty */
 703:../STM32Cube_FW_F4_V1.4.0/Drivers/STM32F4xx_HAL_Driver/Src/stm32f4xx_ll_fsmc.c ****   while(__FSMC_NAND_GET_FLAG(Device, Bank, FSMC_FLAG_FEMPT) == RESET)
 1297              		.loc 1 703 0
 1298 0036 102D     		cmp	r5, #16	@ Bank,
 1299 0038 0CBF     		ite	eq
 1300 003a 6068     		ldreq	r0, [r4, #4]	@ D.8010, Device_8(D)->SR2
ARM GAS  C:\cygwin\tmp\ccPgEzdT.s 			page 37


 1301 003c 606A     		ldrne	r0, [r4, #36]	@ D.8010, Device_8(D)->SR3
 1302 003e 80F04000 		eor	r0, r0, #64	@ tmp135, D.8010,
 1303 0042 C0F38010 		ubfx	r0, r0, #6, #1	@ D.8009, tmp135,,
 1304 0046 60B1     		cbz	r0, .L193	@ D.8009,
 704:../STM32Cube_FW_F4_V1.4.0/Drivers/STM32F4xx_HAL_Driver/Src/stm32f4xx_ll_fsmc.c ****   {
 705:../STM32Cube_FW_F4_V1.4.0/Drivers/STM32F4xx_HAL_Driver/Src/stm32f4xx_ll_fsmc.c ****     /* Check for the Timeout */
 706:../STM32Cube_FW_F4_V1.4.0/Drivers/STM32F4xx_HAL_Driver/Src/stm32f4xx_ll_fsmc.c ****     if(Timeout != HAL_MAX_DELAY)
 1305              		.loc 1 706 0
 1306 0048 731C     		adds	r3, r6, #1	@, Timeout,
 1307 004a F4D0     		beq	.L175	@,
 707:../STM32Cube_FW_F4_V1.4.0/Drivers/STM32F4xx_HAL_Driver/Src/stm32f4xx_ll_fsmc.c ****     {
 708:../STM32Cube_FW_F4_V1.4.0/Drivers/STM32F4xx_HAL_Driver/Src/stm32f4xx_ll_fsmc.c ****       if((Timeout == 0)||((HAL_GetTick() - tickstart ) > Timeout))
 1308              		.loc 1 708 0
 1309 004c 16B9     		cbnz	r6, .L176	@ Timeout,
 1310              	.L178:
 709:../STM32Cube_FW_F4_V1.4.0/Drivers/STM32F4xx_HAL_Driver/Src/stm32f4xx_ll_fsmc.c ****       {
 710:../STM32Cube_FW_F4_V1.4.0/Drivers/STM32F4xx_HAL_Driver/Src/stm32f4xx_ll_fsmc.c ****         return HAL_TIMEOUT;
 1311              		.loc 1 710 0
 1312 004e 0320     		movs	r0, #3	@ D.8008,
 1313 0050 BDE8F081 		pop	{r4, r5, r6, r7, r8, pc}	@
 1314              	.LVL114:
 1315              	.L176:
 708:../STM32Cube_FW_F4_V1.4.0/Drivers/STM32F4xx_HAL_Driver/Src/stm32f4xx_ll_fsmc.c ****       {
 1316              		.loc 1 708 0 discriminator 1
 1317 0054 FFF7FEFF 		bl	HAL_GetTick	@
 1318              	.LVL115:
 1319 0058 C8EB0000 		rsb	r0, r8, r0	@ D.8010, tickstart,
 1320 005c B042     		cmp	r0, r6	@ D.8010, Timeout
 1321 005e EAD9     		bls	.L175	@,
 1322 0060 F5E7     		b	.L178	@
 1323              	.L193:
 711:../STM32Cube_FW_F4_V1.4.0/Drivers/STM32F4xx_HAL_Driver/Src/stm32f4xx_ll_fsmc.c ****       }
 712:../STM32Cube_FW_F4_V1.4.0/Drivers/STM32F4xx_HAL_Driver/Src/stm32f4xx_ll_fsmc.c ****     }   
 713:../STM32Cube_FW_F4_V1.4.0/Drivers/STM32F4xx_HAL_Driver/Src/stm32f4xx_ll_fsmc.c ****   }
 714:../STM32Cube_FW_F4_V1.4.0/Drivers/STM32F4xx_HAL_Driver/Src/stm32f4xx_ll_fsmc.c ****      
 715:../STM32Cube_FW_F4_V1.4.0/Drivers/STM32F4xx_HAL_Driver/Src/stm32f4xx_ll_fsmc.c ****   if(Bank == FSMC_NAND_BANK2)
 1324              		.loc 1 715 0
 1325 0062 102D     		cmp	r5, #16	@ Bank,
 716:../STM32Cube_FW_F4_V1.4.0/Drivers/STM32F4xx_HAL_Driver/Src/stm32f4xx_ll_fsmc.c ****   {    
 717:../STM32Cube_FW_F4_V1.4.0/Drivers/STM32F4xx_HAL_Driver/Src/stm32f4xx_ll_fsmc.c ****     /* Get the ECCR2 register value */
 718:../STM32Cube_FW_F4_V1.4.0/Drivers/STM32F4xx_HAL_Driver/Src/stm32f4xx_ll_fsmc.c ****     *ECCval = (uint32_t)Device->ECCR2;
 1326              		.loc 1 718 0
 1327 0064 0CBF     		ite	eq
 1328 0066 6369     		ldreq	r3, [r4, #20]	@ D.8010, Device_8(D)->ECCR2
 719:../STM32Cube_FW_F4_V1.4.0/Drivers/STM32F4xx_HAL_Driver/Src/stm32f4xx_ll_fsmc.c ****   }
 720:../STM32Cube_FW_F4_V1.4.0/Drivers/STM32F4xx_HAL_Driver/Src/stm32f4xx_ll_fsmc.c ****   else
 721:../STM32Cube_FW_F4_V1.4.0/Drivers/STM32F4xx_HAL_Driver/Src/stm32f4xx_ll_fsmc.c ****   {    
 722:../STM32Cube_FW_F4_V1.4.0/Drivers/STM32F4xx_HAL_Driver/Src/stm32f4xx_ll_fsmc.c ****     /* Get the ECCR3 register value */
 723:../STM32Cube_FW_F4_V1.4.0/Drivers/STM32F4xx_HAL_Driver/Src/stm32f4xx_ll_fsmc.c ****     *ECCval = (uint32_t)Device->ECCR3;
 1329              		.loc 1 723 0
 1330 0068 636B     		ldrne	r3, [r4, #52]	@ D.8010, Device_8(D)->ECCR3
 1331 006a 3B60     		str	r3, [r7]	@ D.8010, *ECCval_26(D)
 724:../STM32Cube_FW_F4_V1.4.0/Drivers/STM32F4xx_HAL_Driver/Src/stm32f4xx_ll_fsmc.c ****   }
 725:../STM32Cube_FW_F4_V1.4.0/Drivers/STM32F4xx_HAL_Driver/Src/stm32f4xx_ll_fsmc.c **** 
 726:../STM32Cube_FW_F4_V1.4.0/Drivers/STM32F4xx_HAL_Driver/Src/stm32f4xx_ll_fsmc.c ****   return HAL_OK;  
 727:../STM32Cube_FW_F4_V1.4.0/Drivers/STM32F4xx_HAL_Driver/Src/stm32f4xx_ll_fsmc.c **** }
 1332              		.loc 1 727 0
ARM GAS  C:\cygwin\tmp\ccPgEzdT.s 			page 38


 1333 006c BDE8F081 		pop	{r4, r5, r6, r7, r8, pc}	@
 1334              	.LVL116:
 1335              	.L195:
 1336              		.align	2
 1337              	.L194:
 1338 0070 600000A0 		.word	-1610612640
 1339 0074 00000000 		.word	.LC0
 1340              		.cfi_endproc
 1341              	.LFE135:
 1342              		.size	FSMC_NAND_GetECC, .-FSMC_NAND_GetECC
 1343              		.section	.text.FSMC_PCCARD_Init,"ax",%progbits
 1344              		.align	1
 1345              		.global	FSMC_PCCARD_Init
 1346              		.thumb
 1347              		.thumb_func
 1348              		.type	FSMC_PCCARD_Init, %function
 1349              	FSMC_PCCARD_Init:
 1350              	.LFB136:
 728:../STM32Cube_FW_F4_V1.4.0/Drivers/STM32F4xx_HAL_Driver/Src/stm32f4xx_ll_fsmc.c **** 
 729:../STM32Cube_FW_F4_V1.4.0/Drivers/STM32F4xx_HAL_Driver/Src/stm32f4xx_ll_fsmc.c **** /**
 730:../STM32Cube_FW_F4_V1.4.0/Drivers/STM32F4xx_HAL_Driver/Src/stm32f4xx_ll_fsmc.c ****   * @}
 731:../STM32Cube_FW_F4_V1.4.0/Drivers/STM32F4xx_HAL_Driver/Src/stm32f4xx_ll_fsmc.c ****   */
 732:../STM32Cube_FW_F4_V1.4.0/Drivers/STM32F4xx_HAL_Driver/Src/stm32f4xx_ll_fsmc.c ****   
 733:../STM32Cube_FW_F4_V1.4.0/Drivers/STM32F4xx_HAL_Driver/Src/stm32f4xx_ll_fsmc.c **** /**
 734:../STM32Cube_FW_F4_V1.4.0/Drivers/STM32F4xx_HAL_Driver/Src/stm32f4xx_ll_fsmc.c ****   * @}
 735:../STM32Cube_FW_F4_V1.4.0/Drivers/STM32F4xx_HAL_Driver/Src/stm32f4xx_ll_fsmc.c ****   */
 736:../STM32Cube_FW_F4_V1.4.0/Drivers/STM32F4xx_HAL_Driver/Src/stm32f4xx_ll_fsmc.c ****     
 737:../STM32Cube_FW_F4_V1.4.0/Drivers/STM32F4xx_HAL_Driver/Src/stm32f4xx_ll_fsmc.c **** /** @addtogroup FSMC_LL_PCCARD
 738:../STM32Cube_FW_F4_V1.4.0/Drivers/STM32F4xx_HAL_Driver/Src/stm32f4xx_ll_fsmc.c ****   * @brief    PCCARD Controller functions 
 739:../STM32Cube_FW_F4_V1.4.0/Drivers/STM32F4xx_HAL_Driver/Src/stm32f4xx_ll_fsmc.c ****   *
 740:../STM32Cube_FW_F4_V1.4.0/Drivers/STM32F4xx_HAL_Driver/Src/stm32f4xx_ll_fsmc.c ****   @verbatim 
 741:../STM32Cube_FW_F4_V1.4.0/Drivers/STM32F4xx_HAL_Driver/Src/stm32f4xx_ll_fsmc.c ****   ==============================================================================  
 742:../STM32Cube_FW_F4_V1.4.0/Drivers/STM32F4xx_HAL_Driver/Src/stm32f4xx_ll_fsmc.c ****                     ##### How to use PCCARD device driver #####
 743:../STM32Cube_FW_F4_V1.4.0/Drivers/STM32F4xx_HAL_Driver/Src/stm32f4xx_ll_fsmc.c ****   ==============================================================================
 744:../STM32Cube_FW_F4_V1.4.0/Drivers/STM32F4xx_HAL_Driver/Src/stm32f4xx_ll_fsmc.c ****   [..]
 745:../STM32Cube_FW_F4_V1.4.0/Drivers/STM32F4xx_HAL_Driver/Src/stm32f4xx_ll_fsmc.c ****     This driver contains a set of APIs to interface with the FSMC PCCARD bank in order
 746:../STM32Cube_FW_F4_V1.4.0/Drivers/STM32F4xx_HAL_Driver/Src/stm32f4xx_ll_fsmc.c ****     to run the PCCARD/compact flash external devices.
 747:../STM32Cube_FW_F4_V1.4.0/Drivers/STM32F4xx_HAL_Driver/Src/stm32f4xx_ll_fsmc.c ****   
 748:../STM32Cube_FW_F4_V1.4.0/Drivers/STM32F4xx_HAL_Driver/Src/stm32f4xx_ll_fsmc.c ****     (+) FSMC PCCARD bank reset using the function FSMC_PCCARD_DeInit() 
 749:../STM32Cube_FW_F4_V1.4.0/Drivers/STM32F4xx_HAL_Driver/Src/stm32f4xx_ll_fsmc.c ****     (+) FSMC PCCARD bank control configuration using the function FSMC_PCCARD_Init()
 750:../STM32Cube_FW_F4_V1.4.0/Drivers/STM32F4xx_HAL_Driver/Src/stm32f4xx_ll_fsmc.c ****     (+) FSMC PCCARD bank common space timing configuration using the function 
 751:../STM32Cube_FW_F4_V1.4.0/Drivers/STM32F4xx_HAL_Driver/Src/stm32f4xx_ll_fsmc.c ****         FSMC_PCCARD_CommonSpace_Timing_Init()
 752:../STM32Cube_FW_F4_V1.4.0/Drivers/STM32F4xx_HAL_Driver/Src/stm32f4xx_ll_fsmc.c ****     (+) FSMC PCCARD bank attribute space timing configuration using the function 
 753:../STM32Cube_FW_F4_V1.4.0/Drivers/STM32F4xx_HAL_Driver/Src/stm32f4xx_ll_fsmc.c ****         FSMC_PCCARD_AttributeSpace_Timing_Init()
 754:../STM32Cube_FW_F4_V1.4.0/Drivers/STM32F4xx_HAL_Driver/Src/stm32f4xx_ll_fsmc.c ****     (+) FSMC PCCARD bank IO space timing configuration using the function 
 755:../STM32Cube_FW_F4_V1.4.0/Drivers/STM32F4xx_HAL_Driver/Src/stm32f4xx_ll_fsmc.c ****         FSMC_PCCARD_IOSpace_Timing_Init()
 756:../STM32Cube_FW_F4_V1.4.0/Drivers/STM32F4xx_HAL_Driver/Src/stm32f4xx_ll_fsmc.c ****        
 757:../STM32Cube_FW_F4_V1.4.0/Drivers/STM32F4xx_HAL_Driver/Src/stm32f4xx_ll_fsmc.c **** @endverbatim
 758:../STM32Cube_FW_F4_V1.4.0/Drivers/STM32F4xx_HAL_Driver/Src/stm32f4xx_ll_fsmc.c ****   * @{
 759:../STM32Cube_FW_F4_V1.4.0/Drivers/STM32F4xx_HAL_Driver/Src/stm32f4xx_ll_fsmc.c ****   */
 760:../STM32Cube_FW_F4_V1.4.0/Drivers/STM32F4xx_HAL_Driver/Src/stm32f4xx_ll_fsmc.c ****   
 761:../STM32Cube_FW_F4_V1.4.0/Drivers/STM32F4xx_HAL_Driver/Src/stm32f4xx_ll_fsmc.c **** /** @addtogroup FSMC_LL_PCCARD_Private_Functions_Group1
 762:../STM32Cube_FW_F4_V1.4.0/Drivers/STM32F4xx_HAL_Driver/Src/stm32f4xx_ll_fsmc.c ****   *  @brief   Initialization and Configuration functions 
 763:../STM32Cube_FW_F4_V1.4.0/Drivers/STM32F4xx_HAL_Driver/Src/stm32f4xx_ll_fsmc.c ****   *
 764:../STM32Cube_FW_F4_V1.4.0/Drivers/STM32F4xx_HAL_Driver/Src/stm32f4xx_ll_fsmc.c **** @verbatim    
 765:../STM32Cube_FW_F4_V1.4.0/Drivers/STM32F4xx_HAL_Driver/Src/stm32f4xx_ll_fsmc.c ****   ==============================================================================
 766:../STM32Cube_FW_F4_V1.4.0/Drivers/STM32F4xx_HAL_Driver/Src/stm32f4xx_ll_fsmc.c ****               ##### Initialization and de_initialization functions #####
ARM GAS  C:\cygwin\tmp\ccPgEzdT.s 			page 39


 767:../STM32Cube_FW_F4_V1.4.0/Drivers/STM32F4xx_HAL_Driver/Src/stm32f4xx_ll_fsmc.c ****   ==============================================================================
 768:../STM32Cube_FW_F4_V1.4.0/Drivers/STM32F4xx_HAL_Driver/Src/stm32f4xx_ll_fsmc.c ****   [..]  
 769:../STM32Cube_FW_F4_V1.4.0/Drivers/STM32F4xx_HAL_Driver/Src/stm32f4xx_ll_fsmc.c ****     This section provides functions allowing to:
 770:../STM32Cube_FW_F4_V1.4.0/Drivers/STM32F4xx_HAL_Driver/Src/stm32f4xx_ll_fsmc.c ****     (+) Initialize and configure the FSMC PCCARD interface
 771:../STM32Cube_FW_F4_V1.4.0/Drivers/STM32F4xx_HAL_Driver/Src/stm32f4xx_ll_fsmc.c ****     (+) De-initialize the FSMC PCCARD interface 
 772:../STM32Cube_FW_F4_V1.4.0/Drivers/STM32F4xx_HAL_Driver/Src/stm32f4xx_ll_fsmc.c ****     (+) Configure the FSMC clock and associated GPIOs
 773:../STM32Cube_FW_F4_V1.4.0/Drivers/STM32F4xx_HAL_Driver/Src/stm32f4xx_ll_fsmc.c ****         
 774:../STM32Cube_FW_F4_V1.4.0/Drivers/STM32F4xx_HAL_Driver/Src/stm32f4xx_ll_fsmc.c **** @endverbatim
 775:../STM32Cube_FW_F4_V1.4.0/Drivers/STM32F4xx_HAL_Driver/Src/stm32f4xx_ll_fsmc.c ****   * @{
 776:../STM32Cube_FW_F4_V1.4.0/Drivers/STM32F4xx_HAL_Driver/Src/stm32f4xx_ll_fsmc.c ****   */
 777:../STM32Cube_FW_F4_V1.4.0/Drivers/STM32F4xx_HAL_Driver/Src/stm32f4xx_ll_fsmc.c ****   
 778:../STM32Cube_FW_F4_V1.4.0/Drivers/STM32F4xx_HAL_Driver/Src/stm32f4xx_ll_fsmc.c **** /**
 779:../STM32Cube_FW_F4_V1.4.0/Drivers/STM32F4xx_HAL_Driver/Src/stm32f4xx_ll_fsmc.c ****   * @brief  Initializes the FSMC_PCCARD device according to the specified
 780:../STM32Cube_FW_F4_V1.4.0/Drivers/STM32F4xx_HAL_Driver/Src/stm32f4xx_ll_fsmc.c ****   *         control parameters in the FSMC_PCCARD_HandleTypeDef
 781:../STM32Cube_FW_F4_V1.4.0/Drivers/STM32F4xx_HAL_Driver/Src/stm32f4xx_ll_fsmc.c ****   * @param  Device: Pointer to PCCARD device instance
 782:../STM32Cube_FW_F4_V1.4.0/Drivers/STM32F4xx_HAL_Driver/Src/stm32f4xx_ll_fsmc.c ****   * @param  Init: Pointer to PCCARD Initialization structure   
 783:../STM32Cube_FW_F4_V1.4.0/Drivers/STM32F4xx_HAL_Driver/Src/stm32f4xx_ll_fsmc.c ****   * @retval HAL status
 784:../STM32Cube_FW_F4_V1.4.0/Drivers/STM32F4xx_HAL_Driver/Src/stm32f4xx_ll_fsmc.c ****   */
 785:../STM32Cube_FW_F4_V1.4.0/Drivers/STM32F4xx_HAL_Driver/Src/stm32f4xx_ll_fsmc.c **** HAL_StatusTypeDef FSMC_PCCARD_Init(FSMC_PCCARD_TypeDef *Device, FSMC_PCCARD_InitTypeDef *Init)
 786:../STM32Cube_FW_F4_V1.4.0/Drivers/STM32F4xx_HAL_Driver/Src/stm32f4xx_ll_fsmc.c **** {
 1351              		.loc 1 786 0
 1352              		.cfi_startproc
 1353              		@ args = 0, pretend = 0, frame = 0
 1354              		@ frame_needed = 0, uses_anonymous_args = 0
 1355              	.LVL117:
 1356 0000 38B5     		push	{r3, r4, r5, lr}	@
 1357              		.cfi_def_cfa_offset 16
 1358              		.cfi_offset 3, -16
 1359              		.cfi_offset 4, -12
 1360              		.cfi_offset 5, -8
 1361              		.cfi_offset 14, -4
 787:../STM32Cube_FW_F4_V1.4.0/Drivers/STM32F4xx_HAL_Driver/Src/stm32f4xx_ll_fsmc.c ****   uint32_t tmpr = 0;
 788:../STM32Cube_FW_F4_V1.4.0/Drivers/STM32F4xx_HAL_Driver/Src/stm32f4xx_ll_fsmc.c ****   
 789:../STM32Cube_FW_F4_V1.4.0/Drivers/STM32F4xx_HAL_Driver/Src/stm32f4xx_ll_fsmc.c ****   /* Check the parameters */ 
 790:../STM32Cube_FW_F4_V1.4.0/Drivers/STM32F4xx_HAL_Driver/Src/stm32f4xx_ll_fsmc.c ****   assert_param(IS_FSMC_WAIT_FEATURE(Init->Waitfeature));
 1362              		.loc 1 790 0
 1363 0002 0B68     		ldr	r3, [r1]	@ Init_5(D)->Waitfeature, Init_5(D)->Waitfeature
 1364 0004 33F00203 		bics	r3, r3, #2	@ tmp145, Init_5(D)->Waitfeature,
 786:../STM32Cube_FW_F4_V1.4.0/Drivers/STM32F4xx_HAL_Driver/Src/stm32f4xx_ll_fsmc.c ****   uint32_t tmpr = 0;
 1365              		.loc 1 786 0
 1366 0008 0546     		mov	r5, r0	@ Device, Device
 1367 000a 0C46     		mov	r4, r1	@ Init, Init
 1368              		.loc 1 790 0
 1369 000c 04D0     		beq	.L197	@,
 1370              		.loc 1 790 0 is_stmt 0 discriminator 2
 1371 000e 1348     		ldr	r0, .L203	@,
 1372              	.LVL118:
 1373 0010 40F21631 		movw	r1, #790	@,
 1374              	.LVL119:
 1375 0014 FFF7FEFF 		bl	assert_failed	@
 1376              	.LVL120:
 1377              	.L197:
 791:../STM32Cube_FW_F4_V1.4.0/Drivers/STM32F4xx_HAL_Driver/Src/stm32f4xx_ll_fsmc.c ****   assert_param(IS_FSMC_TCLR_TIME(Init->TCLRSetupTime));
 1378              		.loc 1 791 0 is_stmt 1
 1379 0018 6368     		ldr	r3, [r4, #4]	@ Init_5(D)->TCLRSetupTime, Init_5(D)->TCLRSetupTime
 1380 001a FF2B     		cmp	r3, #255	@ Init_5(D)->TCLRSetupTime,
 1381 001c 04D9     		bls	.L198	@,
ARM GAS  C:\cygwin\tmp\ccPgEzdT.s 			page 40


 1382              		.loc 1 791 0 is_stmt 0 discriminator 1
 1383 001e 0F48     		ldr	r0, .L203	@,
 1384 0020 40F21731 		movw	r1, #791	@,
 1385 0024 FFF7FEFF 		bl	assert_failed	@
 1386              	.LVL121:
 1387              	.L198:
 792:../STM32Cube_FW_F4_V1.4.0/Drivers/STM32F4xx_HAL_Driver/Src/stm32f4xx_ll_fsmc.c ****   assert_param(IS_FSMC_TAR_TIME(Init->TARSetupTime));     
 1388              		.loc 1 792 0 is_stmt 1
 1389 0028 A368     		ldr	r3, [r4, #8]	@ Init_5(D)->TARSetupTime, Init_5(D)->TARSetupTime
 1390 002a FF2B     		cmp	r3, #255	@ Init_5(D)->TARSetupTime,
 1391 002c 04D9     		bls	.L199	@,
 1392              		.loc 1 792 0 is_stmt 0 discriminator 1
 1393 002e 0B48     		ldr	r0, .L203	@,
 1394 0030 4FF44671 		mov	r1, #792	@,
 1395 0034 FFF7FEFF 		bl	assert_failed	@
 1396              	.LVL122:
 1397              	.L199:
 793:../STM32Cube_FW_F4_V1.4.0/Drivers/STM32F4xx_HAL_Driver/Src/stm32f4xx_ll_fsmc.c ****   
 794:../STM32Cube_FW_F4_V1.4.0/Drivers/STM32F4xx_HAL_Driver/Src/stm32f4xx_ll_fsmc.c ****   /* Get PCCARD control register value */
 795:../STM32Cube_FW_F4_V1.4.0/Drivers/STM32F4xx_HAL_Driver/Src/stm32f4xx_ll_fsmc.c ****   tmpr = Device->PCR4;
 1398              		.loc 1 795 0 is_stmt 1
 1399 0038 2A68     		ldr	r2, [r5]	@ tmpr, Device_12(D)->PCR4
 1400              	.LVL123:
 1401 003a 2368     		ldr	r3, [r4]	@ Init_5(D)->Waitfeature, Init_5(D)->Waitfeature
 1402 003c 43F01001 		orr	r1, r3, #16	@ D.8013, Init_5(D)->Waitfeature,
 796:../STM32Cube_FW_F4_V1.4.0/Drivers/STM32F4xx_HAL_Driver/Src/stm32f4xx_ll_fsmc.c ****   
 797:../STM32Cube_FW_F4_V1.4.0/Drivers/STM32F4xx_HAL_Driver/Src/stm32f4xx_ll_fsmc.c ****   /* Clear TAR, TCLR, PWAITEN and PWID bits */
 798:../STM32Cube_FW_F4_V1.4.0/Drivers/STM32F4xx_HAL_Driver/Src/stm32f4xx_ll_fsmc.c ****   tmpr &= ((uint32_t)~(FSMC_PCR4_TAR  | FSMC_PCR4_TCLR | FSMC_PCR4_PWAITEN | \
 1403              		.loc 1 798 0
 1404 0040 22F4FF33 		bic	r3, r2, #130560	@ tmpr, tmpr,
 1405 0044 23F03203 		bic	r3, r3, #50	@ tmpr, tmpr,
 799:../STM32Cube_FW_F4_V1.4.0/Drivers/STM32F4xx_HAL_Driver/Src/stm32f4xx_ll_fsmc.c ****                        FSMC_PCR4_PWID));
 800:../STM32Cube_FW_F4_V1.4.0/Drivers/STM32F4xx_HAL_Driver/Src/stm32f4xx_ll_fsmc.c ****   
 801:../STM32Cube_FW_F4_V1.4.0/Drivers/STM32F4xx_HAL_Driver/Src/stm32f4xx_ll_fsmc.c ****   /* Set FSMC_PCCARD device control parameters */
 802:../STM32Cube_FW_F4_V1.4.0/Drivers/STM32F4xx_HAL_Driver/Src/stm32f4xx_ll_fsmc.c ****   tmpr |= (uint32_t)(Init->Waitfeature               |\
 803:../STM32Cube_FW_F4_V1.4.0/Drivers/STM32F4xx_HAL_Driver/Src/stm32f4xx_ll_fsmc.c ****                      FSMC_NAND_PCC_MEM_BUS_WIDTH_16  |\
 804:../STM32Cube_FW_F4_V1.4.0/Drivers/STM32F4xx_HAL_Driver/Src/stm32f4xx_ll_fsmc.c ****                      (Init->TCLRSetupTime << 9)      |\
 1406              		.loc 1 804 0
 1407 0048 6268     		ldr	r2, [r4, #4]	@ Init_5(D)->TCLRSetupTime, Init_5(D)->TCLRSetupTime
 1408              	.LVL124:
 1409 004a 0B43     		orrs	r3, r3, r1	@, D.8013, tmpr, D.8013
 1410 004c 43EA4223 		orr	r3, r3, r2, lsl #9	@, D.8013, D.8013, Init_5(D)->TCLRSetupTime,
 805:../STM32Cube_FW_F4_V1.4.0/Drivers/STM32F4xx_HAL_Driver/Src/stm32f4xx_ll_fsmc.c ****                      (Init->TARSetupTime << 13));
 1411              		.loc 1 805 0
 1412 0050 A268     		ldr	r2, [r4, #8]	@ Init_5(D)->TARSetupTime, Init_5(D)->TARSetupTime
 802:../STM32Cube_FW_F4_V1.4.0/Drivers/STM32F4xx_HAL_Driver/Src/stm32f4xx_ll_fsmc.c ****                      FSMC_NAND_PCC_MEM_BUS_WIDTH_16  |\
 1413              		.loc 1 802 0
 1414 0052 43EA4233 		orr	r3, r3, r2, lsl #13	@, tmpr, D.8013, Init_5(D)->TARSetupTime,
 1415              	.LVL125:
 806:../STM32Cube_FW_F4_V1.4.0/Drivers/STM32F4xx_HAL_Driver/Src/stm32f4xx_ll_fsmc.c ****   
 807:../STM32Cube_FW_F4_V1.4.0/Drivers/STM32F4xx_HAL_Driver/Src/stm32f4xx_ll_fsmc.c ****   Device->PCR4 = tmpr;
 1416              		.loc 1 807 0
 1417 0056 2B60     		str	r3, [r5]	@ tmpr, Device_12(D)->PCR4
 808:../STM32Cube_FW_F4_V1.4.0/Drivers/STM32F4xx_HAL_Driver/Src/stm32f4xx_ll_fsmc.c ****   
 809:../STM32Cube_FW_F4_V1.4.0/Drivers/STM32F4xx_HAL_Driver/Src/stm32f4xx_ll_fsmc.c ****   return HAL_OK;
 810:../STM32Cube_FW_F4_V1.4.0/Drivers/STM32F4xx_HAL_Driver/Src/stm32f4xx_ll_fsmc.c **** }
 1418              		.loc 1 810 0
ARM GAS  C:\cygwin\tmp\ccPgEzdT.s 			page 41


 1419 0058 0020     		movs	r0, #0	@,
 1420 005a 38BD     		pop	{r3, r4, r5, pc}	@
 1421              	.LVL126:
 1422              	.L204:
 1423              		.align	2
 1424              	.L203:
 1425 005c 00000000 		.word	.LC0
 1426              		.cfi_endproc
 1427              	.LFE136:
 1428              		.size	FSMC_PCCARD_Init, .-FSMC_PCCARD_Init
 1429              		.section	.text.FSMC_PCCARD_CommonSpace_Timing_Init,"ax",%progbits
 1430              		.align	1
 1431              		.global	FSMC_PCCARD_CommonSpace_Timing_Init
 1432              		.thumb
 1433              		.thumb_func
 1434              		.type	FSMC_PCCARD_CommonSpace_Timing_Init, %function
 1435              	FSMC_PCCARD_CommonSpace_Timing_Init:
 1436              	.LFB137:
 811:../STM32Cube_FW_F4_V1.4.0/Drivers/STM32F4xx_HAL_Driver/Src/stm32f4xx_ll_fsmc.c **** 
 812:../STM32Cube_FW_F4_V1.4.0/Drivers/STM32F4xx_HAL_Driver/Src/stm32f4xx_ll_fsmc.c **** /**
 813:../STM32Cube_FW_F4_V1.4.0/Drivers/STM32F4xx_HAL_Driver/Src/stm32f4xx_ll_fsmc.c ****   * @brief  Initializes the FSMC_PCCARD Common space Timing according to the specified
 814:../STM32Cube_FW_F4_V1.4.0/Drivers/STM32F4xx_HAL_Driver/Src/stm32f4xx_ll_fsmc.c ****   *         parameters in the FSMC_NAND_PCC_TimingTypeDef
 815:../STM32Cube_FW_F4_V1.4.0/Drivers/STM32F4xx_HAL_Driver/Src/stm32f4xx_ll_fsmc.c ****   * @param  Device: Pointer to PCCARD device instance
 816:../STM32Cube_FW_F4_V1.4.0/Drivers/STM32F4xx_HAL_Driver/Src/stm32f4xx_ll_fsmc.c ****   * @param  Timing: Pointer to PCCARD timing structure 
 817:../STM32Cube_FW_F4_V1.4.0/Drivers/STM32F4xx_HAL_Driver/Src/stm32f4xx_ll_fsmc.c ****   * @retval HAL status
 818:../STM32Cube_FW_F4_V1.4.0/Drivers/STM32F4xx_HAL_Driver/Src/stm32f4xx_ll_fsmc.c ****   */
 819:../STM32Cube_FW_F4_V1.4.0/Drivers/STM32F4xx_HAL_Driver/Src/stm32f4xx_ll_fsmc.c **** HAL_StatusTypeDef FSMC_PCCARD_CommonSpace_Timing_Init(FSMC_PCCARD_TypeDef *Device, FSMC_NAND_PCC_Ti
 820:../STM32Cube_FW_F4_V1.4.0/Drivers/STM32F4xx_HAL_Driver/Src/stm32f4xx_ll_fsmc.c **** {
 1437              		.loc 1 820 0
 1438              		.cfi_startproc
 1439              		@ args = 0, pretend = 0, frame = 0
 1440              		@ frame_needed = 0, uses_anonymous_args = 0
 1441              	.LVL127:
 1442 0000 38B5     		push	{r3, r4, r5, lr}	@
 1443              		.cfi_def_cfa_offset 16
 1444              		.cfi_offset 3, -16
 1445              		.cfi_offset 4, -12
 1446              		.cfi_offset 5, -8
 1447              		.cfi_offset 14, -4
 821:../STM32Cube_FW_F4_V1.4.0/Drivers/STM32F4xx_HAL_Driver/Src/stm32f4xx_ll_fsmc.c ****   uint32_t tmpr = 0;
 822:../STM32Cube_FW_F4_V1.4.0/Drivers/STM32F4xx_HAL_Driver/Src/stm32f4xx_ll_fsmc.c ****   
 823:../STM32Cube_FW_F4_V1.4.0/Drivers/STM32F4xx_HAL_Driver/Src/stm32f4xx_ll_fsmc.c ****   /* Check the parameters */
 824:../STM32Cube_FW_F4_V1.4.0/Drivers/STM32F4xx_HAL_Driver/Src/stm32f4xx_ll_fsmc.c ****   assert_param(IS_FSMC_SETUP_TIME(Timing->SetupTime));
 1448              		.loc 1 824 0
 1449 0002 0B68     		ldr	r3, [r1]	@ Timing_6(D)->SetupTime, Timing_6(D)->SetupTime
 1450 0004 FF2B     		cmp	r3, #255	@ Timing_6(D)->SetupTime,
 820:../STM32Cube_FW_F4_V1.4.0/Drivers/STM32F4xx_HAL_Driver/Src/stm32f4xx_ll_fsmc.c ****   uint32_t tmpr = 0;
 1451              		.loc 1 820 0
 1452 0006 0546     		mov	r5, r0	@ Device, Device
 1453 0008 0C46     		mov	r4, r1	@ Timing, Timing
 1454              		.loc 1 824 0
 1455 000a 04D9     		bls	.L206	@,
 1456              		.loc 1 824 0 is_stmt 0 discriminator 1
 1457 000c 1548     		ldr	r0, .L210	@,
 1458              	.LVL128:
 1459 000e 4FF44E71 		mov	r1, #824	@,
 1460              	.LVL129:
ARM GAS  C:\cygwin\tmp\ccPgEzdT.s 			page 42


 1461 0012 FFF7FEFF 		bl	assert_failed	@
 1462              	.LVL130:
 1463              	.L206:
 825:../STM32Cube_FW_F4_V1.4.0/Drivers/STM32F4xx_HAL_Driver/Src/stm32f4xx_ll_fsmc.c ****   assert_param(IS_FSMC_WAIT_TIME(Timing->WaitSetupTime));
 1464              		.loc 1 825 0 is_stmt 1
 1465 0016 6368     		ldr	r3, [r4, #4]	@ Timing_6(D)->WaitSetupTime, Timing_6(D)->WaitSetupTime
 1466 0018 FF2B     		cmp	r3, #255	@ Timing_6(D)->WaitSetupTime,
 1467 001a 04D9     		bls	.L207	@,
 1468              		.loc 1 825 0 is_stmt 0 discriminator 1
 1469 001c 1148     		ldr	r0, .L210	@,
 1470 001e 40F23931 		movw	r1, #825	@,
 1471 0022 FFF7FEFF 		bl	assert_failed	@
 1472              	.LVL131:
 1473              	.L207:
 826:../STM32Cube_FW_F4_V1.4.0/Drivers/STM32F4xx_HAL_Driver/Src/stm32f4xx_ll_fsmc.c ****   assert_param(IS_FSMC_HOLD_TIME(Timing->HoldSetupTime));
 1474              		.loc 1 826 0 is_stmt 1
 1475 0026 A368     		ldr	r3, [r4, #8]	@ Timing_6(D)->HoldSetupTime, Timing_6(D)->HoldSetupTime
 1476 0028 FF2B     		cmp	r3, #255	@ Timing_6(D)->HoldSetupTime,
 1477 002a 04D9     		bls	.L208	@,
 1478              		.loc 1 826 0 is_stmt 0 discriminator 1
 1479 002c 0D48     		ldr	r0, .L210	@,
 1480 002e 40F23A31 		movw	r1, #826	@,
 1481 0032 FFF7FEFF 		bl	assert_failed	@
 1482              	.LVL132:
 1483              	.L208:
 827:../STM32Cube_FW_F4_V1.4.0/Drivers/STM32F4xx_HAL_Driver/Src/stm32f4xx_ll_fsmc.c ****   assert_param(IS_FSMC_HIZ_TIME(Timing->HiZSetupTime));
 1484              		.loc 1 827 0 is_stmt 1
 1485 0036 E368     		ldr	r3, [r4, #12]	@ Timing_6(D)->HiZSetupTime, Timing_6(D)->HiZSetupTime
 1486 0038 FF2B     		cmp	r3, #255	@ Timing_6(D)->HiZSetupTime,
 1487 003a 04D9     		bls	.L209	@,
 1488              		.loc 1 827 0 is_stmt 0 discriminator 1
 1489 003c 0948     		ldr	r0, .L210	@,
 1490 003e 40F23B31 		movw	r1, #827	@,
 1491 0042 FFF7FEFF 		bl	assert_failed	@
 1492              	.LVL133:
 1493              	.L209:
 828:../STM32Cube_FW_F4_V1.4.0/Drivers/STM32F4xx_HAL_Driver/Src/stm32f4xx_ll_fsmc.c **** 
 829:../STM32Cube_FW_F4_V1.4.0/Drivers/STM32F4xx_HAL_Driver/Src/stm32f4xx_ll_fsmc.c ****   /* Get PCCARD common space timing register value */
 830:../STM32Cube_FW_F4_V1.4.0/Drivers/STM32F4xx_HAL_Driver/Src/stm32f4xx_ll_fsmc.c ****   tmpr = Device->PMEM4;
 831:../STM32Cube_FW_F4_V1.4.0/Drivers/STM32F4xx_HAL_Driver/Src/stm32f4xx_ll_fsmc.c ****   
 832:../STM32Cube_FW_F4_V1.4.0/Drivers/STM32F4xx_HAL_Driver/Src/stm32f4xx_ll_fsmc.c ****   /* Clear MEMSETx, MEMWAITx, MEMHOLDx and MEMHIZx bits */
 833:../STM32Cube_FW_F4_V1.4.0/Drivers/STM32F4xx_HAL_Driver/Src/stm32f4xx_ll_fsmc.c ****   tmpr &= ((uint32_t)~(FSMC_PMEM4_MEMSET4  | FSMC_PMEM4_MEMWAIT4 | FSMC_PMEM4_MEMHOLD4 | \
 834:../STM32Cube_FW_F4_V1.4.0/Drivers/STM32F4xx_HAL_Driver/Src/stm32f4xx_ll_fsmc.c ****                        FSMC_PMEM4_MEMHIZ4));
 835:../STM32Cube_FW_F4_V1.4.0/Drivers/STM32F4xx_HAL_Driver/Src/stm32f4xx_ll_fsmc.c ****   /* Set PCCARD timing parameters */
 836:../STM32Cube_FW_F4_V1.4.0/Drivers/STM32F4xx_HAL_Driver/Src/stm32f4xx_ll_fsmc.c ****   tmpr |= (uint32_t)((Timing->SetupTime                 |\
 837:../STM32Cube_FW_F4_V1.4.0/Drivers/STM32F4xx_HAL_Driver/Src/stm32f4xx_ll_fsmc.c ****                     ((Timing->WaitSetupTime) << 8)     |\
 838:../STM32Cube_FW_F4_V1.4.0/Drivers/STM32F4xx_HAL_Driver/Src/stm32f4xx_ll_fsmc.c ****                     (Timing->HoldSetupTime) << 16)    |\
 1494              		.loc 1 838 0 is_stmt 1
 1495 0046 A268     		ldr	r2, [r4, #8]	@ Timing_6(D)->HoldSetupTime, Timing_6(D)->HoldSetupTime
 830:../STM32Cube_FW_F4_V1.4.0/Drivers/STM32F4xx_HAL_Driver/Src/stm32f4xx_ll_fsmc.c ****   
 1496              		.loc 1 830 0
 1497 0048 AB68     		ldr	r3, [r5, #8]	@ tmpr, Device_15(D)->PMEM4
 1498              	.LVL134:
 837:../STM32Cube_FW_F4_V1.4.0/Drivers/STM32F4xx_HAL_Driver/Src/stm32f4xx_ll_fsmc.c ****                     (Timing->HoldSetupTime) << 16)    |\
 1499              		.loc 1 837 0
 1500 004a 6368     		ldr	r3, [r4, #4]	@ Timing_6(D)->WaitSetupTime, Timing_6(D)->WaitSetupTime
 1501              		.loc 1 838 0
ARM GAS  C:\cygwin\tmp\ccPgEzdT.s 			page 43


 1502 004c 1204     		lsls	r2, r2, #16	@ D.8016, Timing_6(D)->HoldSetupTime,
 1503 004e 42EA0322 		orr	r2, r2, r3, lsl #8	@, D.8016, D.8016, Timing_6(D)->WaitSetupTime,
 837:../STM32Cube_FW_F4_V1.4.0/Drivers/STM32F4xx_HAL_Driver/Src/stm32f4xx_ll_fsmc.c ****                     (Timing->HoldSetupTime) << 16)    |\
 1504              		.loc 1 837 0
 1505 0052 2368     		ldr	r3, [r4]	@ Timing_6(D)->SetupTime, Timing_6(D)->SetupTime
 1506 0054 1343     		orrs	r3, r3, r2	@, D.8016, Timing_6(D)->SetupTime, D.8016
 839:../STM32Cube_FW_F4_V1.4.0/Drivers/STM32F4xx_HAL_Driver/Src/stm32f4xx_ll_fsmc.c ****                     ((Timing->HiZSetupTime) << 24));
 1507              		.loc 1 839 0
 1508 0056 E268     		ldr	r2, [r4, #12]	@ Timing_6(D)->HiZSetupTime, Timing_6(D)->HiZSetupTime
 836:../STM32Cube_FW_F4_V1.4.0/Drivers/STM32F4xx_HAL_Driver/Src/stm32f4xx_ll_fsmc.c ****                     ((Timing->WaitSetupTime) << 8)     |\
 1509              		.loc 1 836 0
 1510 0058 43EA0263 		orr	r3, r3, r2, lsl #24	@, D.8016, D.8016, Timing_6(D)->HiZSetupTime,
 1511              	.LVL135:
 840:../STM32Cube_FW_F4_V1.4.0/Drivers/STM32F4xx_HAL_Driver/Src/stm32f4xx_ll_fsmc.c ****   
 841:../STM32Cube_FW_F4_V1.4.0/Drivers/STM32F4xx_HAL_Driver/Src/stm32f4xx_ll_fsmc.c ****   Device->PMEM4 = tmpr;
 1512              		.loc 1 841 0
 1513 005c AB60     		str	r3, [r5, #8]	@ D.8016, Device_15(D)->PMEM4
 842:../STM32Cube_FW_F4_V1.4.0/Drivers/STM32F4xx_HAL_Driver/Src/stm32f4xx_ll_fsmc.c ****   
 843:../STM32Cube_FW_F4_V1.4.0/Drivers/STM32F4xx_HAL_Driver/Src/stm32f4xx_ll_fsmc.c ****   return HAL_OK;  
 844:../STM32Cube_FW_F4_V1.4.0/Drivers/STM32F4xx_HAL_Driver/Src/stm32f4xx_ll_fsmc.c **** }
 1514              		.loc 1 844 0
 1515 005e 0020     		movs	r0, #0	@,
 1516 0060 38BD     		pop	{r3, r4, r5, pc}	@
 1517              	.LVL136:
 1518              	.L211:
 1519 0062 00BF     		.align	2
 1520              	.L210:
 1521 0064 00000000 		.word	.LC0
 1522              		.cfi_endproc
 1523              	.LFE137:
 1524              		.size	FSMC_PCCARD_CommonSpace_Timing_Init, .-FSMC_PCCARD_CommonSpace_Timing_Init
 1525              		.section	.text.FSMC_PCCARD_AttributeSpace_Timing_Init,"ax",%progbits
 1526              		.align	1
 1527              		.global	FSMC_PCCARD_AttributeSpace_Timing_Init
 1528              		.thumb
 1529              		.thumb_func
 1530              		.type	FSMC_PCCARD_AttributeSpace_Timing_Init, %function
 1531              	FSMC_PCCARD_AttributeSpace_Timing_Init:
 1532              	.LFB138:
 845:../STM32Cube_FW_F4_V1.4.0/Drivers/STM32F4xx_HAL_Driver/Src/stm32f4xx_ll_fsmc.c **** 
 846:../STM32Cube_FW_F4_V1.4.0/Drivers/STM32F4xx_HAL_Driver/Src/stm32f4xx_ll_fsmc.c **** /**
 847:../STM32Cube_FW_F4_V1.4.0/Drivers/STM32F4xx_HAL_Driver/Src/stm32f4xx_ll_fsmc.c ****   * @brief  Initializes the FSMC_PCCARD Attribute space Timing according to the specified
 848:../STM32Cube_FW_F4_V1.4.0/Drivers/STM32F4xx_HAL_Driver/Src/stm32f4xx_ll_fsmc.c ****   *         parameters in the FSMC_NAND_PCC_TimingTypeDef
 849:../STM32Cube_FW_F4_V1.4.0/Drivers/STM32F4xx_HAL_Driver/Src/stm32f4xx_ll_fsmc.c ****   * @param  Device: Pointer to PCCARD device instance
 850:../STM32Cube_FW_F4_V1.4.0/Drivers/STM32F4xx_HAL_Driver/Src/stm32f4xx_ll_fsmc.c ****   * @param  Timing: Pointer to PCCARD timing structure  
 851:../STM32Cube_FW_F4_V1.4.0/Drivers/STM32F4xx_HAL_Driver/Src/stm32f4xx_ll_fsmc.c ****   * @retval HAL status
 852:../STM32Cube_FW_F4_V1.4.0/Drivers/STM32F4xx_HAL_Driver/Src/stm32f4xx_ll_fsmc.c ****   */
 853:../STM32Cube_FW_F4_V1.4.0/Drivers/STM32F4xx_HAL_Driver/Src/stm32f4xx_ll_fsmc.c **** HAL_StatusTypeDef FSMC_PCCARD_AttributeSpace_Timing_Init(FSMC_PCCARD_TypeDef *Device, FSMC_NAND_PCC
 854:../STM32Cube_FW_F4_V1.4.0/Drivers/STM32F4xx_HAL_Driver/Src/stm32f4xx_ll_fsmc.c **** {
 1533              		.loc 1 854 0
 1534              		.cfi_startproc
 1535              		@ args = 0, pretend = 0, frame = 0
 1536              		@ frame_needed = 0, uses_anonymous_args = 0
 1537              	.LVL137:
 1538 0000 38B5     		push	{r3, r4, r5, lr}	@
 1539              		.cfi_def_cfa_offset 16
 1540              		.cfi_offset 3, -16
ARM GAS  C:\cygwin\tmp\ccPgEzdT.s 			page 44


 1541              		.cfi_offset 4, -12
 1542              		.cfi_offset 5, -8
 1543              		.cfi_offset 14, -4
 855:../STM32Cube_FW_F4_V1.4.0/Drivers/STM32F4xx_HAL_Driver/Src/stm32f4xx_ll_fsmc.c ****   uint32_t tmpr = 0;
 856:../STM32Cube_FW_F4_V1.4.0/Drivers/STM32F4xx_HAL_Driver/Src/stm32f4xx_ll_fsmc.c **** 
 857:../STM32Cube_FW_F4_V1.4.0/Drivers/STM32F4xx_HAL_Driver/Src/stm32f4xx_ll_fsmc.c ****   /* Check the parameters */  
 858:../STM32Cube_FW_F4_V1.4.0/Drivers/STM32F4xx_HAL_Driver/Src/stm32f4xx_ll_fsmc.c ****   assert_param(IS_FSMC_SETUP_TIME(Timing->SetupTime));
 1544              		.loc 1 858 0
 1545 0002 0B68     		ldr	r3, [r1]	@ Timing_6(D)->SetupTime, Timing_6(D)->SetupTime
 1546 0004 FF2B     		cmp	r3, #255	@ Timing_6(D)->SetupTime,
 854:../STM32Cube_FW_F4_V1.4.0/Drivers/STM32F4xx_HAL_Driver/Src/stm32f4xx_ll_fsmc.c ****   uint32_t tmpr = 0;
 1547              		.loc 1 854 0
 1548 0006 0546     		mov	r5, r0	@ Device, Device
 1549 0008 0C46     		mov	r4, r1	@ Timing, Timing
 1550              		.loc 1 858 0
 1551 000a 04D9     		bls	.L213	@,
 1552              		.loc 1 858 0 is_stmt 0 discriminator 1
 1553 000c 1548     		ldr	r0, .L217	@,
 1554              	.LVL138:
 1555 000e 40F25A31 		movw	r1, #858	@,
 1556              	.LVL139:
 1557 0012 FFF7FEFF 		bl	assert_failed	@
 1558              	.LVL140:
 1559              	.L213:
 859:../STM32Cube_FW_F4_V1.4.0/Drivers/STM32F4xx_HAL_Driver/Src/stm32f4xx_ll_fsmc.c ****   assert_param(IS_FSMC_WAIT_TIME(Timing->WaitSetupTime));
 1560              		.loc 1 859 0 is_stmt 1
 1561 0016 6368     		ldr	r3, [r4, #4]	@ Timing_6(D)->WaitSetupTime, Timing_6(D)->WaitSetupTime
 1562 0018 FF2B     		cmp	r3, #255	@ Timing_6(D)->WaitSetupTime,
 1563 001a 04D9     		bls	.L214	@,
 1564              		.loc 1 859 0 is_stmt 0 discriminator 1
 1565 001c 1148     		ldr	r0, .L217	@,
 1566 001e 40F25B31 		movw	r1, #859	@,
 1567 0022 FFF7FEFF 		bl	assert_failed	@
 1568              	.LVL141:
 1569              	.L214:
 860:../STM32Cube_FW_F4_V1.4.0/Drivers/STM32F4xx_HAL_Driver/Src/stm32f4xx_ll_fsmc.c ****   assert_param(IS_FSMC_HOLD_TIME(Timing->HoldSetupTime));
 1570              		.loc 1 860 0 is_stmt 1
 1571 0026 A368     		ldr	r3, [r4, #8]	@ Timing_6(D)->HoldSetupTime, Timing_6(D)->HoldSetupTime
 1572 0028 FF2B     		cmp	r3, #255	@ Timing_6(D)->HoldSetupTime,
 1573 002a 04D9     		bls	.L215	@,
 1574              		.loc 1 860 0 is_stmt 0 discriminator 1
 1575 002c 0D48     		ldr	r0, .L217	@,
 1576 002e 4FF45771 		mov	r1, #860	@,
 1577 0032 FFF7FEFF 		bl	assert_failed	@
 1578              	.LVL142:
 1579              	.L215:
 861:../STM32Cube_FW_F4_V1.4.0/Drivers/STM32F4xx_HAL_Driver/Src/stm32f4xx_ll_fsmc.c ****   assert_param(IS_FSMC_HIZ_TIME(Timing->HiZSetupTime));
 1580              		.loc 1 861 0 is_stmt 1
 1581 0036 E368     		ldr	r3, [r4, #12]	@ Timing_6(D)->HiZSetupTime, Timing_6(D)->HiZSetupTime
 1582 0038 FF2B     		cmp	r3, #255	@ Timing_6(D)->HiZSetupTime,
 1583 003a 04D9     		bls	.L216	@,
 1584              		.loc 1 861 0 is_stmt 0 discriminator 1
 1585 003c 0948     		ldr	r0, .L217	@,
 1586 003e 40F25D31 		movw	r1, #861	@,
 1587 0042 FFF7FEFF 		bl	assert_failed	@
 1588              	.LVL143:
 1589              	.L216:
ARM GAS  C:\cygwin\tmp\ccPgEzdT.s 			page 45


 862:../STM32Cube_FW_F4_V1.4.0/Drivers/STM32F4xx_HAL_Driver/Src/stm32f4xx_ll_fsmc.c **** 
 863:../STM32Cube_FW_F4_V1.4.0/Drivers/STM32F4xx_HAL_Driver/Src/stm32f4xx_ll_fsmc.c ****   /* Get PCCARD timing parameters */
 864:../STM32Cube_FW_F4_V1.4.0/Drivers/STM32F4xx_HAL_Driver/Src/stm32f4xx_ll_fsmc.c ****   tmpr = Device->PATT4;
 865:../STM32Cube_FW_F4_V1.4.0/Drivers/STM32F4xx_HAL_Driver/Src/stm32f4xx_ll_fsmc.c **** 
 866:../STM32Cube_FW_F4_V1.4.0/Drivers/STM32F4xx_HAL_Driver/Src/stm32f4xx_ll_fsmc.c ****   /* Clear ATTSETx, ATTWAITx, ATTHOLDx and ATTHIZx bits */
 867:../STM32Cube_FW_F4_V1.4.0/Drivers/STM32F4xx_HAL_Driver/Src/stm32f4xx_ll_fsmc.c ****   tmpr &= ((uint32_t)~(FSMC_PATT4_ATTSET4  | FSMC_PATT4_ATTWAIT4 | FSMC_PATT4_ATTHOLD4 | \
 868:../STM32Cube_FW_F4_V1.4.0/Drivers/STM32F4xx_HAL_Driver/Src/stm32f4xx_ll_fsmc.c ****                        FSMC_PATT4_ATTHIZ4));
 869:../STM32Cube_FW_F4_V1.4.0/Drivers/STM32F4xx_HAL_Driver/Src/stm32f4xx_ll_fsmc.c ****   
 870:../STM32Cube_FW_F4_V1.4.0/Drivers/STM32F4xx_HAL_Driver/Src/stm32f4xx_ll_fsmc.c ****   /* Set PCCARD timing parameters */
 871:../STM32Cube_FW_F4_V1.4.0/Drivers/STM32F4xx_HAL_Driver/Src/stm32f4xx_ll_fsmc.c ****   tmpr |= (uint32_t)(Timing->SetupTime                |\
 872:../STM32Cube_FW_F4_V1.4.0/Drivers/STM32F4xx_HAL_Driver/Src/stm32f4xx_ll_fsmc.c ****                    ((Timing->WaitSetupTime) << 8)     |\
 873:../STM32Cube_FW_F4_V1.4.0/Drivers/STM32F4xx_HAL_Driver/Src/stm32f4xx_ll_fsmc.c ****                    ((Timing->HoldSetupTime) << 16)    |\
 1590              		.loc 1 873 0 is_stmt 1
 1591 0046 A268     		ldr	r2, [r4, #8]	@ Timing_6(D)->HoldSetupTime, Timing_6(D)->HoldSetupTime
 864:../STM32Cube_FW_F4_V1.4.0/Drivers/STM32F4xx_HAL_Driver/Src/stm32f4xx_ll_fsmc.c **** 
 1592              		.loc 1 864 0
 1593 0048 EB68     		ldr	r3, [r5, #12]	@ tmpr, Device_15(D)->PATT4
 1594              	.LVL144:
 872:../STM32Cube_FW_F4_V1.4.0/Drivers/STM32F4xx_HAL_Driver/Src/stm32f4xx_ll_fsmc.c ****                    ((Timing->HoldSetupTime) << 16)    |\
 1595              		.loc 1 872 0
 1596 004a 6368     		ldr	r3, [r4, #4]	@ Timing_6(D)->WaitSetupTime, Timing_6(D)->WaitSetupTime
 1597              		.loc 1 873 0
 1598 004c 1204     		lsls	r2, r2, #16	@ D.8019, Timing_6(D)->HoldSetupTime,
 1599 004e 42EA0322 		orr	r2, r2, r3, lsl #8	@, D.8019, D.8019, Timing_6(D)->WaitSetupTime,
 872:../STM32Cube_FW_F4_V1.4.0/Drivers/STM32F4xx_HAL_Driver/Src/stm32f4xx_ll_fsmc.c ****                    ((Timing->HoldSetupTime) << 16)    |\
 1600              		.loc 1 872 0
 1601 0052 2368     		ldr	r3, [r4]	@ Timing_6(D)->SetupTime, Timing_6(D)->SetupTime
 1602 0054 1343     		orrs	r3, r3, r2	@, D.8019, Timing_6(D)->SetupTime, D.8019
 874:../STM32Cube_FW_F4_V1.4.0/Drivers/STM32F4xx_HAL_Driver/Src/stm32f4xx_ll_fsmc.c ****                    ((Timing->HiZSetupTime) << 24));
 1603              		.loc 1 874 0
 1604 0056 E268     		ldr	r2, [r4, #12]	@ Timing_6(D)->HiZSetupTime, Timing_6(D)->HiZSetupTime
 871:../STM32Cube_FW_F4_V1.4.0/Drivers/STM32F4xx_HAL_Driver/Src/stm32f4xx_ll_fsmc.c ****                    ((Timing->WaitSetupTime) << 8)     |\
 1605              		.loc 1 871 0
 1606 0058 43EA0263 		orr	r3, r3, r2, lsl #24	@, D.8019, D.8019, Timing_6(D)->HiZSetupTime,
 1607              	.LVL145:
 875:../STM32Cube_FW_F4_V1.4.0/Drivers/STM32F4xx_HAL_Driver/Src/stm32f4xx_ll_fsmc.c ****   Device->PATT4 = tmpr; 
 1608              		.loc 1 875 0
 1609 005c EB60     		str	r3, [r5, #12]	@ D.8019, Device_15(D)->PATT4
 876:../STM32Cube_FW_F4_V1.4.0/Drivers/STM32F4xx_HAL_Driver/Src/stm32f4xx_ll_fsmc.c ****                                         
 877:../STM32Cube_FW_F4_V1.4.0/Drivers/STM32F4xx_HAL_Driver/Src/stm32f4xx_ll_fsmc.c ****   return HAL_OK;
 878:../STM32Cube_FW_F4_V1.4.0/Drivers/STM32F4xx_HAL_Driver/Src/stm32f4xx_ll_fsmc.c **** }
 1610              		.loc 1 878 0
 1611 005e 0020     		movs	r0, #0	@,
 1612 0060 38BD     		pop	{r3, r4, r5, pc}	@
 1613              	.LVL146:
 1614              	.L218:
 1615 0062 00BF     		.align	2
 1616              	.L217:
 1617 0064 00000000 		.word	.LC0
 1618              		.cfi_endproc
 1619              	.LFE138:
 1620              		.size	FSMC_PCCARD_AttributeSpace_Timing_Init, .-FSMC_PCCARD_AttributeSpace_Timing_Init
 1621              		.section	.text.FSMC_PCCARD_IOSpace_Timing_Init,"ax",%progbits
 1622              		.align	1
 1623              		.global	FSMC_PCCARD_IOSpace_Timing_Init
 1624              		.thumb
 1625              		.thumb_func
ARM GAS  C:\cygwin\tmp\ccPgEzdT.s 			page 46


 1626              		.type	FSMC_PCCARD_IOSpace_Timing_Init, %function
 1627              	FSMC_PCCARD_IOSpace_Timing_Init:
 1628              	.LFB139:
 879:../STM32Cube_FW_F4_V1.4.0/Drivers/STM32F4xx_HAL_Driver/Src/stm32f4xx_ll_fsmc.c **** 
 880:../STM32Cube_FW_F4_V1.4.0/Drivers/STM32F4xx_HAL_Driver/Src/stm32f4xx_ll_fsmc.c **** /**
 881:../STM32Cube_FW_F4_V1.4.0/Drivers/STM32F4xx_HAL_Driver/Src/stm32f4xx_ll_fsmc.c ****   * @brief  Initializes the FSMC_PCCARD IO space Timing according to the specified
 882:../STM32Cube_FW_F4_V1.4.0/Drivers/STM32F4xx_HAL_Driver/Src/stm32f4xx_ll_fsmc.c ****   *         parameters in the FSMC_NAND_PCC_TimingTypeDef
 883:../STM32Cube_FW_F4_V1.4.0/Drivers/STM32F4xx_HAL_Driver/Src/stm32f4xx_ll_fsmc.c ****   * @param  Device: Pointer to PCCARD device instance
 884:../STM32Cube_FW_F4_V1.4.0/Drivers/STM32F4xx_HAL_Driver/Src/stm32f4xx_ll_fsmc.c ****   * @param  Timing: Pointer to PCCARD timing structure  
 885:../STM32Cube_FW_F4_V1.4.0/Drivers/STM32F4xx_HAL_Driver/Src/stm32f4xx_ll_fsmc.c ****   * @retval HAL status
 886:../STM32Cube_FW_F4_V1.4.0/Drivers/STM32F4xx_HAL_Driver/Src/stm32f4xx_ll_fsmc.c ****   */
 887:../STM32Cube_FW_F4_V1.4.0/Drivers/STM32F4xx_HAL_Driver/Src/stm32f4xx_ll_fsmc.c **** HAL_StatusTypeDef FSMC_PCCARD_IOSpace_Timing_Init(FSMC_PCCARD_TypeDef *Device, FSMC_NAND_PCC_Timing
 888:../STM32Cube_FW_F4_V1.4.0/Drivers/STM32F4xx_HAL_Driver/Src/stm32f4xx_ll_fsmc.c **** {
 1629              		.loc 1 888 0
 1630              		.cfi_startproc
 1631              		@ args = 0, pretend = 0, frame = 0
 1632              		@ frame_needed = 0, uses_anonymous_args = 0
 1633              	.LVL147:
 1634 0000 38B5     		push	{r3, r4, r5, lr}	@
 1635              		.cfi_def_cfa_offset 16
 1636              		.cfi_offset 3, -16
 1637              		.cfi_offset 4, -12
 1638              		.cfi_offset 5, -8
 1639              		.cfi_offset 14, -4
 889:../STM32Cube_FW_F4_V1.4.0/Drivers/STM32F4xx_HAL_Driver/Src/stm32f4xx_ll_fsmc.c ****   uint32_t tmpr = 0;
 890:../STM32Cube_FW_F4_V1.4.0/Drivers/STM32F4xx_HAL_Driver/Src/stm32f4xx_ll_fsmc.c ****   
 891:../STM32Cube_FW_F4_V1.4.0/Drivers/STM32F4xx_HAL_Driver/Src/stm32f4xx_ll_fsmc.c ****   /* Check the parameters */  
 892:../STM32Cube_FW_F4_V1.4.0/Drivers/STM32F4xx_HAL_Driver/Src/stm32f4xx_ll_fsmc.c ****   assert_param(IS_FSMC_SETUP_TIME(Timing->SetupTime));
 1640              		.loc 1 892 0
 1641 0002 0B68     		ldr	r3, [r1]	@ Timing_6(D)->SetupTime, Timing_6(D)->SetupTime
 1642 0004 FF2B     		cmp	r3, #255	@ Timing_6(D)->SetupTime,
 888:../STM32Cube_FW_F4_V1.4.0/Drivers/STM32F4xx_HAL_Driver/Src/stm32f4xx_ll_fsmc.c ****   uint32_t tmpr = 0;
 1643              		.loc 1 888 0
 1644 0006 0546     		mov	r5, r0	@ Device, Device
 1645 0008 0C46     		mov	r4, r1	@ Timing, Timing
 1646              		.loc 1 892 0
 1647 000a 04D9     		bls	.L220	@,
 1648              		.loc 1 892 0 is_stmt 0 discriminator 1
 1649 000c 1548     		ldr	r0, .L224	@,
 1650              	.LVL148:
 1651 000e 4FF45F71 		mov	r1, #892	@,
 1652              	.LVL149:
 1653 0012 FFF7FEFF 		bl	assert_failed	@
 1654              	.LVL150:
 1655              	.L220:
 893:../STM32Cube_FW_F4_V1.4.0/Drivers/STM32F4xx_HAL_Driver/Src/stm32f4xx_ll_fsmc.c ****   assert_param(IS_FSMC_WAIT_TIME(Timing->WaitSetupTime));
 1656              		.loc 1 893 0 is_stmt 1
 1657 0016 6368     		ldr	r3, [r4, #4]	@ Timing_6(D)->WaitSetupTime, Timing_6(D)->WaitSetupTime
 1658 0018 FF2B     		cmp	r3, #255	@ Timing_6(D)->WaitSetupTime,
 1659 001a 04D9     		bls	.L221	@,
 1660              		.loc 1 893 0 is_stmt 0 discriminator 1
 1661 001c 1148     		ldr	r0, .L224	@,
 1662 001e 40F27D31 		movw	r1, #893	@,
 1663 0022 FFF7FEFF 		bl	assert_failed	@
 1664              	.LVL151:
 1665              	.L221:
 894:../STM32Cube_FW_F4_V1.4.0/Drivers/STM32F4xx_HAL_Driver/Src/stm32f4xx_ll_fsmc.c ****   assert_param(IS_FSMC_HOLD_TIME(Timing->HoldSetupTime));
ARM GAS  C:\cygwin\tmp\ccPgEzdT.s 			page 47


 1666              		.loc 1 894 0 is_stmt 1
 1667 0026 A368     		ldr	r3, [r4, #8]	@ Timing_6(D)->HoldSetupTime, Timing_6(D)->HoldSetupTime
 1668 0028 FF2B     		cmp	r3, #255	@ Timing_6(D)->HoldSetupTime,
 1669 002a 04D9     		bls	.L222	@,
 1670              		.loc 1 894 0 is_stmt 0 discriminator 1
 1671 002c 0D48     		ldr	r0, .L224	@,
 1672 002e 40F27E31 		movw	r1, #894	@,
 1673 0032 FFF7FEFF 		bl	assert_failed	@
 1674              	.LVL152:
 1675              	.L222:
 895:../STM32Cube_FW_F4_V1.4.0/Drivers/STM32F4xx_HAL_Driver/Src/stm32f4xx_ll_fsmc.c ****   assert_param(IS_FSMC_HIZ_TIME(Timing->HiZSetupTime));
 1676              		.loc 1 895 0 is_stmt 1
 1677 0036 E368     		ldr	r3, [r4, #12]	@ Timing_6(D)->HiZSetupTime, Timing_6(D)->HiZSetupTime
 1678 0038 FF2B     		cmp	r3, #255	@ Timing_6(D)->HiZSetupTime,
 1679 003a 04D9     		bls	.L223	@,
 1680              		.loc 1 895 0 is_stmt 0 discriminator 1
 1681 003c 0948     		ldr	r0, .L224	@,
 1682 003e 40F27F31 		movw	r1, #895	@,
 1683 0042 FFF7FEFF 		bl	assert_failed	@
 1684              	.LVL153:
 1685              	.L223:
 896:../STM32Cube_FW_F4_V1.4.0/Drivers/STM32F4xx_HAL_Driver/Src/stm32f4xx_ll_fsmc.c **** 
 897:../STM32Cube_FW_F4_V1.4.0/Drivers/STM32F4xx_HAL_Driver/Src/stm32f4xx_ll_fsmc.c ****   /* Get FSMC_PCCARD device timing parameters */
 898:../STM32Cube_FW_F4_V1.4.0/Drivers/STM32F4xx_HAL_Driver/Src/stm32f4xx_ll_fsmc.c ****   tmpr = Device->PIO4;
 899:../STM32Cube_FW_F4_V1.4.0/Drivers/STM32F4xx_HAL_Driver/Src/stm32f4xx_ll_fsmc.c **** 
 900:../STM32Cube_FW_F4_V1.4.0/Drivers/STM32F4xx_HAL_Driver/Src/stm32f4xx_ll_fsmc.c ****   /* Clear IOSET4, IOWAIT4, IOHOLD4 and IOHIZ4 bits */
 901:../STM32Cube_FW_F4_V1.4.0/Drivers/STM32F4xx_HAL_Driver/Src/stm32f4xx_ll_fsmc.c ****   tmpr &= ((uint32_t)~(FSMC_PIO4_IOSET4  | FSMC_PIO4_IOWAIT4 | FSMC_PIO4_IOHOLD4 | \
 902:../STM32Cube_FW_F4_V1.4.0/Drivers/STM32F4xx_HAL_Driver/Src/stm32f4xx_ll_fsmc.c ****                        FSMC_PIO4_IOHIZ4));
 903:../STM32Cube_FW_F4_V1.4.0/Drivers/STM32F4xx_HAL_Driver/Src/stm32f4xx_ll_fsmc.c ****   
 904:../STM32Cube_FW_F4_V1.4.0/Drivers/STM32F4xx_HAL_Driver/Src/stm32f4xx_ll_fsmc.c ****   /* Set FSMC_PCCARD device timing parameters */
 905:../STM32Cube_FW_F4_V1.4.0/Drivers/STM32F4xx_HAL_Driver/Src/stm32f4xx_ll_fsmc.c ****   tmpr |= (uint32_t)(Timing->SetupTime                  |\
 906:../STM32Cube_FW_F4_V1.4.0/Drivers/STM32F4xx_HAL_Driver/Src/stm32f4xx_ll_fsmc.c ****                      ((Timing->WaitSetupTime) << 8)     |\
 907:../STM32Cube_FW_F4_V1.4.0/Drivers/STM32F4xx_HAL_Driver/Src/stm32f4xx_ll_fsmc.c ****                      ((Timing->HoldSetupTime) << 16)    |\
 1686              		.loc 1 907 0 is_stmt 1
 1687 0046 A268     		ldr	r2, [r4, #8]	@ Timing_6(D)->HoldSetupTime, Timing_6(D)->HoldSetupTime
 898:../STM32Cube_FW_F4_V1.4.0/Drivers/STM32F4xx_HAL_Driver/Src/stm32f4xx_ll_fsmc.c **** 
 1688              		.loc 1 898 0
 1689 0048 2B69     		ldr	r3, [r5, #16]	@ tmpr, Device_15(D)->PIO4
 1690              	.LVL154:
 906:../STM32Cube_FW_F4_V1.4.0/Drivers/STM32F4xx_HAL_Driver/Src/stm32f4xx_ll_fsmc.c ****                      ((Timing->HoldSetupTime) << 16)    |\
 1691              		.loc 1 906 0
 1692 004a 6368     		ldr	r3, [r4, #4]	@ Timing_6(D)->WaitSetupTime, Timing_6(D)->WaitSetupTime
 1693              		.loc 1 907 0
 1694 004c 1204     		lsls	r2, r2, #16	@ D.8022, Timing_6(D)->HoldSetupTime,
 1695 004e 42EA0322 		orr	r2, r2, r3, lsl #8	@, D.8022, D.8022, Timing_6(D)->WaitSetupTime,
 906:../STM32Cube_FW_F4_V1.4.0/Drivers/STM32F4xx_HAL_Driver/Src/stm32f4xx_ll_fsmc.c ****                      ((Timing->HoldSetupTime) << 16)    |\
 1696              		.loc 1 906 0
 1697 0052 2368     		ldr	r3, [r4]	@ Timing_6(D)->SetupTime, Timing_6(D)->SetupTime
 1698 0054 1343     		orrs	r3, r3, r2	@, D.8022, Timing_6(D)->SetupTime, D.8022
 908:../STM32Cube_FW_F4_V1.4.0/Drivers/STM32F4xx_HAL_Driver/Src/stm32f4xx_ll_fsmc.c ****                      ((Timing->HiZSetupTime) << 24));   
 1699              		.loc 1 908 0
 1700 0056 E268     		ldr	r2, [r4, #12]	@ Timing_6(D)->HiZSetupTime, Timing_6(D)->HiZSetupTime
 905:../STM32Cube_FW_F4_V1.4.0/Drivers/STM32F4xx_HAL_Driver/Src/stm32f4xx_ll_fsmc.c ****                      ((Timing->WaitSetupTime) << 8)     |\
 1701              		.loc 1 905 0
 1702 0058 43EA0263 		orr	r3, r3, r2, lsl #24	@, D.8022, D.8022, Timing_6(D)->HiZSetupTime,
 1703              	.LVL155:
 909:../STM32Cube_FW_F4_V1.4.0/Drivers/STM32F4xx_HAL_Driver/Src/stm32f4xx_ll_fsmc.c ****   
ARM GAS  C:\cygwin\tmp\ccPgEzdT.s 			page 48


 910:../STM32Cube_FW_F4_V1.4.0/Drivers/STM32F4xx_HAL_Driver/Src/stm32f4xx_ll_fsmc.c ****   Device->PIO4 = tmpr;
 1704              		.loc 1 910 0
 1705 005c 2B61     		str	r3, [r5, #16]	@ D.8022, Device_15(D)->PIO4
 911:../STM32Cube_FW_F4_V1.4.0/Drivers/STM32F4xx_HAL_Driver/Src/stm32f4xx_ll_fsmc.c ****   
 912:../STM32Cube_FW_F4_V1.4.0/Drivers/STM32F4xx_HAL_Driver/Src/stm32f4xx_ll_fsmc.c ****   return HAL_OK;
 913:../STM32Cube_FW_F4_V1.4.0/Drivers/STM32F4xx_HAL_Driver/Src/stm32f4xx_ll_fsmc.c **** }
 1706              		.loc 1 913 0
 1707 005e 0020     		movs	r0, #0	@,
 1708 0060 38BD     		pop	{r3, r4, r5, pc}	@
 1709              	.LVL156:
 1710              	.L225:
 1711 0062 00BF     		.align	2
 1712              	.L224:
 1713 0064 00000000 		.word	.LC0
 1714              		.cfi_endproc
 1715              	.LFE139:
 1716              		.size	FSMC_PCCARD_IOSpace_Timing_Init, .-FSMC_PCCARD_IOSpace_Timing_Init
 1717              		.section	.text.FSMC_PCCARD_DeInit,"ax",%progbits
 1718              		.align	1
 1719              		.global	FSMC_PCCARD_DeInit
 1720              		.thumb
 1721              		.thumb_func
 1722              		.type	FSMC_PCCARD_DeInit, %function
 1723              	FSMC_PCCARD_DeInit:
 1724              	.LFB140:
 914:../STM32Cube_FW_F4_V1.4.0/Drivers/STM32F4xx_HAL_Driver/Src/stm32f4xx_ll_fsmc.c ****                                            
 915:../STM32Cube_FW_F4_V1.4.0/Drivers/STM32F4xx_HAL_Driver/Src/stm32f4xx_ll_fsmc.c **** /**
 916:../STM32Cube_FW_F4_V1.4.0/Drivers/STM32F4xx_HAL_Driver/Src/stm32f4xx_ll_fsmc.c ****   * @brief  DeInitializes the FSMC_PCCARD device 
 917:../STM32Cube_FW_F4_V1.4.0/Drivers/STM32F4xx_HAL_Driver/Src/stm32f4xx_ll_fsmc.c ****   * @param  Device: Pointer to PCCARD device instance
 918:../STM32Cube_FW_F4_V1.4.0/Drivers/STM32F4xx_HAL_Driver/Src/stm32f4xx_ll_fsmc.c ****   * @retval HAL status
 919:../STM32Cube_FW_F4_V1.4.0/Drivers/STM32F4xx_HAL_Driver/Src/stm32f4xx_ll_fsmc.c ****   */
 920:../STM32Cube_FW_F4_V1.4.0/Drivers/STM32F4xx_HAL_Driver/Src/stm32f4xx_ll_fsmc.c **** HAL_StatusTypeDef FSMC_PCCARD_DeInit(FSMC_PCCARD_TypeDef *Device)
 921:../STM32Cube_FW_F4_V1.4.0/Drivers/STM32F4xx_HAL_Driver/Src/stm32f4xx_ll_fsmc.c **** {
 1725              		.loc 1 921 0
 1726              		.cfi_startproc
 1727              		@ args = 0, pretend = 0, frame = 0
 1728              		@ frame_needed = 0, uses_anonymous_args = 0
 1729              		@ link register save eliminated.
 1730              	.LVL157:
 922:../STM32Cube_FW_F4_V1.4.0/Drivers/STM32F4xx_HAL_Driver/Src/stm32f4xx_ll_fsmc.c ****   /* Disable the FSMC_PCCARD device */
 923:../STM32Cube_FW_F4_V1.4.0/Drivers/STM32F4xx_HAL_Driver/Src/stm32f4xx_ll_fsmc.c ****   __FSMC_PCCARD_DISABLE(Device);
 1731              		.loc 1 923 0
 1732 0000 0268     		ldr	r2, [r0]	@ D.8025, Device_2(D)->PCR4
 1733 0002 22F00402 		bic	r2, r2, #4	@ D.8025, D.8025,
 1734 0006 0260     		str	r2, [r0]	@ D.8025, Device_2(D)->PCR4
 921:../STM32Cube_FW_F4_V1.4.0/Drivers/STM32F4xx_HAL_Driver/Src/stm32f4xx_ll_fsmc.c ****   /* Disable the FSMC_PCCARD device */
 1735              		.loc 1 921 0
 1736 0008 0346     		mov	r3, r0	@ Device, Device
 924:../STM32Cube_FW_F4_V1.4.0/Drivers/STM32F4xx_HAL_Driver/Src/stm32f4xx_ll_fsmc.c ****   
 925:../STM32Cube_FW_F4_V1.4.0/Drivers/STM32F4xx_HAL_Driver/Src/stm32f4xx_ll_fsmc.c ****   /* De-initialize the FSMC_PCCARD device */
 926:../STM32Cube_FW_F4_V1.4.0/Drivers/STM32F4xx_HAL_Driver/Src/stm32f4xx_ll_fsmc.c ****   Device->PCR4    = 0x00000018; 
 1737              		.loc 1 926 0
 1738 000a 1822     		movs	r2, #24	@ tmp114,
 1739 000c 0260     		str	r2, [r0]	@ tmp114, Device_2(D)->PCR4
 927:../STM32Cube_FW_F4_V1.4.0/Drivers/STM32F4xx_HAL_Driver/Src/stm32f4xx_ll_fsmc.c ****   Device->SR4     = 0x00000000;	
 928:../STM32Cube_FW_F4_V1.4.0/Drivers/STM32F4xx_HAL_Driver/Src/stm32f4xx_ll_fsmc.c ****   Device->PMEM4   = 0xFCFCFCFC;
 1740              		.loc 1 928 0
ARM GAS  C:\cygwin\tmp\ccPgEzdT.s 			page 49


 1741 000e 4FF0FC32 		mov	r2, #-50529028	@ tmp116,
 927:../STM32Cube_FW_F4_V1.4.0/Drivers/STM32F4xx_HAL_Driver/Src/stm32f4xx_ll_fsmc.c ****   Device->SR4     = 0x00000000;	
 1742              		.loc 1 927 0
 1743 0012 0020     		movs	r0, #0	@ tmp115,
 1744              	.LVL158:
 1745 0014 5860     		str	r0, [r3, #4]	@ tmp115, Device_2(D)->SR4
 1746              		.loc 1 928 0
 1747 0016 9A60     		str	r2, [r3, #8]	@ tmp116, Device_2(D)->PMEM4
 929:../STM32Cube_FW_F4_V1.4.0/Drivers/STM32F4xx_HAL_Driver/Src/stm32f4xx_ll_fsmc.c ****   Device->PATT4   = 0xFCFCFCFC;
 1748              		.loc 1 929 0
 1749 0018 DA60     		str	r2, [r3, #12]	@ tmp116, Device_2(D)->PATT4
 930:../STM32Cube_FW_F4_V1.4.0/Drivers/STM32F4xx_HAL_Driver/Src/stm32f4xx_ll_fsmc.c ****   Device->PIO4    = 0xFCFCFCFC;
 1750              		.loc 1 930 0
 1751 001a 1A61     		str	r2, [r3, #16]	@ tmp116, Device_2(D)->PIO4
 931:../STM32Cube_FW_F4_V1.4.0/Drivers/STM32F4xx_HAL_Driver/Src/stm32f4xx_ll_fsmc.c ****   
 932:../STM32Cube_FW_F4_V1.4.0/Drivers/STM32F4xx_HAL_Driver/Src/stm32f4xx_ll_fsmc.c ****   return HAL_OK;
 933:../STM32Cube_FW_F4_V1.4.0/Drivers/STM32F4xx_HAL_Driver/Src/stm32f4xx_ll_fsmc.c **** }
 1752              		.loc 1 933 0
 1753 001c 7047     		bx	lr	@
 1754              		.cfi_endproc
 1755              	.LFE140:
 1756              		.size	FSMC_PCCARD_DeInit, .-FSMC_PCCARD_DeInit
 1757              		.section	.rodata.str1.1,"aMS",%progbits,1
 1758              	.LC0:
 1759 0000 2E2E2F53 		.ascii	"../STM32Cube_FW_F4_V1.4.0/Drivers/STM32F4xx_HAL_Dri"
 1759      544D3332 
 1759      43756265 
 1759      5F46575F 
 1759      46345F56 
 1760 0033 7665722F 		.ascii	"ver/Src/stm32f4xx_ll_fsmc.c\000"
 1760      5372632F 
 1760      73746D33 
 1760      32663478 
 1760      785F6C6C 
 1761              		.text
 1762              	.Letext0:
 1763              		.file 2 "c:\\program files\\gcc-arm-none-eabi-4_9-2014\\arm-none-eabi\\include\\machine\\_default_
 1764              		.file 3 "c:\\program files\\gcc-arm-none-eabi-4_9-2014\\arm-none-eabi\\include\\stdint.h"
 1765              		.file 4 "../STM32Cube_FW_F4_V1.4.0/Drivers/CMSIS/Device/ST/STM32F4xx/Include/stm32f407xx.h"
 1766              		.file 5 "../STM32Cube_FW_F4_V1.4.0/Drivers/CMSIS/Device/ST/STM32F4xx/Include/stm32f4xx.h"
 1767              		.file 6 "../STM32Cube_FW_F4_V1.4.0/Drivers/STM32F4xx_HAL_Driver/Inc/stm32f4xx_hal_def.h"
 1768              		.file 7 "../STM32Cube_FW_F4_V1.4.0/Drivers/STM32F4xx_HAL_Driver/Inc/stm32f4xx_ll_fsmc.h"
 1769              		.file 8 "../STM32Cube_FW_F4_V1.4.0/Drivers/CMSIS/Include/core_cm4.h"
 1770              		.file 9 "Inc/stm32f4xx_hal_conf.h"
 1771              		.file 10 "../STM32Cube_FW_F4_V1.4.0/Drivers/STM32F4xx_HAL_Driver/Inc/stm32f4xx_hal.h"