ARM GAS  C:\cygwin\tmp\ccim5MRL.s 			page 1


   1              		.syntax unified
   2              		.cpu cortex-m4
   3              		.fpu softvfp
   4              		.eabi_attribute 20, 1	@ Tag_ABI_FP_denormal
   5              		.eabi_attribute 21, 1	@ Tag_ABI_FP_exceptions
   6              		.eabi_attribute 23, 3	@ Tag_ABI_FP_number_model
   7              		.eabi_attribute 24, 1	@ Tag_ABI_align8_needed
   8              		.eabi_attribute 25, 1	@ Tag_ABI_align8_preserved
   9              		.eabi_attribute 26, 1	@ Tag_ABI_enum_size
  10              		.eabi_attribute 30, 4	@ Tag_ABI_optimization_goals
  11              		.eabi_attribute 34, 1	@ Tag_CPU_unaligned_access
  12              		.eabi_attribute 18, 4	@ Tag_ABI_PCS_wchar_t
  13              		.file	"stm32f4xx_hal_rtc_ex.c"
  14              	@ GNU C (GNU Tools for ARM Embedded Processors) version 4.9.3 20141119 (release) [ARM/embedded-4_9-
  15              	@	compiled by GNU C version 4.7.4, GMP version 4.3.2, MPFR version 2.4.2, MPC version 0.8.1
  16              	@ GGC heuristics: --param ggc-min-expand=100 --param ggc-min-heapsize=131072
  17              	@ options passed:  -I . -I Inc
  18              	@ -I ../STM32Cube_FW_F4_V1.4.0/Drivers/CMSIS/Include
  19              	@ -I ../STM32Cube_FW_F4_V1.4.0/Drivers/CMSIS/Device/ST/STM32F4xx/Include
  20              	@ -I ../STM32Cube_FW_F4_V1.4.0/Drivers/STM32F4xx_HAL_Driver/Inc
  21              	@ -I ../STM32Cube_FW_F4_V1.4.0/Drivers/CMSIS/Include -imultilib armv7e-m
  22              	@ -iprefix c:\program files\gcc-arm-none-eabi-4_9-2014\bin\../lib/gcc/arm-none-eabi/4.9.3/
  23              	@ -isysroot c:\program files\gcc-arm-none-eabi-4_9-2014\bin\../arm-none-eabi
  24              	@ -MD out/stm32f4xx_hal_rtc_ex.d -MF out/stm32f4xx_hal_rtc_ex.d -MP
  25              	@ -MQ out/stm32f4xx_hal_rtc_ex.o -D__USES_INITFINI__ -D USE_HAL_DRIVER
  26              	@ -D STM32F4XX -D HSE_VALUE=8000000 -D __STARTUP_CLEAR_BSS -D STM32F411RE
  27              	@ -D USE_FULL_ASSERT -D __FPU_USED
  28              	@ ../STM32Cube_FW_F4_V1.4.0/Drivers/STM32F4xx_HAL_Driver/Src/stm32f4xx_hal_rtc_ex.c
  29              	@ -mcpu=cortex-m4 -mthumb -auxbase-strip out/stm32f4xx_hal_rtc_ex.o -g
  30              	@ -ggdb3 -Os -Os -Wall -Wstrict-prototypes -Wextra -std=gnu90
  31              	@ -ffunction-sections -fdata-sections -fverbose-asm
  32              	@ options enabled:  -faggressive-loop-optimizations -fauto-inc-dec
  33              	@ -fbranch-count-reg -fcaller-saves -fcombine-stack-adjustments -fcommon
  34              	@ -fcompare-elim -fcprop-registers -fcrossjumping -fcse-follow-jumps
  35              	@ -fdata-sections -fdefer-pop -fdelete-null-pointer-checks -fdevirtualize
  36              	@ -fdevirtualize-speculatively -fdwarf2-cfi-asm -fearly-inlining
  37              	@ -feliminate-unused-debug-types -fexpensive-optimizations
  38              	@ -fforward-propagate -ffunction-cse -ffunction-sections -fgcse -fgcse-lm
  39              	@ -fgnu-runtime -fgnu-unique -fguess-branch-probability
  40              	@ -fhoist-adjacent-loads -fident -fif-conversion -fif-conversion2
  41              	@ -findirect-inlining -finline -finline-atomics -finline-functions
  42              	@ -finline-functions-called-once -finline-small-functions -fipa-cp
  43              	@ -fipa-profile -fipa-pure-const -fipa-reference -fipa-sra
  44              	@ -fira-hoist-pressure -fira-share-save-slots -fira-share-spill-slots
  45              	@ -fisolate-erroneous-paths-dereference -fivopts -fkeep-static-consts
  46              	@ -fleading-underscore -fmath-errno -fmerge-constants -fmerge-debug-strings
  47              	@ -fomit-frame-pointer -foptimize-sibling-calls -fpartial-inlining
  48              	@ -fpeephole -fpeephole2 -fprefetch-loop-arrays -freg-struct-return
  49              	@ -freorder-blocks -freorder-functions -frerun-cse-after-loop
  50              	@ -fsched-critical-path-heuristic -fsched-dep-count-heuristic
  51              	@ -fsched-group-heuristic -fsched-interblock -fsched-last-insn-heuristic
  52              	@ -fsched-pressure -fsched-rank-heuristic -fsched-spec
  53              	@ -fsched-spec-insn-heuristic -fsched-stalled-insns-dep -fschedule-insns2
  54              	@ -fsection-anchors -fshow-column -fsigned-zeros -fsplit-ivs-in-unroller
  55              	@ -fsplit-wide-types -fstrict-aliasing -fstrict-overflow
  56              	@ -fstrict-volatile-bitfields -fsync-libcalls -fthread-jumps
  57              	@ -ftoplevel-reorder -ftrapping-math -ftree-bit-ccp -ftree-builtin-call-dce
ARM GAS  C:\cygwin\tmp\ccim5MRL.s 			page 2


  58              	@ -ftree-ccp -ftree-ch -ftree-coalesce-vars -ftree-copy-prop
  59              	@ -ftree-copyrename -ftree-cselim -ftree-dce -ftree-dominator-opts
  60              	@ -ftree-dse -ftree-forwprop -ftree-fre -ftree-loop-if-convert
  61              	@ -ftree-loop-im -ftree-loop-ivcanon -ftree-loop-optimize
  62              	@ -ftree-parallelize-loops= -ftree-phiprop -ftree-pre -ftree-pta
  63              	@ -ftree-reassoc -ftree-scev-cprop -ftree-sink -ftree-slsr -ftree-sra
  64              	@ -ftree-switch-conversion -ftree-tail-merge -ftree-ter -ftree-vrp
  65              	@ -funit-at-a-time -fvar-tracking -fvar-tracking-assignments -fverbose-asm
  66              	@ -fzero-initialized-in-bss -mlittle-endian -mlra
  67              	@ -mpic-data-is-text-relative -msched-prolog -mthumb -munaligned-access
  68              	@ -mvectorize-with-neon-quad
  69              	
  70              		.text
  71              	.Ltext0:
  72              		.cfi_sections	.debug_frame
  73              		.section	.text.HAL_RTCEx_SetTimeStamp,"ax",%progbits
  74              		.align	1
  75              		.global	HAL_RTCEx_SetTimeStamp
  76              		.thumb
  77              		.thumb_func
  78              		.type	HAL_RTCEx_SetTimeStamp, %function
  79              	HAL_RTCEx_SetTimeStamp:
  80              	.LFB123:
  81              		.file 1 "../STM32Cube_FW_F4_V1.4.0/Drivers/STM32F4xx_HAL_Driver/Src/stm32f4xx_hal_rtc_ex.c"
   1:../STM32Cube_FW_F4_V1.4.0/Drivers/STM32F4xx_HAL_Driver/Src/stm32f4xx_hal_rtc_ex.c **** /**
   2:../STM32Cube_FW_F4_V1.4.0/Drivers/STM32F4xx_HAL_Driver/Src/stm32f4xx_hal_rtc_ex.c ****   ******************************************************************************
   3:../STM32Cube_FW_F4_V1.4.0/Drivers/STM32F4xx_HAL_Driver/Src/stm32f4xx_hal_rtc_ex.c ****   * @file    stm32f4xx_hal_rtc_ex.c
   4:../STM32Cube_FW_F4_V1.4.0/Drivers/STM32F4xx_HAL_Driver/Src/stm32f4xx_hal_rtc_ex.c ****   * @author  MCD Application Team
   5:../STM32Cube_FW_F4_V1.4.0/Drivers/STM32F4xx_HAL_Driver/Src/stm32f4xx_hal_rtc_ex.c ****   * @version V1.2.0
   6:../STM32Cube_FW_F4_V1.4.0/Drivers/STM32F4xx_HAL_Driver/Src/stm32f4xx_hal_rtc_ex.c ****   * @date    26-December-2014
   7:../STM32Cube_FW_F4_V1.4.0/Drivers/STM32F4xx_HAL_Driver/Src/stm32f4xx_hal_rtc_ex.c ****   * @brief   RTC HAL module driver.
   8:../STM32Cube_FW_F4_V1.4.0/Drivers/STM32F4xx_HAL_Driver/Src/stm32f4xx_hal_rtc_ex.c ****   *          This file provides firmware functions to manage the following 
   9:../STM32Cube_FW_F4_V1.4.0/Drivers/STM32F4xx_HAL_Driver/Src/stm32f4xx_hal_rtc_ex.c ****   *          functionalities of the Real Time Clock (RTC) Extension peripheral:
  10:../STM32Cube_FW_F4_V1.4.0/Drivers/STM32F4xx_HAL_Driver/Src/stm32f4xx_hal_rtc_ex.c ****   *           + RTC Time Stamp functions
  11:../STM32Cube_FW_F4_V1.4.0/Drivers/STM32F4xx_HAL_Driver/Src/stm32f4xx_hal_rtc_ex.c ****   *           + RTC Tamper functions 
  12:../STM32Cube_FW_F4_V1.4.0/Drivers/STM32F4xx_HAL_Driver/Src/stm32f4xx_hal_rtc_ex.c ****   *           + RTC Wake-up functions
  13:../STM32Cube_FW_F4_V1.4.0/Drivers/STM32F4xx_HAL_Driver/Src/stm32f4xx_hal_rtc_ex.c ****   *           + Extension Control functions
  14:../STM32Cube_FW_F4_V1.4.0/Drivers/STM32F4xx_HAL_Driver/Src/stm32f4xx_hal_rtc_ex.c ****   *           + Extension RTC features functions    
  15:../STM32Cube_FW_F4_V1.4.0/Drivers/STM32F4xx_HAL_Driver/Src/stm32f4xx_hal_rtc_ex.c ****   *         
  16:../STM32Cube_FW_F4_V1.4.0/Drivers/STM32F4xx_HAL_Driver/Src/stm32f4xx_hal_rtc_ex.c ****   @verbatim
  17:../STM32Cube_FW_F4_V1.4.0/Drivers/STM32F4xx_HAL_Driver/Src/stm32f4xx_hal_rtc_ex.c ****   ==============================================================================
  18:../STM32Cube_FW_F4_V1.4.0/Drivers/STM32F4xx_HAL_Driver/Src/stm32f4xx_hal_rtc_ex.c ****                   ##### How to use this driver #####
  19:../STM32Cube_FW_F4_V1.4.0/Drivers/STM32F4xx_HAL_Driver/Src/stm32f4xx_hal_rtc_ex.c ****   ==============================================================================
  20:../STM32Cube_FW_F4_V1.4.0/Drivers/STM32F4xx_HAL_Driver/Src/stm32f4xx_hal_rtc_ex.c ****   [..] 
  21:../STM32Cube_FW_F4_V1.4.0/Drivers/STM32F4xx_HAL_Driver/Src/stm32f4xx_hal_rtc_ex.c ****     (+) Enable the RTC domain access.
  22:../STM32Cube_FW_F4_V1.4.0/Drivers/STM32F4xx_HAL_Driver/Src/stm32f4xx_hal_rtc_ex.c ****     (+) Configure the RTC Prescaler (Asynchronous and Synchronous) and RTC hour 
  23:../STM32Cube_FW_F4_V1.4.0/Drivers/STM32F4xx_HAL_Driver/Src/stm32f4xx_hal_rtc_ex.c ****         format using the HAL_RTC_Init() function.
  24:../STM32Cube_FW_F4_V1.4.0/Drivers/STM32F4xx_HAL_Driver/Src/stm32f4xx_hal_rtc_ex.c ****   
  25:../STM32Cube_FW_F4_V1.4.0/Drivers/STM32F4xx_HAL_Driver/Src/stm32f4xx_hal_rtc_ex.c ****   *** RTC Wake-up configuration ***
  26:../STM32Cube_FW_F4_V1.4.0/Drivers/STM32F4xx_HAL_Driver/Src/stm32f4xx_hal_rtc_ex.c ****   ================================
  27:../STM32Cube_FW_F4_V1.4.0/Drivers/STM32F4xx_HAL_Driver/Src/stm32f4xx_hal_rtc_ex.c ****   [..] 
  28:../STM32Cube_FW_F4_V1.4.0/Drivers/STM32F4xx_HAL_Driver/Src/stm32f4xx_hal_rtc_ex.c ****     (+) To configure the RTC Wake-up Clock source and Counter use the HAL_RTC_SetWakeUpTimer()
  29:../STM32Cube_FW_F4_V1.4.0/Drivers/STM32F4xx_HAL_Driver/Src/stm32f4xx_hal_rtc_ex.c ****         function. You can also configure the RTC Wake-up timer in interrupt mode 
  30:../STM32Cube_FW_F4_V1.4.0/Drivers/STM32F4xx_HAL_Driver/Src/stm32f4xx_hal_rtc_ex.c ****         using the HAL_RTC_SetWakeUpTimer_IT() function.
  31:../STM32Cube_FW_F4_V1.4.0/Drivers/STM32F4xx_HAL_Driver/Src/stm32f4xx_hal_rtc_ex.c ****     (+) To read the RTC Wake-up Counter register, use the HAL_RTC_GetWakeUpTimer() 
  32:../STM32Cube_FW_F4_V1.4.0/Drivers/STM32F4xx_HAL_Driver/Src/stm32f4xx_hal_rtc_ex.c ****         function.
  33:../STM32Cube_FW_F4_V1.4.0/Drivers/STM32F4xx_HAL_Driver/Src/stm32f4xx_hal_rtc_ex.c ****   
ARM GAS  C:\cygwin\tmp\ccim5MRL.s 			page 3


  34:../STM32Cube_FW_F4_V1.4.0/Drivers/STM32F4xx_HAL_Driver/Src/stm32f4xx_hal_rtc_ex.c ****   *** TimeStamp configuration ***
  35:../STM32Cube_FW_F4_V1.4.0/Drivers/STM32F4xx_HAL_Driver/Src/stm32f4xx_hal_rtc_ex.c ****   ===============================
  36:../STM32Cube_FW_F4_V1.4.0/Drivers/STM32F4xx_HAL_Driver/Src/stm32f4xx_hal_rtc_ex.c ****   [..]
  37:../STM32Cube_FW_F4_V1.4.0/Drivers/STM32F4xx_HAL_Driver/Src/stm32f4xx_hal_rtc_ex.c ****     (+) Configure the RTC_AFx trigger and enable the RTC TimeStamp using the 
  38:../STM32Cube_FW_F4_V1.4.0/Drivers/STM32F4xx_HAL_Driver/Src/stm32f4xx_hal_rtc_ex.c ****         HAL_RTC_SetTimeStamp() function. You can also configure the RTC TimeStamp with 
  39:../STM32Cube_FW_F4_V1.4.0/Drivers/STM32F4xx_HAL_Driver/Src/stm32f4xx_hal_rtc_ex.c ****         interrupt mode using the HAL_RTC_SetTimeStamp_IT() function.
  40:../STM32Cube_FW_F4_V1.4.0/Drivers/STM32F4xx_HAL_Driver/Src/stm32f4xx_hal_rtc_ex.c ****     (+) To read the RTC TimeStamp Time and Date register, use the HAL_RTC_GetTimeStamp()
  41:../STM32Cube_FW_F4_V1.4.0/Drivers/STM32F4xx_HAL_Driver/Src/stm32f4xx_hal_rtc_ex.c ****         function.
  42:../STM32Cube_FW_F4_V1.4.0/Drivers/STM32F4xx_HAL_Driver/Src/stm32f4xx_hal_rtc_ex.c ****     (+) The TIMESTAMP alternate function can be mapped either to RTC_AF1 (PC13)
  43:../STM32Cube_FW_F4_V1.4.0/Drivers/STM32F4xx_HAL_Driver/Src/stm32f4xx_hal_rtc_ex.c ****         or RTC_AF2 (PI8) depending on the value of TSINSEL bit in 
  44:../STM32Cube_FW_F4_V1.4.0/Drivers/STM32F4xx_HAL_Driver/Src/stm32f4xx_hal_rtc_ex.c ****         RTC_TAFCR register. The corresponding pin is also selected by HAL_RTC_SetTimeStamp()
  45:../STM32Cube_FW_F4_V1.4.0/Drivers/STM32F4xx_HAL_Driver/Src/stm32f4xx_hal_rtc_ex.c ****         or HAL_RTC_SetTimeStamp_IT() function.
  46:../STM32Cube_FW_F4_V1.4.0/Drivers/STM32F4xx_HAL_Driver/Src/stm32f4xx_hal_rtc_ex.c ****   
  47:../STM32Cube_FW_F4_V1.4.0/Drivers/STM32F4xx_HAL_Driver/Src/stm32f4xx_hal_rtc_ex.c ****   *** Tamper configuration ***
  48:../STM32Cube_FW_F4_V1.4.0/Drivers/STM32F4xx_HAL_Driver/Src/stm32f4xx_hal_rtc_ex.c ****   ============================
  49:../STM32Cube_FW_F4_V1.4.0/Drivers/STM32F4xx_HAL_Driver/Src/stm32f4xx_hal_rtc_ex.c ****   [..]
  50:../STM32Cube_FW_F4_V1.4.0/Drivers/STM32F4xx_HAL_Driver/Src/stm32f4xx_hal_rtc_ex.c ****     (+) Enable the RTC Tamper and configure the Tamper filter count, trigger Edge 
  51:../STM32Cube_FW_F4_V1.4.0/Drivers/STM32F4xx_HAL_Driver/Src/stm32f4xx_hal_rtc_ex.c ****         or Level according to the Tamper filter (if equal to 0 Edge else Level) 
  52:../STM32Cube_FW_F4_V1.4.0/Drivers/STM32F4xx_HAL_Driver/Src/stm32f4xx_hal_rtc_ex.c ****         value, sampling frequency, precharge or discharge and Pull-UP using the 
  53:../STM32Cube_FW_F4_V1.4.0/Drivers/STM32F4xx_HAL_Driver/Src/stm32f4xx_hal_rtc_ex.c ****         HAL_RTC_SetTamper() function. You can configure RTC Tamper in interrupt 
  54:../STM32Cube_FW_F4_V1.4.0/Drivers/STM32F4xx_HAL_Driver/Src/stm32f4xx_hal_rtc_ex.c ****         mode using HAL_RTC_SetTamper_IT() function.
  55:../STM32Cube_FW_F4_V1.4.0/Drivers/STM32F4xx_HAL_Driver/Src/stm32f4xx_hal_rtc_ex.c ****     (+) The TAMPER1 alternate function can be mapped either to RTC_AF1 (PC13)
  56:../STM32Cube_FW_F4_V1.4.0/Drivers/STM32F4xx_HAL_Driver/Src/stm32f4xx_hal_rtc_ex.c ****         or RTC_AF2 (PI8) depending on the value of TAMP1INSEL bit in 
  57:../STM32Cube_FW_F4_V1.4.0/Drivers/STM32F4xx_HAL_Driver/Src/stm32f4xx_hal_rtc_ex.c ****         RTC_TAFCR register. The corresponding pin is also selected by HAL_RTC_SetTamper()
  58:../STM32Cube_FW_F4_V1.4.0/Drivers/STM32F4xx_HAL_Driver/Src/stm32f4xx_hal_rtc_ex.c ****         or HAL_RTC_SetTamper_IT() function.
  59:../STM32Cube_FW_F4_V1.4.0/Drivers/STM32F4xx_HAL_Driver/Src/stm32f4xx_hal_rtc_ex.c ****   
  60:../STM32Cube_FW_F4_V1.4.0/Drivers/STM32F4xx_HAL_Driver/Src/stm32f4xx_hal_rtc_ex.c ****   *** Backup Data Registers configuration ***
  61:../STM32Cube_FW_F4_V1.4.0/Drivers/STM32F4xx_HAL_Driver/Src/stm32f4xx_hal_rtc_ex.c ****   ===========================================
  62:../STM32Cube_FW_F4_V1.4.0/Drivers/STM32F4xx_HAL_Driver/Src/stm32f4xx_hal_rtc_ex.c ****   [..]
  63:../STM32Cube_FW_F4_V1.4.0/Drivers/STM32F4xx_HAL_Driver/Src/stm32f4xx_hal_rtc_ex.c ****     (+) To write to the RTC Backup Data registers, use the HAL_RTC_BKUPWrite()
  64:../STM32Cube_FW_F4_V1.4.0/Drivers/STM32F4xx_HAL_Driver/Src/stm32f4xx_hal_rtc_ex.c ****         function.  
  65:../STM32Cube_FW_F4_V1.4.0/Drivers/STM32F4xx_HAL_Driver/Src/stm32f4xx_hal_rtc_ex.c ****     (+) To read the RTC Backup Data registers, use the HAL_RTC_BKUPRead()
  66:../STM32Cube_FW_F4_V1.4.0/Drivers/STM32F4xx_HAL_Driver/Src/stm32f4xx_hal_rtc_ex.c ****         function.
  67:../STM32Cube_FW_F4_V1.4.0/Drivers/STM32F4xx_HAL_Driver/Src/stm32f4xx_hal_rtc_ex.c ****      
  68:../STM32Cube_FW_F4_V1.4.0/Drivers/STM32F4xx_HAL_Driver/Src/stm32f4xx_hal_rtc_ex.c ****    @endverbatim
  69:../STM32Cube_FW_F4_V1.4.0/Drivers/STM32F4xx_HAL_Driver/Src/stm32f4xx_hal_rtc_ex.c ****   ******************************************************************************
  70:../STM32Cube_FW_F4_V1.4.0/Drivers/STM32F4xx_HAL_Driver/Src/stm32f4xx_hal_rtc_ex.c ****   * @attention
  71:../STM32Cube_FW_F4_V1.4.0/Drivers/STM32F4xx_HAL_Driver/Src/stm32f4xx_hal_rtc_ex.c ****   *
  72:../STM32Cube_FW_F4_V1.4.0/Drivers/STM32F4xx_HAL_Driver/Src/stm32f4xx_hal_rtc_ex.c ****   * <h2><center>&copy; COPYRIGHT(c) 2014 STMicroelectronics</center></h2>
  73:../STM32Cube_FW_F4_V1.4.0/Drivers/STM32F4xx_HAL_Driver/Src/stm32f4xx_hal_rtc_ex.c ****   *
  74:../STM32Cube_FW_F4_V1.4.0/Drivers/STM32F4xx_HAL_Driver/Src/stm32f4xx_hal_rtc_ex.c ****   * Redistribution and use in source and binary forms, with or without modification,
  75:../STM32Cube_FW_F4_V1.4.0/Drivers/STM32F4xx_HAL_Driver/Src/stm32f4xx_hal_rtc_ex.c ****   * are permitted provided that the following conditions are met:
  76:../STM32Cube_FW_F4_V1.4.0/Drivers/STM32F4xx_HAL_Driver/Src/stm32f4xx_hal_rtc_ex.c ****   *   1. Redistributions of source code must retain the above copyright notice,
  77:../STM32Cube_FW_F4_V1.4.0/Drivers/STM32F4xx_HAL_Driver/Src/stm32f4xx_hal_rtc_ex.c ****   *      this list of conditions and the following disclaimer.
  78:../STM32Cube_FW_F4_V1.4.0/Drivers/STM32F4xx_HAL_Driver/Src/stm32f4xx_hal_rtc_ex.c ****   *   2. Redistributions in binary form must reproduce the above copyright notice,
  79:../STM32Cube_FW_F4_V1.4.0/Drivers/STM32F4xx_HAL_Driver/Src/stm32f4xx_hal_rtc_ex.c ****   *      this list of conditions and the following disclaimer in the documentation
  80:../STM32Cube_FW_F4_V1.4.0/Drivers/STM32F4xx_HAL_Driver/Src/stm32f4xx_hal_rtc_ex.c ****   *      and/or other materials provided with the distribution.
  81:../STM32Cube_FW_F4_V1.4.0/Drivers/STM32F4xx_HAL_Driver/Src/stm32f4xx_hal_rtc_ex.c ****   *   3. Neither the name of STMicroelectronics nor the names of its contributors
  82:../STM32Cube_FW_F4_V1.4.0/Drivers/STM32F4xx_HAL_Driver/Src/stm32f4xx_hal_rtc_ex.c ****   *      may be used to endorse or promote products derived from this software
  83:../STM32Cube_FW_F4_V1.4.0/Drivers/STM32F4xx_HAL_Driver/Src/stm32f4xx_hal_rtc_ex.c ****   *      without specific prior written permission.
  84:../STM32Cube_FW_F4_V1.4.0/Drivers/STM32F4xx_HAL_Driver/Src/stm32f4xx_hal_rtc_ex.c ****   *
  85:../STM32Cube_FW_F4_V1.4.0/Drivers/STM32F4xx_HAL_Driver/Src/stm32f4xx_hal_rtc_ex.c ****   * THIS SOFTWARE IS PROVIDED BY THE COPYRIGHT HOLDERS AND CONTRIBUTORS "AS IS"
  86:../STM32Cube_FW_F4_V1.4.0/Drivers/STM32F4xx_HAL_Driver/Src/stm32f4xx_hal_rtc_ex.c ****   * AND ANY EXPRESS OR IMPLIED WARRANTIES, INCLUDING, BUT NOT LIMITED TO, THE
  87:../STM32Cube_FW_F4_V1.4.0/Drivers/STM32F4xx_HAL_Driver/Src/stm32f4xx_hal_rtc_ex.c ****   * IMPLIED WARRANTIES OF MERCHANTABILITY AND FITNESS FOR A PARTICULAR PURPOSE ARE
  88:../STM32Cube_FW_F4_V1.4.0/Drivers/STM32F4xx_HAL_Driver/Src/stm32f4xx_hal_rtc_ex.c ****   * DISCLAIMED. IN NO EVENT SHALL THE COPYRIGHT HOLDER OR CONTRIBUTORS BE LIABLE
  89:../STM32Cube_FW_F4_V1.4.0/Drivers/STM32F4xx_HAL_Driver/Src/stm32f4xx_hal_rtc_ex.c ****   * FOR ANY DIRECT, INDIRECT, INCIDENTAL, SPECIAL, EXEMPLARY, OR CONSEQUENTIAL
  90:../STM32Cube_FW_F4_V1.4.0/Drivers/STM32F4xx_HAL_Driver/Src/stm32f4xx_hal_rtc_ex.c ****   * DAMAGES (INCLUDING, BUT NOT LIMITED TO, PROCUREMENT OF SUBSTITUTE GOODS OR
ARM GAS  C:\cygwin\tmp\ccim5MRL.s 			page 4


  91:../STM32Cube_FW_F4_V1.4.0/Drivers/STM32F4xx_HAL_Driver/Src/stm32f4xx_hal_rtc_ex.c ****   * SERVICES; LOSS OF USE, DATA, OR PROFITS; OR BUSINESS INTERRUPTION) HOWEVER
  92:../STM32Cube_FW_F4_V1.4.0/Drivers/STM32F4xx_HAL_Driver/Src/stm32f4xx_hal_rtc_ex.c ****   * CAUSED AND ON ANY THEORY OF LIABILITY, WHETHER IN CONTRACT, STRICT LIABILITY,
  93:../STM32Cube_FW_F4_V1.4.0/Drivers/STM32F4xx_HAL_Driver/Src/stm32f4xx_hal_rtc_ex.c ****   * OR TORT (INCLUDING NEGLIGENCE OR OTHERWISE) ARISING IN ANY WAY OUT OF THE USE
  94:../STM32Cube_FW_F4_V1.4.0/Drivers/STM32F4xx_HAL_Driver/Src/stm32f4xx_hal_rtc_ex.c ****   * OF THIS SOFTWARE, EVEN IF ADVISED OF THE POSSIBILITY OF SUCH DAMAGE.
  95:../STM32Cube_FW_F4_V1.4.0/Drivers/STM32F4xx_HAL_Driver/Src/stm32f4xx_hal_rtc_ex.c ****   *
  96:../STM32Cube_FW_F4_V1.4.0/Drivers/STM32F4xx_HAL_Driver/Src/stm32f4xx_hal_rtc_ex.c ****   ******************************************************************************
  97:../STM32Cube_FW_F4_V1.4.0/Drivers/STM32F4xx_HAL_Driver/Src/stm32f4xx_hal_rtc_ex.c ****   */ 
  98:../STM32Cube_FW_F4_V1.4.0/Drivers/STM32F4xx_HAL_Driver/Src/stm32f4xx_hal_rtc_ex.c **** 
  99:../STM32Cube_FW_F4_V1.4.0/Drivers/STM32F4xx_HAL_Driver/Src/stm32f4xx_hal_rtc_ex.c **** /* Includes ------------------------------------------------------------------*/
 100:../STM32Cube_FW_F4_V1.4.0/Drivers/STM32F4xx_HAL_Driver/Src/stm32f4xx_hal_rtc_ex.c **** #include "stm32f4xx_hal.h"
 101:../STM32Cube_FW_F4_V1.4.0/Drivers/STM32F4xx_HAL_Driver/Src/stm32f4xx_hal_rtc_ex.c **** 
 102:../STM32Cube_FW_F4_V1.4.0/Drivers/STM32F4xx_HAL_Driver/Src/stm32f4xx_hal_rtc_ex.c **** /** @addtogroup STM32F4xx_HAL_Driver
 103:../STM32Cube_FW_F4_V1.4.0/Drivers/STM32F4xx_HAL_Driver/Src/stm32f4xx_hal_rtc_ex.c ****   * @{
 104:../STM32Cube_FW_F4_V1.4.0/Drivers/STM32F4xx_HAL_Driver/Src/stm32f4xx_hal_rtc_ex.c ****   */
 105:../STM32Cube_FW_F4_V1.4.0/Drivers/STM32F4xx_HAL_Driver/Src/stm32f4xx_hal_rtc_ex.c **** 
 106:../STM32Cube_FW_F4_V1.4.0/Drivers/STM32F4xx_HAL_Driver/Src/stm32f4xx_hal_rtc_ex.c **** /** @defgroup RTCEx RTCEx
 107:../STM32Cube_FW_F4_V1.4.0/Drivers/STM32F4xx_HAL_Driver/Src/stm32f4xx_hal_rtc_ex.c ****   * @brief RTC HAL module driver
 108:../STM32Cube_FW_F4_V1.4.0/Drivers/STM32F4xx_HAL_Driver/Src/stm32f4xx_hal_rtc_ex.c ****   * @{
 109:../STM32Cube_FW_F4_V1.4.0/Drivers/STM32F4xx_HAL_Driver/Src/stm32f4xx_hal_rtc_ex.c ****   */
 110:../STM32Cube_FW_F4_V1.4.0/Drivers/STM32F4xx_HAL_Driver/Src/stm32f4xx_hal_rtc_ex.c **** 
 111:../STM32Cube_FW_F4_V1.4.0/Drivers/STM32F4xx_HAL_Driver/Src/stm32f4xx_hal_rtc_ex.c **** #ifdef HAL_RTC_MODULE_ENABLED
 112:../STM32Cube_FW_F4_V1.4.0/Drivers/STM32F4xx_HAL_Driver/Src/stm32f4xx_hal_rtc_ex.c **** 
 113:../STM32Cube_FW_F4_V1.4.0/Drivers/STM32F4xx_HAL_Driver/Src/stm32f4xx_hal_rtc_ex.c **** /* Private typedef -----------------------------------------------------------*/
 114:../STM32Cube_FW_F4_V1.4.0/Drivers/STM32F4xx_HAL_Driver/Src/stm32f4xx_hal_rtc_ex.c **** /* Private define ------------------------------------------------------------*/
 115:../STM32Cube_FW_F4_V1.4.0/Drivers/STM32F4xx_HAL_Driver/Src/stm32f4xx_hal_rtc_ex.c **** /* Private macro -------------------------------------------------------------*/
 116:../STM32Cube_FW_F4_V1.4.0/Drivers/STM32F4xx_HAL_Driver/Src/stm32f4xx_hal_rtc_ex.c **** /* Private variables ---------------------------------------------------------*/
 117:../STM32Cube_FW_F4_V1.4.0/Drivers/STM32F4xx_HAL_Driver/Src/stm32f4xx_hal_rtc_ex.c **** /* Private function prototypes -----------------------------------------------*/
 118:../STM32Cube_FW_F4_V1.4.0/Drivers/STM32F4xx_HAL_Driver/Src/stm32f4xx_hal_rtc_ex.c **** /* Private functions ---------------------------------------------------------*/
 119:../STM32Cube_FW_F4_V1.4.0/Drivers/STM32F4xx_HAL_Driver/Src/stm32f4xx_hal_rtc_ex.c **** 
 120:../STM32Cube_FW_F4_V1.4.0/Drivers/STM32F4xx_HAL_Driver/Src/stm32f4xx_hal_rtc_ex.c **** /** @defgroup RTCEx_Exported_Functions RTCEx Exported Functions
 121:../STM32Cube_FW_F4_V1.4.0/Drivers/STM32F4xx_HAL_Driver/Src/stm32f4xx_hal_rtc_ex.c ****   * @{
 122:../STM32Cube_FW_F4_V1.4.0/Drivers/STM32F4xx_HAL_Driver/Src/stm32f4xx_hal_rtc_ex.c ****   */  
 123:../STM32Cube_FW_F4_V1.4.0/Drivers/STM32F4xx_HAL_Driver/Src/stm32f4xx_hal_rtc_ex.c **** 
 124:../STM32Cube_FW_F4_V1.4.0/Drivers/STM32F4xx_HAL_Driver/Src/stm32f4xx_hal_rtc_ex.c **** /** @defgroup RTCEx_Exported_Functions_Group1 RTC TimeStamp and Tamper functions
 125:../STM32Cube_FW_F4_V1.4.0/Drivers/STM32F4xx_HAL_Driver/Src/stm32f4xx_hal_rtc_ex.c ****  *  @brief   RTC TimeStamp and Tamper functions
 126:../STM32Cube_FW_F4_V1.4.0/Drivers/STM32F4xx_HAL_Driver/Src/stm32f4xx_hal_rtc_ex.c ****  *
 127:../STM32Cube_FW_F4_V1.4.0/Drivers/STM32F4xx_HAL_Driver/Src/stm32f4xx_hal_rtc_ex.c **** @verbatim   
 128:../STM32Cube_FW_F4_V1.4.0/Drivers/STM32F4xx_HAL_Driver/Src/stm32f4xx_hal_rtc_ex.c ****  ===============================================================================
 129:../STM32Cube_FW_F4_V1.4.0/Drivers/STM32F4xx_HAL_Driver/Src/stm32f4xx_hal_rtc_ex.c ****                  ##### RTC TimeStamp and Tamper functions #####
 130:../STM32Cube_FW_F4_V1.4.0/Drivers/STM32F4xx_HAL_Driver/Src/stm32f4xx_hal_rtc_ex.c ****  ===============================================================================  
 131:../STM32Cube_FW_F4_V1.4.0/Drivers/STM32F4xx_HAL_Driver/Src/stm32f4xx_hal_rtc_ex.c ****  
 132:../STM32Cube_FW_F4_V1.4.0/Drivers/STM32F4xx_HAL_Driver/Src/stm32f4xx_hal_rtc_ex.c ****  [..] This section provides functions allowing to configure TimeStamp feature
 133:../STM32Cube_FW_F4_V1.4.0/Drivers/STM32F4xx_HAL_Driver/Src/stm32f4xx_hal_rtc_ex.c **** 
 134:../STM32Cube_FW_F4_V1.4.0/Drivers/STM32F4xx_HAL_Driver/Src/stm32f4xx_hal_rtc_ex.c **** @endverbatim
 135:../STM32Cube_FW_F4_V1.4.0/Drivers/STM32F4xx_HAL_Driver/Src/stm32f4xx_hal_rtc_ex.c ****   * @{
 136:../STM32Cube_FW_F4_V1.4.0/Drivers/STM32F4xx_HAL_Driver/Src/stm32f4xx_hal_rtc_ex.c ****   */
 137:../STM32Cube_FW_F4_V1.4.0/Drivers/STM32F4xx_HAL_Driver/Src/stm32f4xx_hal_rtc_ex.c **** 
 138:../STM32Cube_FW_F4_V1.4.0/Drivers/STM32F4xx_HAL_Driver/Src/stm32f4xx_hal_rtc_ex.c **** /**
 139:../STM32Cube_FW_F4_V1.4.0/Drivers/STM32F4xx_HAL_Driver/Src/stm32f4xx_hal_rtc_ex.c ****   * @brief  Sets TimeStamp.
 140:../STM32Cube_FW_F4_V1.4.0/Drivers/STM32F4xx_HAL_Driver/Src/stm32f4xx_hal_rtc_ex.c ****   * @note   This API must be called before enabling the TimeStamp feature. 
 141:../STM32Cube_FW_F4_V1.4.0/Drivers/STM32F4xx_HAL_Driver/Src/stm32f4xx_hal_rtc_ex.c ****   * @param  hrtc: pointer to a RTC_HandleTypeDef structure that contains
 142:../STM32Cube_FW_F4_V1.4.0/Drivers/STM32F4xx_HAL_Driver/Src/stm32f4xx_hal_rtc_ex.c ****   *                the configuration information for RTC.
 143:../STM32Cube_FW_F4_V1.4.0/Drivers/STM32F4xx_HAL_Driver/Src/stm32f4xx_hal_rtc_ex.c ****   * @param  TimeStampEdge: Specifies the pin edge on which the TimeStamp is 
 144:../STM32Cube_FW_F4_V1.4.0/Drivers/STM32F4xx_HAL_Driver/Src/stm32f4xx_hal_rtc_ex.c ****   *         activated.
 145:../STM32Cube_FW_F4_V1.4.0/Drivers/STM32F4xx_HAL_Driver/Src/stm32f4xx_hal_rtc_ex.c ****   *          This parameter can be one of the following values:
 146:../STM32Cube_FW_F4_V1.4.0/Drivers/STM32F4xx_HAL_Driver/Src/stm32f4xx_hal_rtc_ex.c ****   *             @arg RTC_TIMESTAMPEDGE_RISING: the Time stamp event occurs on the  
 147:../STM32Cube_FW_F4_V1.4.0/Drivers/STM32F4xx_HAL_Driver/Src/stm32f4xx_hal_rtc_ex.c ****   *                                        rising edge of the related pin.
ARM GAS  C:\cygwin\tmp\ccim5MRL.s 			page 5


 148:../STM32Cube_FW_F4_V1.4.0/Drivers/STM32F4xx_HAL_Driver/Src/stm32f4xx_hal_rtc_ex.c ****   *             @arg RTC_TIMESTAMPEDGE_FALLING: the Time stamp event occurs on the 
 149:../STM32Cube_FW_F4_V1.4.0/Drivers/STM32F4xx_HAL_Driver/Src/stm32f4xx_hal_rtc_ex.c ****   *                                         falling edge of the related pin.
 150:../STM32Cube_FW_F4_V1.4.0/Drivers/STM32F4xx_HAL_Driver/Src/stm32f4xx_hal_rtc_ex.c ****   * @param  RTC_TimeStampPin: specifies the RTC TimeStamp Pin.
 151:../STM32Cube_FW_F4_V1.4.0/Drivers/STM32F4xx_HAL_Driver/Src/stm32f4xx_hal_rtc_ex.c ****   *          This parameter can be one of the following values:
 152:../STM32Cube_FW_F4_V1.4.0/Drivers/STM32F4xx_HAL_Driver/Src/stm32f4xx_hal_rtc_ex.c ****   *             @arg RTC_TIMESTAMPPIN_PC13: PC13 is selected as RTC TimeStamp Pin.
 153:../STM32Cube_FW_F4_V1.4.0/Drivers/STM32F4xx_HAL_Driver/Src/stm32f4xx_hal_rtc_ex.c ****   *             @arg RTC_TIMESTAMPPIN_PI8: PI8 is selected as RTC TimeStamp Pin.  
 154:../STM32Cube_FW_F4_V1.4.0/Drivers/STM32F4xx_HAL_Driver/Src/stm32f4xx_hal_rtc_ex.c ****   * @retval HAL status
 155:../STM32Cube_FW_F4_V1.4.0/Drivers/STM32F4xx_HAL_Driver/Src/stm32f4xx_hal_rtc_ex.c ****   */
 156:../STM32Cube_FW_F4_V1.4.0/Drivers/STM32F4xx_HAL_Driver/Src/stm32f4xx_hal_rtc_ex.c **** HAL_StatusTypeDef HAL_RTCEx_SetTimeStamp(RTC_HandleTypeDef *hrtc, uint32_t TimeStampEdge, uint32_t 
 157:../STM32Cube_FW_F4_V1.4.0/Drivers/STM32F4xx_HAL_Driver/Src/stm32f4xx_hal_rtc_ex.c **** {
  82              		.loc 1 157 0
  83              		.cfi_startproc
  84              		@ args = 0, pretend = 0, frame = 0
  85              		@ frame_needed = 0, uses_anonymous_args = 0
  86              	.LVL0:
 158:../STM32Cube_FW_F4_V1.4.0/Drivers/STM32F4xx_HAL_Driver/Src/stm32f4xx_hal_rtc_ex.c ****   uint32_t tmpreg = 0;
 159:../STM32Cube_FW_F4_V1.4.0/Drivers/STM32F4xx_HAL_Driver/Src/stm32f4xx_hal_rtc_ex.c ****   
 160:../STM32Cube_FW_F4_V1.4.0/Drivers/STM32F4xx_HAL_Driver/Src/stm32f4xx_hal_rtc_ex.c ****   /* Check the parameters */
 161:../STM32Cube_FW_F4_V1.4.0/Drivers/STM32F4xx_HAL_Driver/Src/stm32f4xx_hal_rtc_ex.c ****   assert_param(IS_TIMESTAMP_EDGE(TimeStampEdge));
  87              		.loc 1 161 0
  88 0000 31F00803 		bics	r3, r1, #8	@ tmp145, TimeStampEdge,
 157:../STM32Cube_FW_F4_V1.4.0/Drivers/STM32F4xx_HAL_Driver/Src/stm32f4xx_hal_rtc_ex.c ****   uint32_t tmpreg = 0;
  89              		.loc 1 157 0
  90 0004 70B5     		push	{r4, r5, r6, lr}	@
  91              		.cfi_def_cfa_offset 16
  92              		.cfi_offset 4, -16
  93              		.cfi_offset 5, -12
  94              		.cfi_offset 6, -8
  95              		.cfi_offset 14, -4
 157:../STM32Cube_FW_F4_V1.4.0/Drivers/STM32F4xx_HAL_Driver/Src/stm32f4xx_hal_rtc_ex.c ****   uint32_t tmpreg = 0;
  96              		.loc 1 157 0
  97 0006 0446     		mov	r4, r0	@ hrtc, hrtc
  98 0008 0E46     		mov	r6, r1	@ TimeStampEdge, TimeStampEdge
  99 000a 1546     		mov	r5, r2	@ RTC_TimeStampPin, RTC_TimeStampPin
 100              		.loc 1 161 0
 101 000c 03D0     		beq	.L2	@,
 102              		.loc 1 161 0 is_stmt 0 discriminator 2
 103 000e 1748     		ldr	r0, .L13	@,
 104              	.LVL1:
 105 0010 A121     		movs	r1, #161	@,
 106              	.LVL2:
 107 0012 FFF7FEFF 		bl	assert_failed	@
 108              	.LVL3:
 109              	.L2:
 162:../STM32Cube_FW_F4_V1.4.0/Drivers/STM32F4xx_HAL_Driver/Src/stm32f4xx_hal_rtc_ex.c ****   assert_param(IS_RTC_TIMESTAMP_PIN(RTC_TimeStampPin));
 110              		.loc 1 162 0 is_stmt 1
 111 0016 35F40033 		bics	r3, r5, #131072	@ tmp146, RTC_TimeStampPin,
 112 001a 03D0     		beq	.L3	@,
 113              		.loc 1 162 0 is_stmt 0 discriminator 2
 114 001c 1348     		ldr	r0, .L13	@,
 115 001e A221     		movs	r1, #162	@,
 116 0020 FFF7FEFF 		bl	assert_failed	@
 117              	.LVL4:
 118              	.L3:
 163:../STM32Cube_FW_F4_V1.4.0/Drivers/STM32F4xx_HAL_Driver/Src/stm32f4xx_hal_rtc_ex.c ****   
 164:../STM32Cube_FW_F4_V1.4.0/Drivers/STM32F4xx_HAL_Driver/Src/stm32f4xx_hal_rtc_ex.c ****   /* Process Locked */ 
 165:../STM32Cube_FW_F4_V1.4.0/Drivers/STM32F4xx_HAL_Driver/Src/stm32f4xx_hal_rtc_ex.c ****   __HAL_LOCK(hrtc);
ARM GAS  C:\cygwin\tmp\ccim5MRL.s 			page 6


 119              		.loc 1 165 0 is_stmt 1
 120 0024 237F     		ldrb	r3, [r4, #28]	@ zero_extendqisi2	@ hrtc_10(D)->Lock, hrtc_10(D)->Lock
 121 0026 012B     		cmp	r3, #1	@ hrtc_10(D)->Lock,
 122 0028 4FF00200 		mov	r0, #2	@ D.8276,
 123 002c 1DD0     		beq	.L4	@,
 166:../STM32Cube_FW_F4_V1.4.0/Drivers/STM32F4xx_HAL_Driver/Src/stm32f4xx_hal_rtc_ex.c ****   
 167:../STM32Cube_FW_F4_V1.4.0/Drivers/STM32F4xx_HAL_Driver/Src/stm32f4xx_hal_rtc_ex.c ****   hrtc->State = HAL_RTC_STATE_BUSY;
 168:../STM32Cube_FW_F4_V1.4.0/Drivers/STM32F4xx_HAL_Driver/Src/stm32f4xx_hal_rtc_ex.c ****   
 169:../STM32Cube_FW_F4_V1.4.0/Drivers/STM32F4xx_HAL_Driver/Src/stm32f4xx_hal_rtc_ex.c ****   /* Get the RTC_CR register and clear the bits to be configured */
 170:../STM32Cube_FW_F4_V1.4.0/Drivers/STM32F4xx_HAL_Driver/Src/stm32f4xx_hal_rtc_ex.c ****   tmpreg = (uint32_t)(hrtc->Instance->CR & (uint32_t)~(RTC_CR_TSEDGE | RTC_CR_TSE));
 124              		.loc 1 170 0 discriminator 2
 125 002e 2368     		ldr	r3, [r4]	@ D.8279, hrtc_10(D)->Instance
 167:../STM32Cube_FW_F4_V1.4.0/Drivers/STM32F4xx_HAL_Driver/Src/stm32f4xx_hal_rtc_ex.c ****   
 126              		.loc 1 167 0 discriminator 2
 127 0030 6077     		strb	r0, [r4, #29]	@ D.8276, hrtc_10(D)->State
 171:../STM32Cube_FW_F4_V1.4.0/Drivers/STM32F4xx_HAL_Driver/Src/stm32f4xx_hal_rtc_ex.c ****     
 172:../STM32Cube_FW_F4_V1.4.0/Drivers/STM32F4xx_HAL_Driver/Src/stm32f4xx_hal_rtc_ex.c ****   tmpreg|= TimeStampEdge;
 173:../STM32Cube_FW_F4_V1.4.0/Drivers/STM32F4xx_HAL_Driver/Src/stm32f4xx_hal_rtc_ex.c ****   
 174:../STM32Cube_FW_F4_V1.4.0/Drivers/STM32F4xx_HAL_Driver/Src/stm32f4xx_hal_rtc_ex.c ****   /* Disable the write protection for RTC registers */
 175:../STM32Cube_FW_F4_V1.4.0/Drivers/STM32F4xx_HAL_Driver/Src/stm32f4xx_hal_rtc_ex.c ****   __HAL_RTC_WRITEPROTECTION_DISABLE(hrtc);
 128              		.loc 1 175 0 discriminator 2
 129 0032 CA22     		movs	r2, #202	@ tmp136,
 170:../STM32Cube_FW_F4_V1.4.0/Drivers/STM32F4xx_HAL_Driver/Src/stm32f4xx_hal_rtc_ex.c ****     
 130              		.loc 1 170 0 discriminator 2
 131 0034 9968     		ldr	r1, [r3, #8]	@ D.8278, _14->CR
 132              		.loc 1 175 0 discriminator 2
 133 0036 5A62     		str	r2, [r3, #36]	@ tmp136, _14->WPR
 134 0038 5322     		movs	r2, #83	@ tmp137,
 135 003a 5A62     		str	r2, [r3, #36]	@ tmp137, _14->WPR
 176:../STM32Cube_FW_F4_V1.4.0/Drivers/STM32F4xx_HAL_Driver/Src/stm32f4xx_hal_rtc_ex.c ****   
 177:../STM32Cube_FW_F4_V1.4.0/Drivers/STM32F4xx_HAL_Driver/Src/stm32f4xx_hal_rtc_ex.c ****   hrtc->Instance->TAFCR &= (uint32_t)~RTC_TAFCR_TSINSEL;
 136              		.loc 1 177 0 discriminator 2
 137 003c 1A6C     		ldr	r2, [r3, #64]	@ D.8278, _14->TAFCR
 138 003e 22F40032 		bic	r2, r2, #131072	@ D.8278, D.8278,
 139 0042 1A64     		str	r2, [r3, #64]	@ D.8278, _14->TAFCR
 178:../STM32Cube_FW_F4_V1.4.0/Drivers/STM32F4xx_HAL_Driver/Src/stm32f4xx_hal_rtc_ex.c ****   hrtc->Instance->TAFCR |= (uint32_t)(RTC_TimeStampPin); 
 140              		.loc 1 178 0 discriminator 2
 141 0044 1A6C     		ldr	r2, [r3, #64]	@ D.8278, _14->TAFCR
 170:../STM32Cube_FW_F4_V1.4.0/Drivers/STM32F4xx_HAL_Driver/Src/stm32f4xx_hal_rtc_ex.c ****     
 142              		.loc 1 170 0 discriminator 2
 143 0046 21F40061 		bic	r1, r1, #2048	@ tmpreg, D.8278,
 144 004a 21F00801 		bic	r1, r1, #8	@ tmpreg, tmpreg,
 145              	.LVL5:
 146              		.loc 1 178 0 discriminator 2
 147 004e 2A43     		orrs	r2, r2, r5	@, D.8278, D.8278, RTC_TimeStampPin
 172:../STM32Cube_FW_F4_V1.4.0/Drivers/STM32F4xx_HAL_Driver/Src/stm32f4xx_hal_rtc_ex.c ****   
 148              		.loc 1 172 0 discriminator 2
 149 0050 3143     		orrs	r1, r1, r6	@, tmpreg, tmpreg, TimeStampEdge
 150              	.LVL6:
 151              		.loc 1 178 0 discriminator 2
 152 0052 1A64     		str	r2, [r3, #64]	@ D.8278, _14->TAFCR
 179:../STM32Cube_FW_F4_V1.4.0/Drivers/STM32F4xx_HAL_Driver/Src/stm32f4xx_hal_rtc_ex.c ****   
 180:../STM32Cube_FW_F4_V1.4.0/Drivers/STM32F4xx_HAL_Driver/Src/stm32f4xx_hal_rtc_ex.c ****   /* Configure the Time Stamp TSEDGE and Enable bits */
 181:../STM32Cube_FW_F4_V1.4.0/Drivers/STM32F4xx_HAL_Driver/Src/stm32f4xx_hal_rtc_ex.c ****   hrtc->Instance->CR = (uint32_t)tmpreg;
 153              		.loc 1 181 0 discriminator 2
 154 0054 9960     		str	r1, [r3, #8]	@ tmpreg, _14->CR
 182:../STM32Cube_FW_F4_V1.4.0/Drivers/STM32F4xx_HAL_Driver/Src/stm32f4xx_hal_rtc_ex.c ****   
ARM GAS  C:\cygwin\tmp\ccim5MRL.s 			page 7


 183:../STM32Cube_FW_F4_V1.4.0/Drivers/STM32F4xx_HAL_Driver/Src/stm32f4xx_hal_rtc_ex.c ****   __HAL_RTC_TIMESTAMP_ENABLE(hrtc);
 155              		.loc 1 183 0 discriminator 2
 156 0056 9A68     		ldr	r2, [r3, #8]	@ D.8278, _14->CR
 157 0058 42F40062 		orr	r2, r2, #2048	@ D.8278, D.8278,
 158 005c 9A60     		str	r2, [r3, #8]	@ D.8278, _14->CR
 184:../STM32Cube_FW_F4_V1.4.0/Drivers/STM32F4xx_HAL_Driver/Src/stm32f4xx_hal_rtc_ex.c ****   
 185:../STM32Cube_FW_F4_V1.4.0/Drivers/STM32F4xx_HAL_Driver/Src/stm32f4xx_hal_rtc_ex.c ****   /* Enable the write protection for RTC registers */
 186:../STM32Cube_FW_F4_V1.4.0/Drivers/STM32F4xx_HAL_Driver/Src/stm32f4xx_hal_rtc_ex.c ****   __HAL_RTC_WRITEPROTECTION_ENABLE(hrtc);    
 159              		.loc 1 186 0 discriminator 2
 160 005e FF22     		movs	r2, #255	@ tmp138,
 161 0060 5A62     		str	r2, [r3, #36]	@ tmp138, _14->WPR
 187:../STM32Cube_FW_F4_V1.4.0/Drivers/STM32F4xx_HAL_Driver/Src/stm32f4xx_hal_rtc_ex.c ****   
 188:../STM32Cube_FW_F4_V1.4.0/Drivers/STM32F4xx_HAL_Driver/Src/stm32f4xx_hal_rtc_ex.c ****   /* Change RTC state */
 189:../STM32Cube_FW_F4_V1.4.0/Drivers/STM32F4xx_HAL_Driver/Src/stm32f4xx_hal_rtc_ex.c ****   hrtc->State = HAL_RTC_STATE_READY; 
 190:../STM32Cube_FW_F4_V1.4.0/Drivers/STM32F4xx_HAL_Driver/Src/stm32f4xx_hal_rtc_ex.c ****   
 191:../STM32Cube_FW_F4_V1.4.0/Drivers/STM32F4xx_HAL_Driver/Src/stm32f4xx_hal_rtc_ex.c ****   /* Process Unlocked */ 
 192:../STM32Cube_FW_F4_V1.4.0/Drivers/STM32F4xx_HAL_Driver/Src/stm32f4xx_hal_rtc_ex.c ****   __HAL_UNLOCK(hrtc);
 162              		.loc 1 192 0 discriminator 2
 163 0062 0020     		movs	r0, #0	@ tmp141,
 189:../STM32Cube_FW_F4_V1.4.0/Drivers/STM32F4xx_HAL_Driver/Src/stm32f4xx_hal_rtc_ex.c ****   
 164              		.loc 1 189 0 discriminator 2
 165 0064 0123     		movs	r3, #1	@ tmp139,
 166 0066 6377     		strb	r3, [r4, #29]	@ tmp139, hrtc_10(D)->State
 167              		.loc 1 192 0 discriminator 2
 168 0068 2077     		strb	r0, [r4, #28]	@ tmp141, hrtc_10(D)->Lock
 169              	.LVL7:
 170              	.L4:
 193:../STM32Cube_FW_F4_V1.4.0/Drivers/STM32F4xx_HAL_Driver/Src/stm32f4xx_hal_rtc_ex.c ****   
 194:../STM32Cube_FW_F4_V1.4.0/Drivers/STM32F4xx_HAL_Driver/Src/stm32f4xx_hal_rtc_ex.c ****   return HAL_OK;
 195:../STM32Cube_FW_F4_V1.4.0/Drivers/STM32F4xx_HAL_Driver/Src/stm32f4xx_hal_rtc_ex.c **** }
 171              		.loc 1 195 0
 172 006a 70BD     		pop	{r4, r5, r6, pc}	@
 173              	.LVL8:
 174              	.L14:
 175              		.align	2
 176              	.L13:
 177 006c 00000000 		.word	.LC0
 178              		.cfi_endproc
 179              	.LFE123:
 180              		.size	HAL_RTCEx_SetTimeStamp, .-HAL_RTCEx_SetTimeStamp
 181              		.section	.text.HAL_RTCEx_SetTimeStamp_IT,"ax",%progbits
 182              		.align	1
 183              		.global	HAL_RTCEx_SetTimeStamp_IT
 184              		.thumb
 185              		.thumb_func
 186              		.type	HAL_RTCEx_SetTimeStamp_IT, %function
 187              	HAL_RTCEx_SetTimeStamp_IT:
 188              	.LFB124:
 196:../STM32Cube_FW_F4_V1.4.0/Drivers/STM32F4xx_HAL_Driver/Src/stm32f4xx_hal_rtc_ex.c **** 
 197:../STM32Cube_FW_F4_V1.4.0/Drivers/STM32F4xx_HAL_Driver/Src/stm32f4xx_hal_rtc_ex.c **** /**
 198:../STM32Cube_FW_F4_V1.4.0/Drivers/STM32F4xx_HAL_Driver/Src/stm32f4xx_hal_rtc_ex.c ****   * @brief  Sets TimeStamp with Interrupt. 
 199:../STM32Cube_FW_F4_V1.4.0/Drivers/STM32F4xx_HAL_Driver/Src/stm32f4xx_hal_rtc_ex.c ****   * @param  hrtc: pointer to a RTC_HandleTypeDef structure that contains
 200:../STM32Cube_FW_F4_V1.4.0/Drivers/STM32F4xx_HAL_Driver/Src/stm32f4xx_hal_rtc_ex.c ****   *                the configuration information for RTC.
 201:../STM32Cube_FW_F4_V1.4.0/Drivers/STM32F4xx_HAL_Driver/Src/stm32f4xx_hal_rtc_ex.c ****   * @note   This API must be called before enabling the TimeStamp feature.
 202:../STM32Cube_FW_F4_V1.4.0/Drivers/STM32F4xx_HAL_Driver/Src/stm32f4xx_hal_rtc_ex.c ****   * @param  TimeStampEdge: Specifies the pin edge on which the TimeStamp is 
 203:../STM32Cube_FW_F4_V1.4.0/Drivers/STM32F4xx_HAL_Driver/Src/stm32f4xx_hal_rtc_ex.c ****   *         activated.
 204:../STM32Cube_FW_F4_V1.4.0/Drivers/STM32F4xx_HAL_Driver/Src/stm32f4xx_hal_rtc_ex.c ****   *          This parameter can be one of the following values:
ARM GAS  C:\cygwin\tmp\ccim5MRL.s 			page 8


 205:../STM32Cube_FW_F4_V1.4.0/Drivers/STM32F4xx_HAL_Driver/Src/stm32f4xx_hal_rtc_ex.c ****   *             @arg RTC_TIMESTAMPEDGE_RISING: the Time stamp event occurs on the  
 206:../STM32Cube_FW_F4_V1.4.0/Drivers/STM32F4xx_HAL_Driver/Src/stm32f4xx_hal_rtc_ex.c ****   *                                        rising edge of the related pin.
 207:../STM32Cube_FW_F4_V1.4.0/Drivers/STM32F4xx_HAL_Driver/Src/stm32f4xx_hal_rtc_ex.c ****   *             @arg RTC_TIMESTAMPEDGE_FALLING: the Time stamp event occurs on the 
 208:../STM32Cube_FW_F4_V1.4.0/Drivers/STM32F4xx_HAL_Driver/Src/stm32f4xx_hal_rtc_ex.c ****   *                                         falling edge of the related pin.
 209:../STM32Cube_FW_F4_V1.4.0/Drivers/STM32F4xx_HAL_Driver/Src/stm32f4xx_hal_rtc_ex.c ****   * @param  RTC_TimeStampPin: Specifies the RTC TimeStamp Pin.
 210:../STM32Cube_FW_F4_V1.4.0/Drivers/STM32F4xx_HAL_Driver/Src/stm32f4xx_hal_rtc_ex.c ****   *          This parameter can be one of the following values:
 211:../STM32Cube_FW_F4_V1.4.0/Drivers/STM32F4xx_HAL_Driver/Src/stm32f4xx_hal_rtc_ex.c ****   *             @arg RTC_TIMESTAMPPIN_PC13: PC13 is selected as RTC TimeStamp Pin.
 212:../STM32Cube_FW_F4_V1.4.0/Drivers/STM32F4xx_HAL_Driver/Src/stm32f4xx_hal_rtc_ex.c ****   *             @arg RTC_TIMESTAMPPIN_PI8: PI8 is selected as RTC TimeStamp Pin.   
 213:../STM32Cube_FW_F4_V1.4.0/Drivers/STM32F4xx_HAL_Driver/Src/stm32f4xx_hal_rtc_ex.c ****   * @retval HAL status
 214:../STM32Cube_FW_F4_V1.4.0/Drivers/STM32F4xx_HAL_Driver/Src/stm32f4xx_hal_rtc_ex.c ****   */
 215:../STM32Cube_FW_F4_V1.4.0/Drivers/STM32F4xx_HAL_Driver/Src/stm32f4xx_hal_rtc_ex.c **** HAL_StatusTypeDef HAL_RTCEx_SetTimeStamp_IT(RTC_HandleTypeDef *hrtc, uint32_t TimeStampEdge, uint32
 216:../STM32Cube_FW_F4_V1.4.0/Drivers/STM32F4xx_HAL_Driver/Src/stm32f4xx_hal_rtc_ex.c **** {
 189              		.loc 1 216 0
 190              		.cfi_startproc
 191              		@ args = 0, pretend = 0, frame = 0
 192              		@ frame_needed = 0, uses_anonymous_args = 0
 193              	.LVL9:
 217:../STM32Cube_FW_F4_V1.4.0/Drivers/STM32F4xx_HAL_Driver/Src/stm32f4xx_hal_rtc_ex.c ****   uint32_t tmpreg = 0;
 218:../STM32Cube_FW_F4_V1.4.0/Drivers/STM32F4xx_HAL_Driver/Src/stm32f4xx_hal_rtc_ex.c ****   
 219:../STM32Cube_FW_F4_V1.4.0/Drivers/STM32F4xx_HAL_Driver/Src/stm32f4xx_hal_rtc_ex.c ****   /* Check the parameters */
 220:../STM32Cube_FW_F4_V1.4.0/Drivers/STM32F4xx_HAL_Driver/Src/stm32f4xx_hal_rtc_ex.c ****   assert_param(IS_TIMESTAMP_EDGE(TimeStampEdge));
 194              		.loc 1 220 0
 195 0000 31F00803 		bics	r3, r1, #8	@ tmp155, TimeStampEdge,
 216:../STM32Cube_FW_F4_V1.4.0/Drivers/STM32F4xx_HAL_Driver/Src/stm32f4xx_hal_rtc_ex.c ****   uint32_t tmpreg = 0;
 196              		.loc 1 216 0
 197 0004 70B5     		push	{r4, r5, r6, lr}	@
 198              		.cfi_def_cfa_offset 16
 199              		.cfi_offset 4, -16
 200              		.cfi_offset 5, -12
 201              		.cfi_offset 6, -8
 202              		.cfi_offset 14, -4
 216:../STM32Cube_FW_F4_V1.4.0/Drivers/STM32F4xx_HAL_Driver/Src/stm32f4xx_hal_rtc_ex.c ****   uint32_t tmpreg = 0;
 203              		.loc 1 216 0
 204 0006 0446     		mov	r4, r0	@ hrtc, hrtc
 205 0008 0E46     		mov	r6, r1	@ TimeStampEdge, TimeStampEdge
 206 000a 1546     		mov	r5, r2	@ RTC_TimeStampPin, RTC_TimeStampPin
 207              		.loc 1 220 0
 208 000c 03D0     		beq	.L16	@,
 209              		.loc 1 220 0 is_stmt 0 discriminator 2
 210 000e 1E48     		ldr	r0, .L26	@,
 211              	.LVL10:
 212 0010 DC21     		movs	r1, #220	@,
 213              	.LVL11:
 214 0012 FFF7FEFF 		bl	assert_failed	@
 215              	.LVL12:
 216              	.L16:
 221:../STM32Cube_FW_F4_V1.4.0/Drivers/STM32F4xx_HAL_Driver/Src/stm32f4xx_hal_rtc_ex.c ****   assert_param(IS_RTC_TIMESTAMP_PIN(RTC_TimeStampPin));
 217              		.loc 1 221 0 is_stmt 1
 218 0016 35F40033 		bics	r3, r5, #131072	@ tmp156, RTC_TimeStampPin,
 219 001a 03D0     		beq	.L17	@,
 220              		.loc 1 221 0 is_stmt 0 discriminator 2
 221 001c 1A48     		ldr	r0, .L26	@,
 222 001e DD21     		movs	r1, #221	@,
 223 0020 FFF7FEFF 		bl	assert_failed	@
 224              	.LVL13:
 225              	.L17:
 222:../STM32Cube_FW_F4_V1.4.0/Drivers/STM32F4xx_HAL_Driver/Src/stm32f4xx_hal_rtc_ex.c ****   
ARM GAS  C:\cygwin\tmp\ccim5MRL.s 			page 9


 223:../STM32Cube_FW_F4_V1.4.0/Drivers/STM32F4xx_HAL_Driver/Src/stm32f4xx_hal_rtc_ex.c ****   /* Process Locked */ 
 224:../STM32Cube_FW_F4_V1.4.0/Drivers/STM32F4xx_HAL_Driver/Src/stm32f4xx_hal_rtc_ex.c ****   __HAL_LOCK(hrtc);
 226              		.loc 1 224 0 is_stmt 1
 227 0024 237F     		ldrb	r3, [r4, #28]	@ zero_extendqisi2	@ hrtc_10(D)->Lock, hrtc_10(D)->Lock
 228 0026 012B     		cmp	r3, #1	@ hrtc_10(D)->Lock,
 229 0028 4FF00200 		mov	r0, #2	@ D.8283,
 230 002c 2AD0     		beq	.L18	@,
 225:../STM32Cube_FW_F4_V1.4.0/Drivers/STM32F4xx_HAL_Driver/Src/stm32f4xx_hal_rtc_ex.c ****   
 226:../STM32Cube_FW_F4_V1.4.0/Drivers/STM32F4xx_HAL_Driver/Src/stm32f4xx_hal_rtc_ex.c ****   hrtc->State = HAL_RTC_STATE_BUSY;
 227:../STM32Cube_FW_F4_V1.4.0/Drivers/STM32F4xx_HAL_Driver/Src/stm32f4xx_hal_rtc_ex.c ****   
 228:../STM32Cube_FW_F4_V1.4.0/Drivers/STM32F4xx_HAL_Driver/Src/stm32f4xx_hal_rtc_ex.c ****   /* Get the RTC_CR register and clear the bits to be configured */
 229:../STM32Cube_FW_F4_V1.4.0/Drivers/STM32F4xx_HAL_Driver/Src/stm32f4xx_hal_rtc_ex.c ****   tmpreg = (uint32_t)(hrtc->Instance->CR & (uint32_t)~(RTC_CR_TSEDGE | RTC_CR_TSE));
 231              		.loc 1 229 0 discriminator 2
 232 002e 2368     		ldr	r3, [r4]	@ D.8286, hrtc_10(D)->Instance
 226:../STM32Cube_FW_F4_V1.4.0/Drivers/STM32F4xx_HAL_Driver/Src/stm32f4xx_hal_rtc_ex.c ****   
 233              		.loc 1 226 0 discriminator 2
 234 0030 6077     		strb	r0, [r4, #29]	@ D.8283, hrtc_10(D)->State
 235              		.loc 1 229 0 discriminator 2
 236 0032 9968     		ldr	r1, [r3, #8]	@ D.8285, _14->CR
 237 0034 21F40061 		bic	r1, r1, #2048	@ tmpreg, D.8285,
 230:../STM32Cube_FW_F4_V1.4.0/Drivers/STM32F4xx_HAL_Driver/Src/stm32f4xx_hal_rtc_ex.c ****   
 231:../STM32Cube_FW_F4_V1.4.0/Drivers/STM32F4xx_HAL_Driver/Src/stm32f4xx_hal_rtc_ex.c ****   tmpreg |= TimeStampEdge;
 232:../STM32Cube_FW_F4_V1.4.0/Drivers/STM32F4xx_HAL_Driver/Src/stm32f4xx_hal_rtc_ex.c ****   
 233:../STM32Cube_FW_F4_V1.4.0/Drivers/STM32F4xx_HAL_Driver/Src/stm32f4xx_hal_rtc_ex.c ****   /* Disable the write protection for RTC registers */
 234:../STM32Cube_FW_F4_V1.4.0/Drivers/STM32F4xx_HAL_Driver/Src/stm32f4xx_hal_rtc_ex.c ****   __HAL_RTC_WRITEPROTECTION_DISABLE(hrtc);
 238              		.loc 1 234 0 discriminator 2
 239 0038 CA22     		movs	r2, #202	@ tmp142,
 229:../STM32Cube_FW_F4_V1.4.0/Drivers/STM32F4xx_HAL_Driver/Src/stm32f4xx_hal_rtc_ex.c ****   
 240              		.loc 1 229 0 discriminator 2
 241 003a 21F00801 		bic	r1, r1, #8	@ tmpreg, tmpreg,
 242              	.LVL14:
 243              		.loc 1 234 0 discriminator 2
 244 003e 5A62     		str	r2, [r3, #36]	@ tmp142, _14->WPR
 231:../STM32Cube_FW_F4_V1.4.0/Drivers/STM32F4xx_HAL_Driver/Src/stm32f4xx_hal_rtc_ex.c ****   
 245              		.loc 1 231 0 discriminator 2
 246 0040 3143     		orrs	r1, r1, r6	@, tmpreg, tmpreg, TimeStampEdge
 247              	.LVL15:
 248              		.loc 1 234 0 discriminator 2
 249 0042 5322     		movs	r2, #83	@ tmp143,
 250 0044 5A62     		str	r2, [r3, #36]	@ tmp143, _14->WPR
 235:../STM32Cube_FW_F4_V1.4.0/Drivers/STM32F4xx_HAL_Driver/Src/stm32f4xx_hal_rtc_ex.c ****   
 236:../STM32Cube_FW_F4_V1.4.0/Drivers/STM32F4xx_HAL_Driver/Src/stm32f4xx_hal_rtc_ex.c ****   /* Configure the Time Stamp TSEDGE and Enable bits */
 237:../STM32Cube_FW_F4_V1.4.0/Drivers/STM32F4xx_HAL_Driver/Src/stm32f4xx_hal_rtc_ex.c ****   hrtc->Instance->CR = (uint32_t)tmpreg;
 251              		.loc 1 237 0 discriminator 2
 252 0046 9960     		str	r1, [r3, #8]	@ tmpreg, _14->CR
 238:../STM32Cube_FW_F4_V1.4.0/Drivers/STM32F4xx_HAL_Driver/Src/stm32f4xx_hal_rtc_ex.c ****   
 239:../STM32Cube_FW_F4_V1.4.0/Drivers/STM32F4xx_HAL_Driver/Src/stm32f4xx_hal_rtc_ex.c ****   hrtc->Instance->TAFCR &= (uint32_t)~RTC_TAFCR_TSINSEL;
 253              		.loc 1 239 0 discriminator 2
 254 0048 1A6C     		ldr	r2, [r3, #64]	@ D.8285, _14->TAFCR
 255 004a 22F40032 		bic	r2, r2, #131072	@ D.8285, D.8285,
 256 004e 1A64     		str	r2, [r3, #64]	@ D.8285, _14->TAFCR
 240:../STM32Cube_FW_F4_V1.4.0/Drivers/STM32F4xx_HAL_Driver/Src/stm32f4xx_hal_rtc_ex.c ****   hrtc->Instance->TAFCR |= (uint32_t)(RTC_TimeStampPin); 
 257              		.loc 1 240 0 discriminator 2
 258 0050 1A6C     		ldr	r2, [r3, #64]	@ D.8285, _14->TAFCR
 259 0052 2A43     		orrs	r2, r2, r5	@, D.8285, D.8285, RTC_TimeStampPin
 260 0054 1A64     		str	r2, [r3, #64]	@ D.8285, _14->TAFCR
 241:../STM32Cube_FW_F4_V1.4.0/Drivers/STM32F4xx_HAL_Driver/Src/stm32f4xx_hal_rtc_ex.c ****   
ARM GAS  C:\cygwin\tmp\ccim5MRL.s 			page 10


 242:../STM32Cube_FW_F4_V1.4.0/Drivers/STM32F4xx_HAL_Driver/Src/stm32f4xx_hal_rtc_ex.c ****   __HAL_RTC_TIMESTAMP_ENABLE(hrtc);
 261              		.loc 1 242 0 discriminator 2
 262 0056 9A68     		ldr	r2, [r3, #8]	@ D.8285, _14->CR
 263 0058 42F40062 		orr	r2, r2, #2048	@ D.8285, D.8285,
 264 005c 9A60     		str	r2, [r3, #8]	@ D.8285, _14->CR
 243:../STM32Cube_FW_F4_V1.4.0/Drivers/STM32F4xx_HAL_Driver/Src/stm32f4xx_hal_rtc_ex.c ****   
 244:../STM32Cube_FW_F4_V1.4.0/Drivers/STM32F4xx_HAL_Driver/Src/stm32f4xx_hal_rtc_ex.c ****   /* Enable IT timestamp */ 
 245:../STM32Cube_FW_F4_V1.4.0/Drivers/STM32F4xx_HAL_Driver/Src/stm32f4xx_hal_rtc_ex.c ****   __HAL_RTC_TIMESTAMP_ENABLE_IT(hrtc,RTC_IT_TS);
 265              		.loc 1 245 0 discriminator 2
 266 005e 9A68     		ldr	r2, [r3, #8]	@ D.8285, _14->CR
 267 0060 42F40042 		orr	r2, r2, #32768	@ D.8285, D.8285,
 268 0064 9A60     		str	r2, [r3, #8]	@ D.8285, _14->CR
 246:../STM32Cube_FW_F4_V1.4.0/Drivers/STM32F4xx_HAL_Driver/Src/stm32f4xx_hal_rtc_ex.c ****   
 247:../STM32Cube_FW_F4_V1.4.0/Drivers/STM32F4xx_HAL_Driver/Src/stm32f4xx_hal_rtc_ex.c ****   /* RTC timestamp Interrupt Configuration: EXTI configuration */
 248:../STM32Cube_FW_F4_V1.4.0/Drivers/STM32F4xx_HAL_Driver/Src/stm32f4xx_hal_rtc_ex.c ****   __HAL_RTC_TAMPER_TIMESTAMP_EXTI_ENABLE_IT();
 269              		.loc 1 248 0 discriminator 2
 270 0066 094A     		ldr	r2, .L26+4	@ tmp144,
 271 0068 1168     		ldr	r1, [r2]	@ D.8285, MEM[(struct EXTI_TypeDef *)1073822720B].IMR
 272              	.LVL16:
 273 006a 41F40011 		orr	r1, r1, #2097152	@ D.8285, D.8285,
 274 006e 1160     		str	r1, [r2]	@ D.8285, MEM[(struct EXTI_TypeDef *)1073822720B].IMR
 249:../STM32Cube_FW_F4_V1.4.0/Drivers/STM32F4xx_HAL_Driver/Src/stm32f4xx_hal_rtc_ex.c ****   
 250:../STM32Cube_FW_F4_V1.4.0/Drivers/STM32F4xx_HAL_Driver/Src/stm32f4xx_hal_rtc_ex.c ****   EXTI->RTSR |= RTC_EXTI_LINE_TAMPER_TIMESTAMP_EVENT;
 275              		.loc 1 250 0 discriminator 2
 276 0070 9168     		ldr	r1, [r2, #8]	@ D.8285, MEM[(struct EXTI_TypeDef *)1073822720B].RTSR
 277 0072 41F40011 		orr	r1, r1, #2097152	@ D.8285, D.8285,
 278 0076 9160     		str	r1, [r2, #8]	@ D.8285, MEM[(struct EXTI_TypeDef *)1073822720B].RTSR
 251:../STM32Cube_FW_F4_V1.4.0/Drivers/STM32F4xx_HAL_Driver/Src/stm32f4xx_hal_rtc_ex.c ****   
 252:../STM32Cube_FW_F4_V1.4.0/Drivers/STM32F4xx_HAL_Driver/Src/stm32f4xx_hal_rtc_ex.c ****   /* Enable the write protection for RTC registers */
 253:../STM32Cube_FW_F4_V1.4.0/Drivers/STM32F4xx_HAL_Driver/Src/stm32f4xx_hal_rtc_ex.c ****   __HAL_RTC_WRITEPROTECTION_ENABLE(hrtc);  
 279              		.loc 1 253 0 discriminator 2
 280 0078 FF22     		movs	r2, #255	@ tmp148,
 281 007a 5A62     		str	r2, [r3, #36]	@ tmp148, _14->WPR
 254:../STM32Cube_FW_F4_V1.4.0/Drivers/STM32F4xx_HAL_Driver/Src/stm32f4xx_hal_rtc_ex.c ****   
 255:../STM32Cube_FW_F4_V1.4.0/Drivers/STM32F4xx_HAL_Driver/Src/stm32f4xx_hal_rtc_ex.c ****   hrtc->State = HAL_RTC_STATE_READY;  
 256:../STM32Cube_FW_F4_V1.4.0/Drivers/STM32F4xx_HAL_Driver/Src/stm32f4xx_hal_rtc_ex.c ****   
 257:../STM32Cube_FW_F4_V1.4.0/Drivers/STM32F4xx_HAL_Driver/Src/stm32f4xx_hal_rtc_ex.c ****   /* Process Unlocked */ 
 258:../STM32Cube_FW_F4_V1.4.0/Drivers/STM32F4xx_HAL_Driver/Src/stm32f4xx_hal_rtc_ex.c ****   __HAL_UNLOCK(hrtc);
 282              		.loc 1 258 0 discriminator 2
 283 007c 0020     		movs	r0, #0	@ tmp151,
 255:../STM32Cube_FW_F4_V1.4.0/Drivers/STM32F4xx_HAL_Driver/Src/stm32f4xx_hal_rtc_ex.c ****   
 284              		.loc 1 255 0 discriminator 2
 285 007e 0123     		movs	r3, #1	@ tmp149,
 286 0080 6377     		strb	r3, [r4, #29]	@ tmp149, hrtc_10(D)->State
 287              		.loc 1 258 0 discriminator 2
 288 0082 2077     		strb	r0, [r4, #28]	@ tmp151, hrtc_10(D)->Lock
 289              	.L18:
 259:../STM32Cube_FW_F4_V1.4.0/Drivers/STM32F4xx_HAL_Driver/Src/stm32f4xx_hal_rtc_ex.c ****   
 260:../STM32Cube_FW_F4_V1.4.0/Drivers/STM32F4xx_HAL_Driver/Src/stm32f4xx_hal_rtc_ex.c ****   return HAL_OK;
 261:../STM32Cube_FW_F4_V1.4.0/Drivers/STM32F4xx_HAL_Driver/Src/stm32f4xx_hal_rtc_ex.c **** }
 290              		.loc 1 261 0
 291 0084 70BD     		pop	{r4, r5, r6, pc}	@
 292              	.LVL17:
 293              	.L27:
 294 0086 00BF     		.align	2
 295              	.L26:
 296 0088 00000000 		.word	.LC0
ARM GAS  C:\cygwin\tmp\ccim5MRL.s 			page 11


 297 008c 003C0140 		.word	1073822720
 298              		.cfi_endproc
 299              	.LFE124:
 300              		.size	HAL_RTCEx_SetTimeStamp_IT, .-HAL_RTCEx_SetTimeStamp_IT
 301              		.section	.text.HAL_RTCEx_DeactivateTimeStamp,"ax",%progbits
 302              		.align	1
 303              		.global	HAL_RTCEx_DeactivateTimeStamp
 304              		.thumb
 305              		.thumb_func
 306              		.type	HAL_RTCEx_DeactivateTimeStamp, %function
 307              	HAL_RTCEx_DeactivateTimeStamp:
 308              	.LFB125:
 262:../STM32Cube_FW_F4_V1.4.0/Drivers/STM32F4xx_HAL_Driver/Src/stm32f4xx_hal_rtc_ex.c **** 
 263:../STM32Cube_FW_F4_V1.4.0/Drivers/STM32F4xx_HAL_Driver/Src/stm32f4xx_hal_rtc_ex.c **** /**
 264:../STM32Cube_FW_F4_V1.4.0/Drivers/STM32F4xx_HAL_Driver/Src/stm32f4xx_hal_rtc_ex.c ****   * @brief  Deactivates TimeStamp. 
 265:../STM32Cube_FW_F4_V1.4.0/Drivers/STM32F4xx_HAL_Driver/Src/stm32f4xx_hal_rtc_ex.c ****   * @param  hrtc: pointer to a RTC_HandleTypeDef structure that contains
 266:../STM32Cube_FW_F4_V1.4.0/Drivers/STM32F4xx_HAL_Driver/Src/stm32f4xx_hal_rtc_ex.c ****   *                the configuration information for RTC.
 267:../STM32Cube_FW_F4_V1.4.0/Drivers/STM32F4xx_HAL_Driver/Src/stm32f4xx_hal_rtc_ex.c ****   * @retval HAL status
 268:../STM32Cube_FW_F4_V1.4.0/Drivers/STM32F4xx_HAL_Driver/Src/stm32f4xx_hal_rtc_ex.c ****   */
 269:../STM32Cube_FW_F4_V1.4.0/Drivers/STM32F4xx_HAL_Driver/Src/stm32f4xx_hal_rtc_ex.c **** HAL_StatusTypeDef HAL_RTCEx_DeactivateTimeStamp(RTC_HandleTypeDef *hrtc)
 270:../STM32Cube_FW_F4_V1.4.0/Drivers/STM32F4xx_HAL_Driver/Src/stm32f4xx_hal_rtc_ex.c **** {
 309              		.loc 1 270 0
 310              		.cfi_startproc
 311              		@ args = 0, pretend = 0, frame = 0
 312              		@ frame_needed = 0, uses_anonymous_args = 0
 313              		@ link register save eliminated.
 314              	.LVL18:
 271:../STM32Cube_FW_F4_V1.4.0/Drivers/STM32F4xx_HAL_Driver/Src/stm32f4xx_hal_rtc_ex.c ****   uint32_t tmpreg = 0;
 272:../STM32Cube_FW_F4_V1.4.0/Drivers/STM32F4xx_HAL_Driver/Src/stm32f4xx_hal_rtc_ex.c ****   
 273:../STM32Cube_FW_F4_V1.4.0/Drivers/STM32F4xx_HAL_Driver/Src/stm32f4xx_hal_rtc_ex.c ****   /* Process Locked */ 
 274:../STM32Cube_FW_F4_V1.4.0/Drivers/STM32F4xx_HAL_Driver/Src/stm32f4xx_hal_rtc_ex.c ****   __HAL_LOCK(hrtc);
 315              		.loc 1 274 0
 316 0000 037F     		ldrb	r3, [r0, #28]	@ zero_extendqisi2	@ hrtc_4(D)->Lock, hrtc_4(D)->Lock
 317 0002 012B     		cmp	r3, #1	@ hrtc_4(D)->Lock,
 318 0004 4FF00203 		mov	r3, #2	@ D.8289,
 319 0008 15D0     		beq	.L30	@,
 275:../STM32Cube_FW_F4_V1.4.0/Drivers/STM32F4xx_HAL_Driver/Src/stm32f4xx_hal_rtc_ex.c ****   
 276:../STM32Cube_FW_F4_V1.4.0/Drivers/STM32F4xx_HAL_Driver/Src/stm32f4xx_hal_rtc_ex.c ****   hrtc->State = HAL_RTC_STATE_BUSY;
 320              		.loc 1 276 0 discriminator 2
 321 000a 4377     		strb	r3, [r0, #29]	@ D.8289, hrtc_4(D)->State
 277:../STM32Cube_FW_F4_V1.4.0/Drivers/STM32F4xx_HAL_Driver/Src/stm32f4xx_hal_rtc_ex.c ****   
 278:../STM32Cube_FW_F4_V1.4.0/Drivers/STM32F4xx_HAL_Driver/Src/stm32f4xx_hal_rtc_ex.c ****   /* Disable the write protection for RTC registers */
 279:../STM32Cube_FW_F4_V1.4.0/Drivers/STM32F4xx_HAL_Driver/Src/stm32f4xx_hal_rtc_ex.c ****   __HAL_RTC_WRITEPROTECTION_DISABLE(hrtc);
 322              		.loc 1 279 0 discriminator 2
 323 000c 0368     		ldr	r3, [r0]	@ D.8291, hrtc_4(D)->Instance
 324 000e CA22     		movs	r2, #202	@ tmp122,
 325 0010 5A62     		str	r2, [r3, #36]	@ tmp122, _8->WPR
 326 0012 5322     		movs	r2, #83	@ tmp123,
 327 0014 5A62     		str	r2, [r3, #36]	@ tmp123, _8->WPR
 280:../STM32Cube_FW_F4_V1.4.0/Drivers/STM32F4xx_HAL_Driver/Src/stm32f4xx_hal_rtc_ex.c ****   
 281:../STM32Cube_FW_F4_V1.4.0/Drivers/STM32F4xx_HAL_Driver/Src/stm32f4xx_hal_rtc_ex.c ****   /* In case of interrupt mode is used, the interrupt source must disabled */ 
 282:../STM32Cube_FW_F4_V1.4.0/Drivers/STM32F4xx_HAL_Driver/Src/stm32f4xx_hal_rtc_ex.c ****   __HAL_RTC_TIMESTAMP_DISABLE_IT(hrtc, RTC_IT_TS);
 328              		.loc 1 282 0 discriminator 2
 329 0016 9A68     		ldr	r2, [r3, #8]	@ D.8292, _8->CR
 330 0018 22F40042 		bic	r2, r2, #32768	@ D.8292, D.8292,
 331 001c 9A60     		str	r2, [r3, #8]	@ D.8292, _8->CR
 283:../STM32Cube_FW_F4_V1.4.0/Drivers/STM32F4xx_HAL_Driver/Src/stm32f4xx_hal_rtc_ex.c ****   
ARM GAS  C:\cygwin\tmp\ccim5MRL.s 			page 12


 284:../STM32Cube_FW_F4_V1.4.0/Drivers/STM32F4xx_HAL_Driver/Src/stm32f4xx_hal_rtc_ex.c ****   /* Get the RTC_CR register and clear the bits to be configured */
 285:../STM32Cube_FW_F4_V1.4.0/Drivers/STM32F4xx_HAL_Driver/Src/stm32f4xx_hal_rtc_ex.c ****   tmpreg = (uint32_t)(hrtc->Instance->CR & (uint32_t)~(RTC_CR_TSEDGE | RTC_CR_TSE));
 332              		.loc 1 285 0 discriminator 2
 333 001e 9A68     		ldr	r2, [r3, #8]	@ D.8292, _8->CR
 334 0020 22F40062 		bic	r2, r2, #2048	@ tmpreg, D.8292,
 335 0024 22F00802 		bic	r2, r2, #8	@ tmpreg, tmpreg,
 336              	.LVL19:
 286:../STM32Cube_FW_F4_V1.4.0/Drivers/STM32F4xx_HAL_Driver/Src/stm32f4xx_hal_rtc_ex.c ****   
 287:../STM32Cube_FW_F4_V1.4.0/Drivers/STM32F4xx_HAL_Driver/Src/stm32f4xx_hal_rtc_ex.c ****   /* Configure the Time Stamp TSEDGE and Enable bits */
 288:../STM32Cube_FW_F4_V1.4.0/Drivers/STM32F4xx_HAL_Driver/Src/stm32f4xx_hal_rtc_ex.c ****   hrtc->Instance->CR = (uint32_t)tmpreg;
 337              		.loc 1 288 0 discriminator 2
 338 0028 9A60     		str	r2, [r3, #8]	@ tmpreg, _8->CR
 289:../STM32Cube_FW_F4_V1.4.0/Drivers/STM32F4xx_HAL_Driver/Src/stm32f4xx_hal_rtc_ex.c ****   
 290:../STM32Cube_FW_F4_V1.4.0/Drivers/STM32F4xx_HAL_Driver/Src/stm32f4xx_hal_rtc_ex.c ****   /* Enable the write protection for RTC registers */
 291:../STM32Cube_FW_F4_V1.4.0/Drivers/STM32F4xx_HAL_Driver/Src/stm32f4xx_hal_rtc_ex.c ****   __HAL_RTC_WRITEPROTECTION_ENABLE(hrtc);
 339              		.loc 1 291 0 discriminator 2
 340 002a FF22     		movs	r2, #255	@ tmp125,
 341              	.LVL20:
 342 002c 5A62     		str	r2, [r3, #36]	@ tmp125, _8->WPR
 343              	.LVL21:
 292:../STM32Cube_FW_F4_V1.4.0/Drivers/STM32F4xx_HAL_Driver/Src/stm32f4xx_hal_rtc_ex.c ****  
 293:../STM32Cube_FW_F4_V1.4.0/Drivers/STM32F4xx_HAL_Driver/Src/stm32f4xx_hal_rtc_ex.c ****   hrtc->State = HAL_RTC_STATE_READY;  
 344              		.loc 1 293 0 discriminator 2
 345 002e 0123     		movs	r3, #1	@ tmp126,
 346 0030 4377     		strb	r3, [r0, #29]	@ tmp126, hrtc_4(D)->State
 294:../STM32Cube_FW_F4_V1.4.0/Drivers/STM32F4xx_HAL_Driver/Src/stm32f4xx_hal_rtc_ex.c ****   
 295:../STM32Cube_FW_F4_V1.4.0/Drivers/STM32F4xx_HAL_Driver/Src/stm32f4xx_hal_rtc_ex.c ****   /* Process Unlocked */ 
 296:../STM32Cube_FW_F4_V1.4.0/Drivers/STM32F4xx_HAL_Driver/Src/stm32f4xx_hal_rtc_ex.c ****   __HAL_UNLOCK(hrtc);
 347              		.loc 1 296 0 discriminator 2
 348 0032 0023     		movs	r3, #0	@ tmp128,
 349 0034 0377     		strb	r3, [r0, #28]	@ tmp128, hrtc_4(D)->Lock
 350              	.L30:
 274:../STM32Cube_FW_F4_V1.4.0/Drivers/STM32F4xx_HAL_Driver/Src/stm32f4xx_hal_rtc_ex.c ****   
 351              		.loc 1 274 0
 352 0036 1846     		mov	r0, r3	@ D.8289, D.8289
 353              	.LVL22:
 297:../STM32Cube_FW_F4_V1.4.0/Drivers/STM32F4xx_HAL_Driver/Src/stm32f4xx_hal_rtc_ex.c ****   
 298:../STM32Cube_FW_F4_V1.4.0/Drivers/STM32F4xx_HAL_Driver/Src/stm32f4xx_hal_rtc_ex.c ****   return HAL_OK;
 299:../STM32Cube_FW_F4_V1.4.0/Drivers/STM32F4xx_HAL_Driver/Src/stm32f4xx_hal_rtc_ex.c **** }
 354              		.loc 1 299 0
 355 0038 7047     		bx	lr	@
 356              		.cfi_endproc
 357              	.LFE125:
 358              		.size	HAL_RTCEx_DeactivateTimeStamp, .-HAL_RTCEx_DeactivateTimeStamp
 359              		.section	.text.HAL_RTCEx_GetTimeStamp,"ax",%progbits
 360              		.align	1
 361              		.global	HAL_RTCEx_GetTimeStamp
 362              		.thumb
 363              		.thumb_func
 364              		.type	HAL_RTCEx_GetTimeStamp, %function
 365              	HAL_RTCEx_GetTimeStamp:
 366              	.LFB126:
 300:../STM32Cube_FW_F4_V1.4.0/Drivers/STM32F4xx_HAL_Driver/Src/stm32f4xx_hal_rtc_ex.c **** 
 301:../STM32Cube_FW_F4_V1.4.0/Drivers/STM32F4xx_HAL_Driver/Src/stm32f4xx_hal_rtc_ex.c **** /**
 302:../STM32Cube_FW_F4_V1.4.0/Drivers/STM32F4xx_HAL_Driver/Src/stm32f4xx_hal_rtc_ex.c ****   * @brief  Gets the RTC TimeStamp value.
 303:../STM32Cube_FW_F4_V1.4.0/Drivers/STM32F4xx_HAL_Driver/Src/stm32f4xx_hal_rtc_ex.c ****   * @param  hrtc: pointer to a RTC_HandleTypeDef structure that contains
 304:../STM32Cube_FW_F4_V1.4.0/Drivers/STM32F4xx_HAL_Driver/Src/stm32f4xx_hal_rtc_ex.c ****   *                the configuration information for RTC.
ARM GAS  C:\cygwin\tmp\ccim5MRL.s 			page 13


 305:../STM32Cube_FW_F4_V1.4.0/Drivers/STM32F4xx_HAL_Driver/Src/stm32f4xx_hal_rtc_ex.c ****   * @param  sTimeStamp: Pointer to Time structure
 306:../STM32Cube_FW_F4_V1.4.0/Drivers/STM32F4xx_HAL_Driver/Src/stm32f4xx_hal_rtc_ex.c ****   * @param  sTimeStampDate: Pointer to Date structure  
 307:../STM32Cube_FW_F4_V1.4.0/Drivers/STM32F4xx_HAL_Driver/Src/stm32f4xx_hal_rtc_ex.c ****   * @param  Format: specifies the format of the entered parameters.
 308:../STM32Cube_FW_F4_V1.4.0/Drivers/STM32F4xx_HAL_Driver/Src/stm32f4xx_hal_rtc_ex.c ****   *          This parameter can be one of the following values:
 309:../STM32Cube_FW_F4_V1.4.0/Drivers/STM32F4xx_HAL_Driver/Src/stm32f4xx_hal_rtc_ex.c ****   *             RTC_FORMAT_BIN: Binary data format 
 310:../STM32Cube_FW_F4_V1.4.0/Drivers/STM32F4xx_HAL_Driver/Src/stm32f4xx_hal_rtc_ex.c ****   *             RTC_FORMAT_BCD: BCD data format
 311:../STM32Cube_FW_F4_V1.4.0/Drivers/STM32F4xx_HAL_Driver/Src/stm32f4xx_hal_rtc_ex.c ****   * @retval HAL status
 312:../STM32Cube_FW_F4_V1.4.0/Drivers/STM32F4xx_HAL_Driver/Src/stm32f4xx_hal_rtc_ex.c ****   */
 313:../STM32Cube_FW_F4_V1.4.0/Drivers/STM32F4xx_HAL_Driver/Src/stm32f4xx_hal_rtc_ex.c **** HAL_StatusTypeDef HAL_RTCEx_GetTimeStamp(RTC_HandleTypeDef *hrtc, RTC_TimeTypeDef* sTimeStamp, RTC_
 314:../STM32Cube_FW_F4_V1.4.0/Drivers/STM32F4xx_HAL_Driver/Src/stm32f4xx_hal_rtc_ex.c **** {
 367              		.loc 1 314 0
 368              		.cfi_startproc
 369              		@ args = 0, pretend = 0, frame = 0
 370              		@ frame_needed = 0, uses_anonymous_args = 0
 371              	.LVL23:
 315:../STM32Cube_FW_F4_V1.4.0/Drivers/STM32F4xx_HAL_Driver/Src/stm32f4xx_hal_rtc_ex.c ****   uint32_t tmptime = 0, tmpdate = 0;
 316:../STM32Cube_FW_F4_V1.4.0/Drivers/STM32F4xx_HAL_Driver/Src/stm32f4xx_hal_rtc_ex.c **** 
 317:../STM32Cube_FW_F4_V1.4.0/Drivers/STM32F4xx_HAL_Driver/Src/stm32f4xx_hal_rtc_ex.c ****   /* Check the parameters */
 318:../STM32Cube_FW_F4_V1.4.0/Drivers/STM32F4xx_HAL_Driver/Src/stm32f4xx_hal_rtc_ex.c ****   assert_param(IS_RTC_FORMAT(Format));
 372              		.loc 1 318 0
 373 0000 012B     		cmp	r3, #1	@ Format,
 314:../STM32Cube_FW_F4_V1.4.0/Drivers/STM32F4xx_HAL_Driver/Src/stm32f4xx_hal_rtc_ex.c ****   uint32_t tmptime = 0, tmpdate = 0;
 374              		.loc 1 314 0
 375 0002 F8B5     		push	{r3, r4, r5, r6, r7, lr}	@
 376              		.cfi_def_cfa_offset 24
 377              		.cfi_offset 3, -24
 378              		.cfi_offset 4, -20
 379              		.cfi_offset 5, -16
 380              		.cfi_offset 6, -12
 381              		.cfi_offset 7, -8
 382              		.cfi_offset 14, -4
 314:../STM32Cube_FW_F4_V1.4.0/Drivers/STM32F4xx_HAL_Driver/Src/stm32f4xx_hal_rtc_ex.c ****   uint32_t tmptime = 0, tmpdate = 0;
 383              		.loc 1 314 0
 384 0004 0646     		mov	r6, r0	@ hrtc, hrtc
 385 0006 0C46     		mov	r4, r1	@ sTimeStamp, sTimeStamp
 386 0008 1546     		mov	r5, r2	@ sTimeStampDate, sTimeStampDate
 387 000a 1F46     		mov	r7, r3	@ Format, Format
 388              		.loc 1 318 0
 389 000c 04D9     		bls	.L32	@,
 390              		.loc 1 318 0 is_stmt 0 discriminator 1
 391 000e 2248     		ldr	r0, .L34	@,
 392              	.LVL24:
 393 0010 4FF49F71 		mov	r1, #318	@,
 394              	.LVL25:
 395 0014 FFF7FEFF 		bl	assert_failed	@
 396              	.LVL26:
 397              	.L32:
 319:../STM32Cube_FW_F4_V1.4.0/Drivers/STM32F4xx_HAL_Driver/Src/stm32f4xx_hal_rtc_ex.c **** 
 320:../STM32Cube_FW_F4_V1.4.0/Drivers/STM32F4xx_HAL_Driver/Src/stm32f4xx_hal_rtc_ex.c ****   /* Get the TimeStamp time and date registers values */
 321:../STM32Cube_FW_F4_V1.4.0/Drivers/STM32F4xx_HAL_Driver/Src/stm32f4xx_hal_rtc_ex.c ****   tmptime = (uint32_t)(hrtc->Instance->TSTR & RTC_TR_RESERVED_MASK);
 398              		.loc 1 321 0 is_stmt 1
 399 0018 3368     		ldr	r3, [r6]	@ D.8295, hrtc_6(D)->Instance
 400 001a 1A6B     		ldr	r2, [r3, #48]	@ D.8296, _7->TSTR
 401              	.LVL27:
 322:../STM32Cube_FW_F4_V1.4.0/Drivers/STM32F4xx_HAL_Driver/Src/stm32f4xx_hal_rtc_ex.c ****   tmpdate = (uint32_t)(hrtc->Instance->TSDR & RTC_DR_RESERVED_MASK);
 402              		.loc 1 322 0
 403 001c 596B     		ldr	r1, [r3, #52]	@ D.8296, _7->TSDR
ARM GAS  C:\cygwin\tmp\ccim5MRL.s 			page 14


 404              	.LVL28:
 323:../STM32Cube_FW_F4_V1.4.0/Drivers/STM32F4xx_HAL_Driver/Src/stm32f4xx_hal_rtc_ex.c **** 
 324:../STM32Cube_FW_F4_V1.4.0/Drivers/STM32F4xx_HAL_Driver/Src/stm32f4xx_hal_rtc_ex.c ****   /* Fill the Time structure fields with the read parameters */
 325:../STM32Cube_FW_F4_V1.4.0/Drivers/STM32F4xx_HAL_Driver/Src/stm32f4xx_hal_rtc_ex.c ****   sTimeStamp->Hours = (uint8_t)((tmptime & (RTC_TR_HT | RTC_TR_HU)) >> 16);
 405              		.loc 1 325 0
 406 001e C2F30543 		ubfx	r3, r2, #16, #6	@ D.8296, D.8296,,
 407 0022 2370     		strb	r3, [r4]	@ D.8296, sTimeStamp_15(D)->Hours
 326:../STM32Cube_FW_F4_V1.4.0/Drivers/STM32F4xx_HAL_Driver/Src/stm32f4xx_hal_rtc_ex.c ****   sTimeStamp->Minutes = (uint8_t)((tmptime & (RTC_TR_MNT | RTC_TR_MNU)) >> 8);
 408              		.loc 1 326 0
 409 0024 C2F30623 		ubfx	r3, r2, #8, #7	@ D.8296, D.8296,,
 410 0028 6370     		strb	r3, [r4, #1]	@ D.8296, sTimeStamp_15(D)->Minutes
 327:../STM32Cube_FW_F4_V1.4.0/Drivers/STM32F4xx_HAL_Driver/Src/stm32f4xx_hal_rtc_ex.c ****   sTimeStamp->Seconds = (uint8_t)(tmptime & (RTC_TR_ST | RTC_TR_SU));
 411              		.loc 1 327 0
 412 002a 02F07F03 		and	r3, r2, #127	@ tmp167, D.8296,
 328:../STM32Cube_FW_F4_V1.4.0/Drivers/STM32F4xx_HAL_Driver/Src/stm32f4xx_hal_rtc_ex.c ****   sTimeStamp->TimeFormat = (uint8_t)((tmptime & (RTC_TR_PM)) >> 16);  
 413              		.loc 1 328 0
 414 002e 02F48002 		and	r2, r2, #4194304	@ D.8296, D.8296,
 415              	.LVL29:
 416 0032 120C     		lsrs	r2, r2, #16	@ D.8296, D.8296,
 327:../STM32Cube_FW_F4_V1.4.0/Drivers/STM32F4xx_HAL_Driver/Src/stm32f4xx_hal_rtc_ex.c ****   sTimeStamp->Seconds = (uint8_t)(tmptime & (RTC_TR_ST | RTC_TR_SU));
 417              		.loc 1 327 0
 418 0034 A370     		strb	r3, [r4, #2]	@ tmp167, sTimeStamp_15(D)->Seconds
 419              		.loc 1 328 0
 420 0036 2272     		strb	r2, [r4, #8]	@ D.8296, sTimeStamp_15(D)->TimeFormat
 329:../STM32Cube_FW_F4_V1.4.0/Drivers/STM32F4xx_HAL_Driver/Src/stm32f4xx_hal_rtc_ex.c ****   sTimeStamp->SubSeconds = (uint32_t) hrtc->Instance->TSSSR;
 421              		.loc 1 329 0
 422 0038 3368     		ldr	r3, [r6]	@ D.8295, hrtc_6(D)->Instance
 423 003a 9B6B     		ldr	r3, [r3, #56]	@ D.8296, _28->TSSSR
 424 003c 6360     		str	r3, [r4, #4]	@ D.8296, sTimeStamp_15(D)->SubSeconds
 330:../STM32Cube_FW_F4_V1.4.0/Drivers/STM32F4xx_HAL_Driver/Src/stm32f4xx_hal_rtc_ex.c ****   
 331:../STM32Cube_FW_F4_V1.4.0/Drivers/STM32F4xx_HAL_Driver/Src/stm32f4xx_hal_rtc_ex.c ****   /* Fill the Date structure fields with the read parameters */
 332:../STM32Cube_FW_F4_V1.4.0/Drivers/STM32F4xx_HAL_Driver/Src/stm32f4xx_hal_rtc_ex.c ****   sTimeStampDate->Year = 0;
 425              		.loc 1 332 0
 426 003e 0023     		movs	r3, #0	@ tmp172,
 427 0040 EB70     		strb	r3, [r5, #3]	@ tmp172, sTimeStampDate_31(D)->Year
 333:../STM32Cube_FW_F4_V1.4.0/Drivers/STM32F4xx_HAL_Driver/Src/stm32f4xx_hal_rtc_ex.c ****   sTimeStampDate->Month = (uint8_t)((tmpdate & (RTC_DR_MT | RTC_DR_MU)) >> 8);
 428              		.loc 1 333 0
 429 0042 C1F30423 		ubfx	r3, r1, #8, #5	@ D.8296, D.8296,,
 430 0046 6B70     		strb	r3, [r5, #1]	@ D.8296, sTimeStampDate_31(D)->Month
 334:../STM32Cube_FW_F4_V1.4.0/Drivers/STM32F4xx_HAL_Driver/Src/stm32f4xx_hal_rtc_ex.c ****   sTimeStampDate->Date = (uint8_t)(tmpdate & (RTC_DR_DT | RTC_DR_DU));
 431              		.loc 1 334 0
 432 0048 01F03F03 		and	r3, r1, #63	@ tmp180, D.8296,
 335:../STM32Cube_FW_F4_V1.4.0/Drivers/STM32F4xx_HAL_Driver/Src/stm32f4xx_hal_rtc_ex.c ****   sTimeStampDate->WeekDay = (uint8_t)((tmpdate & (RTC_DR_WDU)) >> 13);
 433              		.loc 1 335 0
 434 004c C1F34231 		ubfx	r1, r1, #13, #3	@ D.8296, D.8296,,
 435              	.LVL30:
 334:../STM32Cube_FW_F4_V1.4.0/Drivers/STM32F4xx_HAL_Driver/Src/stm32f4xx_hal_rtc_ex.c ****   sTimeStampDate->Date = (uint8_t)(tmpdate & (RTC_DR_DT | RTC_DR_DU));
 436              		.loc 1 334 0
 437 0050 AB70     		strb	r3, [r5, #2]	@ tmp180, sTimeStampDate_31(D)->Date
 438              		.loc 1 335 0
 439 0052 2970     		strb	r1, [r5]	@ D.8296, sTimeStampDate_31(D)->WeekDay
 336:../STM32Cube_FW_F4_V1.4.0/Drivers/STM32F4xx_HAL_Driver/Src/stm32f4xx_hal_rtc_ex.c **** 
 337:../STM32Cube_FW_F4_V1.4.0/Drivers/STM32F4xx_HAL_Driver/Src/stm32f4xx_hal_rtc_ex.c ****   /* Check the input parameters format */
 338:../STM32Cube_FW_F4_V1.4.0/Drivers/STM32F4xx_HAL_Driver/Src/stm32f4xx_hal_rtc_ex.c ****   if(Format == RTC_FORMAT_BIN)
 440              		.loc 1 338 0
 441 0054 BFB9     		cbnz	r7, .L33	@ Format,
 339:../STM32Cube_FW_F4_V1.4.0/Drivers/STM32F4xx_HAL_Driver/Src/stm32f4xx_hal_rtc_ex.c ****   {
ARM GAS  C:\cygwin\tmp\ccim5MRL.s 			page 15


 340:../STM32Cube_FW_F4_V1.4.0/Drivers/STM32F4xx_HAL_Driver/Src/stm32f4xx_hal_rtc_ex.c ****     /* Convert the TimeStamp structure parameters to Binary format */
 341:../STM32Cube_FW_F4_V1.4.0/Drivers/STM32F4xx_HAL_Driver/Src/stm32f4xx_hal_rtc_ex.c ****     sTimeStamp->Hours = (uint8_t)RTC_Bcd2ToByte(sTimeStamp->Hours);
 442              		.loc 1 341 0
 443 0056 2078     		ldrb	r0, [r4]	@ zero_extendqisi2	@, sTimeStamp_15(D)->Hours
 444 0058 FFF7FEFF 		bl	RTC_Bcd2ToByte	@
 445              	.LVL31:
 446 005c 2070     		strb	r0, [r4]	@, sTimeStamp_15(D)->Hours
 342:../STM32Cube_FW_F4_V1.4.0/Drivers/STM32F4xx_HAL_Driver/Src/stm32f4xx_hal_rtc_ex.c ****     sTimeStamp->Minutes = (uint8_t)RTC_Bcd2ToByte(sTimeStamp->Minutes);
 447              		.loc 1 342 0
 448 005e 6078     		ldrb	r0, [r4, #1]	@ zero_extendqisi2	@, sTimeStamp_15(D)->Minutes
 449 0060 FFF7FEFF 		bl	RTC_Bcd2ToByte	@
 450              	.LVL32:
 451 0064 6070     		strb	r0, [r4, #1]	@, sTimeStamp_15(D)->Minutes
 343:../STM32Cube_FW_F4_V1.4.0/Drivers/STM32F4xx_HAL_Driver/Src/stm32f4xx_hal_rtc_ex.c ****     sTimeStamp->Seconds = (uint8_t)RTC_Bcd2ToByte(sTimeStamp->Seconds);
 452              		.loc 1 343 0
 453 0066 A078     		ldrb	r0, [r4, #2]	@ zero_extendqisi2	@, sTimeStamp_15(D)->Seconds
 454 0068 FFF7FEFF 		bl	RTC_Bcd2ToByte	@
 455              	.LVL33:
 456 006c A070     		strb	r0, [r4, #2]	@, sTimeStamp_15(D)->Seconds
 344:../STM32Cube_FW_F4_V1.4.0/Drivers/STM32F4xx_HAL_Driver/Src/stm32f4xx_hal_rtc_ex.c ****     
 345:../STM32Cube_FW_F4_V1.4.0/Drivers/STM32F4xx_HAL_Driver/Src/stm32f4xx_hal_rtc_ex.c ****     /* Convert the DateTimeStamp structure parameters to Binary format */
 346:../STM32Cube_FW_F4_V1.4.0/Drivers/STM32F4xx_HAL_Driver/Src/stm32f4xx_hal_rtc_ex.c ****     sTimeStampDate->Month = (uint8_t)RTC_Bcd2ToByte(sTimeStampDate->Month);
 457              		.loc 1 346 0
 458 006e 6878     		ldrb	r0, [r5, #1]	@ zero_extendqisi2	@, sTimeStampDate_31(D)->Month
 459 0070 FFF7FEFF 		bl	RTC_Bcd2ToByte	@
 460              	.LVL34:
 461 0074 6870     		strb	r0, [r5, #1]	@, sTimeStampDate_31(D)->Month
 347:../STM32Cube_FW_F4_V1.4.0/Drivers/STM32F4xx_HAL_Driver/Src/stm32f4xx_hal_rtc_ex.c ****     sTimeStampDate->Date = (uint8_t)RTC_Bcd2ToByte(sTimeStampDate->Date);
 462              		.loc 1 347 0
 463 0076 A878     		ldrb	r0, [r5, #2]	@ zero_extendqisi2	@, sTimeStampDate_31(D)->Date
 464 0078 FFF7FEFF 		bl	RTC_Bcd2ToByte	@
 465              	.LVL35:
 466 007c A870     		strb	r0, [r5, #2]	@, sTimeStampDate_31(D)->Date
 348:../STM32Cube_FW_F4_V1.4.0/Drivers/STM32F4xx_HAL_Driver/Src/stm32f4xx_hal_rtc_ex.c ****     sTimeStampDate->WeekDay = (uint8_t)RTC_Bcd2ToByte(sTimeStampDate->WeekDay);
 467              		.loc 1 348 0
 468 007e 2878     		ldrb	r0, [r5]	@ zero_extendqisi2	@, sTimeStampDate_31(D)->WeekDay
 469 0080 FFF7FEFF 		bl	RTC_Bcd2ToByte	@
 470              	.LVL36:
 471 0084 2870     		strb	r0, [r5]	@, sTimeStampDate_31(D)->WeekDay
 472              	.L33:
 349:../STM32Cube_FW_F4_V1.4.0/Drivers/STM32F4xx_HAL_Driver/Src/stm32f4xx_hal_rtc_ex.c ****   }
 350:../STM32Cube_FW_F4_V1.4.0/Drivers/STM32F4xx_HAL_Driver/Src/stm32f4xx_hal_rtc_ex.c ****   
 351:../STM32Cube_FW_F4_V1.4.0/Drivers/STM32F4xx_HAL_Driver/Src/stm32f4xx_hal_rtc_ex.c ****   /* Clear the TIMESTAMP Flag */
 352:../STM32Cube_FW_F4_V1.4.0/Drivers/STM32F4xx_HAL_Driver/Src/stm32f4xx_hal_rtc_ex.c ****   __HAL_RTC_TIMESTAMP_CLEAR_FLAG(hrtc, RTC_FLAG_TSF);
 473              		.loc 1 352 0
 474 0086 3268     		ldr	r2, [r6]	@ D.8295, hrtc_6(D)->Instance
 475 0088 D368     		ldr	r3, [r2, #12]	@ D.8296, _68->ISR
 476 008a DBB2     		uxtb	r3, r3	@ D.8296, D.8296
 477 008c 63F40863 		orn	r3, r3, #2176	@ D.8296, D.8296,
 478 0090 D360     		str	r3, [r2, #12]	@ D.8296, _68->ISR
 353:../STM32Cube_FW_F4_V1.4.0/Drivers/STM32F4xx_HAL_Driver/Src/stm32f4xx_hal_rtc_ex.c ****     
 354:../STM32Cube_FW_F4_V1.4.0/Drivers/STM32F4xx_HAL_Driver/Src/stm32f4xx_hal_rtc_ex.c ****   return HAL_OK;
 355:../STM32Cube_FW_F4_V1.4.0/Drivers/STM32F4xx_HAL_Driver/Src/stm32f4xx_hal_rtc_ex.c **** }
 479              		.loc 1 355 0
 480 0092 0020     		movs	r0, #0	@,
 481 0094 F8BD     		pop	{r3, r4, r5, r6, r7, pc}	@
 482              	.LVL37:
ARM GAS  C:\cygwin\tmp\ccim5MRL.s 			page 16


 483              	.L35:
 484 0096 00BF     		.align	2
 485              	.L34:
 486 0098 00000000 		.word	.LC0
 487              		.cfi_endproc
 488              	.LFE126:
 489              		.size	HAL_RTCEx_GetTimeStamp, .-HAL_RTCEx_GetTimeStamp
 490              		.section	.text.HAL_RTCEx_SetTamper,"ax",%progbits
 491              		.align	1
 492              		.global	HAL_RTCEx_SetTamper
 493              		.thumb
 494              		.thumb_func
 495              		.type	HAL_RTCEx_SetTamper, %function
 496              	HAL_RTCEx_SetTamper:
 497              	.LFB127:
 356:../STM32Cube_FW_F4_V1.4.0/Drivers/STM32F4xx_HAL_Driver/Src/stm32f4xx_hal_rtc_ex.c **** 
 357:../STM32Cube_FW_F4_V1.4.0/Drivers/STM32F4xx_HAL_Driver/Src/stm32f4xx_hal_rtc_ex.c **** /**
 358:../STM32Cube_FW_F4_V1.4.0/Drivers/STM32F4xx_HAL_Driver/Src/stm32f4xx_hal_rtc_ex.c ****   * @brief  Sets Tamper
 359:../STM32Cube_FW_F4_V1.4.0/Drivers/STM32F4xx_HAL_Driver/Src/stm32f4xx_hal_rtc_ex.c ****   * @note   By calling this API we disable the tamper interrupt for all tampers. 
 360:../STM32Cube_FW_F4_V1.4.0/Drivers/STM32F4xx_HAL_Driver/Src/stm32f4xx_hal_rtc_ex.c ****   * @param  hrtc: pointer to a RTC_HandleTypeDef structure that contains
 361:../STM32Cube_FW_F4_V1.4.0/Drivers/STM32F4xx_HAL_Driver/Src/stm32f4xx_hal_rtc_ex.c ****   *                the configuration information for RTC.
 362:../STM32Cube_FW_F4_V1.4.0/Drivers/STM32F4xx_HAL_Driver/Src/stm32f4xx_hal_rtc_ex.c ****   * @param  sTamper: Pointer to Tamper Structure.
 363:../STM32Cube_FW_F4_V1.4.0/Drivers/STM32F4xx_HAL_Driver/Src/stm32f4xx_hal_rtc_ex.c ****   * @retval HAL status
 364:../STM32Cube_FW_F4_V1.4.0/Drivers/STM32F4xx_HAL_Driver/Src/stm32f4xx_hal_rtc_ex.c ****   */
 365:../STM32Cube_FW_F4_V1.4.0/Drivers/STM32F4xx_HAL_Driver/Src/stm32f4xx_hal_rtc_ex.c **** HAL_StatusTypeDef HAL_RTCEx_SetTamper(RTC_HandleTypeDef *hrtc, RTC_TamperTypeDef* sTamper)
 366:../STM32Cube_FW_F4_V1.4.0/Drivers/STM32F4xx_HAL_Driver/Src/stm32f4xx_hal_rtc_ex.c **** {
 498              		.loc 1 366 0
 499              		.cfi_startproc
 500              		@ args = 0, pretend = 0, frame = 0
 501              		@ frame_needed = 0, uses_anonymous_args = 0
 502              	.LVL38:
 503 0000 38B5     		push	{r3, r4, r5, lr}	@
 504              		.cfi_def_cfa_offset 16
 505              		.cfi_offset 3, -16
 506              		.cfi_offset 4, -12
 507              		.cfi_offset 5, -8
 508              		.cfi_offset 14, -4
 367:../STM32Cube_FW_F4_V1.4.0/Drivers/STM32F4xx_HAL_Driver/Src/stm32f4xx_hal_rtc_ex.c ****   uint32_t tmpreg = 0;
 368:../STM32Cube_FW_F4_V1.4.0/Drivers/STM32F4xx_HAL_Driver/Src/stm32f4xx_hal_rtc_ex.c ****   
 369:../STM32Cube_FW_F4_V1.4.0/Drivers/STM32F4xx_HAL_Driver/Src/stm32f4xx_hal_rtc_ex.c ****   /* Check the parameters */
 370:../STM32Cube_FW_F4_V1.4.0/Drivers/STM32F4xx_HAL_Driver/Src/stm32f4xx_hal_rtc_ex.c ****   assert_param(IS_RTC_TAMPER(sTamper->Tamper)); 
 509              		.loc 1 370 0
 510 0002 0B68     		ldr	r3, [r1]	@ D.8301, sTamper_13(D)->Tamper
 511 0004 33F00902 		bics	r2, r3, #9	@ tmp213, D.8301,
 366:../STM32Cube_FW_F4_V1.4.0/Drivers/STM32F4xx_HAL_Driver/Src/stm32f4xx_hal_rtc_ex.c ****   uint32_t tmpreg = 0;
 512              		.loc 1 366 0
 513 0008 0546     		mov	r5, r0	@ hrtc, hrtc
 514 000a 0C46     		mov	r4, r1	@ sTamper, sTamper
 515              		.loc 1 370 0
 516 000c 00D1     		bne	.L37	@,
 517              		.loc 1 370 0 is_stmt 0 discriminator 2
 518 000e 23B9     		cbnz	r3, .L38	@ D.8301,
 519              	.L37:
 520              		.loc 1 370 0 discriminator 3
 521 0010 3B48     		ldr	r0, .L76	@,
 522              	.LVL39:
 523 0012 4FF4B971 		mov	r1, #370	@,
ARM GAS  C:\cygwin\tmp\ccim5MRL.s 			page 17


 524              	.LVL40:
 525 0016 FFF7FEFF 		bl	assert_failed	@
 526              	.LVL41:
 527              	.L38:
 371:../STM32Cube_FW_F4_V1.4.0/Drivers/STM32F4xx_HAL_Driver/Src/stm32f4xx_hal_rtc_ex.c ****   assert_param(IS_RTC_TAMPER_PIN(sTamper->PinSelection));
 528              		.loc 1 371 0 is_stmt 1
 529 001a 6368     		ldr	r3, [r4, #4]	@ sTamper_13(D)->PinSelection, sTamper_13(D)->PinSelection
 530 001c 33F48033 		bics	r3, r3, #65536	@ tmp214, sTamper_13(D)->PinSelection,
 531 0020 04D0     		beq	.L39	@,
 532              		.loc 1 371 0 is_stmt 0 discriminator 2
 533 0022 3748     		ldr	r0, .L76	@,
 534 0024 40F27311 		movw	r1, #371	@,
 535 0028 FFF7FEFF 		bl	assert_failed	@
 536              	.LVL42:
 537              	.L39:
 372:../STM32Cube_FW_F4_V1.4.0/Drivers/STM32F4xx_HAL_Driver/Src/stm32f4xx_hal_rtc_ex.c ****   assert_param(IS_RTC_TAMPER_TRIGGER(sTamper->Trigger));
 538              		.loc 1 372 0 is_stmt 1
 539 002c A368     		ldr	r3, [r4, #8]	@ sTamper_13(D)->Trigger, sTamper_13(D)->Trigger
 540 002e 33F00203 		bics	r3, r3, #2	@ tmp215, sTamper_13(D)->Trigger,
 541 0032 04D0     		beq	.L40	@,
 542              		.loc 1 372 0 is_stmt 0 discriminator 4
 543 0034 3248     		ldr	r0, .L76	@,
 544 0036 4FF4BA71 		mov	r1, #372	@,
 545 003a FFF7FEFF 		bl	assert_failed	@
 546              	.LVL43:
 547              	.L40:
 373:../STM32Cube_FW_F4_V1.4.0/Drivers/STM32F4xx_HAL_Driver/Src/stm32f4xx_hal_rtc_ex.c ****   assert_param(IS_RTC_TAMPER_FILTER(sTamper->Filter));
 548              		.loc 1 373 0 is_stmt 1
 549 003e E368     		ldr	r3, [r4, #12]	@ sTamper_13(D)->Filter, sTamper_13(D)->Filter
 550 0040 33F4C053 		bics	r3, r3, #6144	@ tmp216, sTamper_13(D)->Filter,
 551 0044 04D0     		beq	.L41	@,
 552              		.loc 1 373 0 is_stmt 0 discriminator 4
 553 0046 2E48     		ldr	r0, .L76	@,
 554 0048 40F27511 		movw	r1, #373	@,
 555 004c FFF7FEFF 		bl	assert_failed	@
 556              	.LVL44:
 557              	.L41:
 374:../STM32Cube_FW_F4_V1.4.0/Drivers/STM32F4xx_HAL_Driver/Src/stm32f4xx_hal_rtc_ex.c ****   assert_param(IS_RTC_TAMPER_SAMPLING_FREQ(sTamper->SamplingFrequency));         
 558              		.loc 1 374 0 is_stmt 1
 559 0050 2369     		ldr	r3, [r4, #16]	@ D.8301, sTamper_13(D)->SamplingFrequency
 560 0052 33F44073 		bics	r3, r3, #768	@ D.8301, D.8301,
 561 0056 07D0     		beq	.L42	@,
 562              		.loc 1 374 0 is_stmt 0 discriminator 4
 563 0058 B3F5806F 		cmp	r3, #1024	@ D.8301,
 564 005c 04D0     		beq	.L42	@,
 565              		.loc 1 374 0 discriminator 8
 566 005e 2848     		ldr	r0, .L76	@,
 567 0060 4FF4BB71 		mov	r1, #374	@,
 568 0064 FFF7FEFF 		bl	assert_failed	@
 569              	.LVL45:
 570              	.L42:
 375:../STM32Cube_FW_F4_V1.4.0/Drivers/STM32F4xx_HAL_Driver/Src/stm32f4xx_hal_rtc_ex.c ****   assert_param(IS_RTC_TAMPER_PRECHARGE_DURATION(sTamper->PrechargeDuration));
 571              		.loc 1 375 0 is_stmt 1
 572 0068 6369     		ldr	r3, [r4, #20]	@ sTamper_13(D)->PrechargeDuration, sTamper_13(D)->PrechargeDuration
 573 006a 33F4C043 		bics	r3, r3, #24576	@ tmp217, sTamper_13(D)->PrechargeDuration,
 574 006e 04D0     		beq	.L43	@,
 575              		.loc 1 375 0 is_stmt 0 discriminator 4
ARM GAS  C:\cygwin\tmp\ccim5MRL.s 			page 18


 576 0070 2348     		ldr	r0, .L76	@,
 577 0072 40F27711 		movw	r1, #375	@,
 578 0076 FFF7FEFF 		bl	assert_failed	@
 579              	.LVL46:
 580              	.L43:
 376:../STM32Cube_FW_F4_V1.4.0/Drivers/STM32F4xx_HAL_Driver/Src/stm32f4xx_hal_rtc_ex.c ****   assert_param(IS_RTC_TAMPER_PULLUP_STATE(sTamper->TamperPullUp));
 581              		.loc 1 376 0 is_stmt 1
 582 007a A369     		ldr	r3, [r4, #24]	@ sTamper_13(D)->TamperPullUp, sTamper_13(D)->TamperPullUp
 583 007c 33F40043 		bics	r3, r3, #32768	@ tmp218, sTamper_13(D)->TamperPullUp,
 584 0080 04D0     		beq	.L44	@,
 585              		.loc 1 376 0 is_stmt 0 discriminator 2
 586 0082 1F48     		ldr	r0, .L76	@,
 587 0084 4FF4BC71 		mov	r1, #376	@,
 588 0088 FFF7FEFF 		bl	assert_failed	@
 589              	.LVL47:
 590              	.L44:
 377:../STM32Cube_FW_F4_V1.4.0/Drivers/STM32F4xx_HAL_Driver/Src/stm32f4xx_hal_rtc_ex.c ****   assert_param(IS_RTC_TAMPER_TIMESTAMPONTAMPER_DETECTION(sTamper->TimeStampOnTamperDetection));
 591              		.loc 1 377 0 is_stmt 1
 592 008c E369     		ldr	r3, [r4, #28]	@ sTamper_13(D)->TimeStampOnTamperDetection, sTamper_13(D)->TimeStampOnTamperDet
 593 008e 33F08003 		bics	r3, r3, #128	@ tmp219, sTamper_13(D)->TimeStampOnTamperDetection,
 594 0092 04D0     		beq	.L45	@,
 595              		.loc 1 377 0 is_stmt 0 discriminator 2
 596 0094 1A48     		ldr	r0, .L76	@,
 597 0096 40F27911 		movw	r1, #377	@,
 598 009a FFF7FEFF 		bl	assert_failed	@
 599              	.LVL48:
 600              	.L45:
 378:../STM32Cube_FW_F4_V1.4.0/Drivers/STM32F4xx_HAL_Driver/Src/stm32f4xx_hal_rtc_ex.c ****  
 379:../STM32Cube_FW_F4_V1.4.0/Drivers/STM32F4xx_HAL_Driver/Src/stm32f4xx_hal_rtc_ex.c ****   /* Process Locked */ 
 380:../STM32Cube_FW_F4_V1.4.0/Drivers/STM32F4xx_HAL_Driver/Src/stm32f4xx_hal_rtc_ex.c ****   __HAL_LOCK(hrtc);
 601              		.loc 1 380 0 is_stmt 1
 602 009e 2B7F     		ldrb	r3, [r5, #28]	@ zero_extendqisi2	@ hrtc_31(D)->Lock, hrtc_31(D)->Lock
 603 00a0 012B     		cmp	r3, #1	@ hrtc_31(D)->Lock,
 604 00a2 4FF00200 		mov	r0, #2	@ D.8300,
 605 00a6 29D0     		beq	.L46	@,
 606              		.loc 1 380 0 is_stmt 0 discriminator 2
 607 00a8 0123     		movs	r3, #1	@ tmp181,
 608 00aa 2B77     		strb	r3, [r5, #28]	@ tmp181, hrtc_31(D)->Lock
 381:../STM32Cube_FW_F4_V1.4.0/Drivers/STM32F4xx_HAL_Driver/Src/stm32f4xx_hal_rtc_ex.c ****     
 382:../STM32Cube_FW_F4_V1.4.0/Drivers/STM32F4xx_HAL_Driver/Src/stm32f4xx_hal_rtc_ex.c ****   hrtc->State = HAL_RTC_STATE_BUSY;
 383:../STM32Cube_FW_F4_V1.4.0/Drivers/STM32F4xx_HAL_Driver/Src/stm32f4xx_hal_rtc_ex.c **** 
 384:../STM32Cube_FW_F4_V1.4.0/Drivers/STM32F4xx_HAL_Driver/Src/stm32f4xx_hal_rtc_ex.c ****   if(sTamper->Trigger != RTC_TAMPERTRIGGER_RISINGEDGE)
 609              		.loc 1 384 0 is_stmt 1 discriminator 2
 610 00ac A368     		ldr	r3, [r4, #8]	@ sTamper_13(D)->Trigger, sTamper_13(D)->Trigger
 382:../STM32Cube_FW_F4_V1.4.0/Drivers/STM32F4xx_HAL_Driver/Src/stm32f4xx_hal_rtc_ex.c **** 
 611              		.loc 1 382 0 discriminator 2
 612 00ae 6877     		strb	r0, [r5, #29]	@ D.8300, hrtc_31(D)->State
 613 00b0 2168     		ldr	r1, [r4]	@ D.8301, sTamper_13(D)->Tamper
 614              		.loc 1 384 0 discriminator 2
 615 00b2 0BB1     		cbz	r3, .L47	@ sTamper_13(D)->Trigger,
 385:../STM32Cube_FW_F4_V1.4.0/Drivers/STM32F4xx_HAL_Driver/Src/stm32f4xx_hal_rtc_ex.c ****   { 
 386:../STM32Cube_FW_F4_V1.4.0/Drivers/STM32F4xx_HAL_Driver/Src/stm32f4xx_hal_rtc_ex.c ****     sTamper->Trigger = (uint32_t)(sTamper->Tamper << 1); 
 616              		.loc 1 386 0
 617 00b4 4B00     		lsls	r3, r1, #1	@ D.8301, D.8301,
 618 00b6 A360     		str	r3, [r4, #8]	@ D.8301, sTamper_13(D)->Trigger
 619              	.L47:
 387:../STM32Cube_FW_F4_V1.4.0/Drivers/STM32F4xx_HAL_Driver/Src/stm32f4xx_hal_rtc_ex.c ****   } 
ARM GAS  C:\cygwin\tmp\ccim5MRL.s 			page 19


 388:../STM32Cube_FW_F4_V1.4.0/Drivers/STM32F4xx_HAL_Driver/Src/stm32f4xx_hal_rtc_ex.c ****         
 389:../STM32Cube_FW_F4_V1.4.0/Drivers/STM32F4xx_HAL_Driver/Src/stm32f4xx_hal_rtc_ex.c ****   tmpreg = ((uint32_t)sTamper->Tamper | (uint32_t)sTamper->PinSelection | (uint32_t)sTamper->Trigge
 620              		.loc 1 389 0
 621 00b8 6368     		ldr	r3, [r4, #4]	@ sTamper_13(D)->PinSelection, sTamper_13(D)->PinSelection
 622 00ba E269     		ldr	r2, [r4, #28]	@ sTamper_13(D)->TimeStampOnTamperDetection, sTamper_13(D)->TimeStampOnTamperDet
 623 00bc 41EA0300 		orr	r0, r1, r3	@ D.8301, D.8301, sTamper_13(D)->PinSelection
 624 00c0 A368     		ldr	r3, [r4, #8]	@ sTamper_13(D)->Trigger, sTamper_13(D)->Trigger
 625 00c2 1843     		orrs	r0, r0, r3	@, D.8301, D.8301, sTamper_13(D)->Trigger
 626 00c4 E368     		ldr	r3, [r4, #12]	@ sTamper_13(D)->Filter, sTamper_13(D)->Filter
 627 00c6 1843     		orrs	r0, r0, r3	@, D.8301, D.8301, sTamper_13(D)->Filter
 390:../STM32Cube_FW_F4_V1.4.0/Drivers/STM32F4xx_HAL_Driver/Src/stm32f4xx_hal_rtc_ex.c ****             (uint32_t)sTamper->Filter | (uint32_t)sTamper->SamplingFrequency | (uint32_t)sTamper->P
 628              		.loc 1 390 0
 629 00c8 2369     		ldr	r3, [r4, #16]	@ sTamper_13(D)->SamplingFrequency, sTamper_13(D)->SamplingFrequency
 630 00ca 1843     		orrs	r0, r0, r3	@, D.8301, D.8301, sTamper_13(D)->SamplingFrequency
 631 00cc 6369     		ldr	r3, [r4, #20]	@ sTamper_13(D)->PrechargeDuration, sTamper_13(D)->PrechargeDuration
 632 00ce 1843     		orrs	r0, r0, r3	@, D.8301, D.8301, sTamper_13(D)->PrechargeDuration
 633 00d0 A369     		ldr	r3, [r4, #24]	@ sTamper_13(D)->TamperPullUp, sTamper_13(D)->TamperPullUp
 634 00d2 0343     		orrs	r3, r3, r0	@, D.8301, sTamper_13(D)->TamperPullUp, D.8301
 389:../STM32Cube_FW_F4_V1.4.0/Drivers/STM32F4xx_HAL_Driver/Src/stm32f4xx_hal_rtc_ex.c ****             (uint32_t)sTamper->Filter | (uint32_t)sTamper->SamplingFrequency | (uint32_t)sTamper->P
 635              		.loc 1 389 0
 636 00d4 43EA0200 		orr	r0, r3, r2	@ tmpreg, D.8301, sTamper_13(D)->TimeStampOnTamperDetection
 637              	.LVL49:
 391:../STM32Cube_FW_F4_V1.4.0/Drivers/STM32F4xx_HAL_Driver/Src/stm32f4xx_hal_rtc_ex.c ****             (uint32_t)sTamper->TamperPullUp | sTamper->TimeStampOnTamperDetection);
 392:../STM32Cube_FW_F4_V1.4.0/Drivers/STM32F4xx_HAL_Driver/Src/stm32f4xx_hal_rtc_ex.c ****   
 393:../STM32Cube_FW_F4_V1.4.0/Drivers/STM32F4xx_HAL_Driver/Src/stm32f4xx_hal_rtc_ex.c ****   hrtc->Instance->TAFCR &= (uint32_t)~((uint32_t)sTamper->Tamper | (uint32_t)(sTamper->Tamper << 1)
 638              		.loc 1 393 0
 639 00d8 2A68     		ldr	r2, [r5]	@ D.8303, hrtc_31(D)->Instance
 640 00da 41F4FF33 		orr	r3, r1, #130560	@ D.8301, D.8301,
 641 00de 146C     		ldr	r4, [r2, #64]	@ D.8301, _54->TAFCR
 642              	.LVL50:
 643 00e0 43F4C273 		orr	r3, r3, #388	@ D.8301, D.8301,
 394:../STM32Cube_FW_F4_V1.4.0/Drivers/STM32F4xx_HAL_Driver/Src/stm32f4xx_hal_rtc_ex.c ****                                        (uint32_t)RTC_TAFCR_TAMPFREQ | (uint32_t)RTC_TAFCR_TAMPFLT |
 395:../STM32Cube_FW_F4_V1.4.0/Drivers/STM32F4xx_HAL_Driver/Src/stm32f4xx_hal_rtc_ex.c ****                                        (uint32_t)RTC_TAFCR_TAMPPUDIS | (uint32_t)RTC_TAFCR_TAMPINSE
 644              		.loc 1 395 0
 645 00e4 43EA4103 		orr	r3, r3, r1, lsl #1	@, D.8301, D.8301, D.8301,
 393:../STM32Cube_FW_F4_V1.4.0/Drivers/STM32F4xx_HAL_Driver/Src/stm32f4xx_hal_rtc_ex.c ****                                        (uint32_t)RTC_TAFCR_TAMPFREQ | (uint32_t)RTC_TAFCR_TAMPFLT |
 646              		.loc 1 393 0
 647 00e8 24EA0303 		bic	r3, r4, r3	@ D.8301, D.8301, D.8301
 648 00ec 1364     		str	r3, [r2, #64]	@ D.8301, _54->TAFCR
 396:../STM32Cube_FW_F4_V1.4.0/Drivers/STM32F4xx_HAL_Driver/Src/stm32f4xx_hal_rtc_ex.c **** 
 397:../STM32Cube_FW_F4_V1.4.0/Drivers/STM32F4xx_HAL_Driver/Src/stm32f4xx_hal_rtc_ex.c ****   hrtc->Instance->TAFCR |= tmpreg;
 649              		.loc 1 397 0
 650 00ee 136C     		ldr	r3, [r2, #64]	@ D.8301, _54->TAFCR
 651 00f0 0343     		orrs	r3, r3, r0	@, D.8301, D.8301, tmpreg
 652 00f2 1364     		str	r3, [r2, #64]	@ D.8301, _54->TAFCR
 398:../STM32Cube_FW_F4_V1.4.0/Drivers/STM32F4xx_HAL_Driver/Src/stm32f4xx_hal_rtc_ex.c ****   
 399:../STM32Cube_FW_F4_V1.4.0/Drivers/STM32F4xx_HAL_Driver/Src/stm32f4xx_hal_rtc_ex.c ****   hrtc->State = HAL_RTC_STATE_READY; 
 400:../STM32Cube_FW_F4_V1.4.0/Drivers/STM32F4xx_HAL_Driver/Src/stm32f4xx_hal_rtc_ex.c **** 
 401:../STM32Cube_FW_F4_V1.4.0/Drivers/STM32F4xx_HAL_Driver/Src/stm32f4xx_hal_rtc_ex.c ****   /* Process Unlocked */ 
 402:../STM32Cube_FW_F4_V1.4.0/Drivers/STM32F4xx_HAL_Driver/Src/stm32f4xx_hal_rtc_ex.c ****   __HAL_UNLOCK(hrtc);
 653              		.loc 1 402 0
 654 00f4 0020     		movs	r0, #0	@ tmp208,
 655              	.LVL51:
 399:../STM32Cube_FW_F4_V1.4.0/Drivers/STM32F4xx_HAL_Driver/Src/stm32f4xx_hal_rtc_ex.c **** 
 656              		.loc 1 399 0
 657 00f6 0123     		movs	r3, #1	@ tmp206,
 658 00f8 6B77     		strb	r3, [r5, #29]	@ tmp206, hrtc_31(D)->State
ARM GAS  C:\cygwin\tmp\ccim5MRL.s 			page 20


 659              		.loc 1 402 0
 660 00fa 2877     		strb	r0, [r5, #28]	@ tmp208, hrtc_31(D)->Lock
 661              	.LVL52:
 662              	.L46:
 403:../STM32Cube_FW_F4_V1.4.0/Drivers/STM32F4xx_HAL_Driver/Src/stm32f4xx_hal_rtc_ex.c ****     
 404:../STM32Cube_FW_F4_V1.4.0/Drivers/STM32F4xx_HAL_Driver/Src/stm32f4xx_hal_rtc_ex.c ****   return HAL_OK;
 405:../STM32Cube_FW_F4_V1.4.0/Drivers/STM32F4xx_HAL_Driver/Src/stm32f4xx_hal_rtc_ex.c **** }
 663              		.loc 1 405 0
 664 00fc 38BD     		pop	{r3, r4, r5, pc}	@
 665              	.LVL53:
 666              	.L77:
 667 00fe 00BF     		.align	2
 668              	.L76:
 669 0100 00000000 		.word	.LC0
 670              		.cfi_endproc
 671              	.LFE127:
 672              		.size	HAL_RTCEx_SetTamper, .-HAL_RTCEx_SetTamper
 673              		.section	.text.HAL_RTCEx_SetTamper_IT,"ax",%progbits
 674              		.align	1
 675              		.global	HAL_RTCEx_SetTamper_IT
 676              		.thumb
 677              		.thumb_func
 678              		.type	HAL_RTCEx_SetTamper_IT, %function
 679              	HAL_RTCEx_SetTamper_IT:
 680              	.LFB128:
 406:../STM32Cube_FW_F4_V1.4.0/Drivers/STM32F4xx_HAL_Driver/Src/stm32f4xx_hal_rtc_ex.c **** 
 407:../STM32Cube_FW_F4_V1.4.0/Drivers/STM32F4xx_HAL_Driver/Src/stm32f4xx_hal_rtc_ex.c **** /**
 408:../STM32Cube_FW_F4_V1.4.0/Drivers/STM32F4xx_HAL_Driver/Src/stm32f4xx_hal_rtc_ex.c ****   * @brief  Sets Tamper with interrupt.
 409:../STM32Cube_FW_F4_V1.4.0/Drivers/STM32F4xx_HAL_Driver/Src/stm32f4xx_hal_rtc_ex.c ****   * @note   By calling this API we force the tamper interrupt for all tampers.
 410:../STM32Cube_FW_F4_V1.4.0/Drivers/STM32F4xx_HAL_Driver/Src/stm32f4xx_hal_rtc_ex.c ****   * @param  hrtc: pointer to a RTC_HandleTypeDef structure that contains
 411:../STM32Cube_FW_F4_V1.4.0/Drivers/STM32F4xx_HAL_Driver/Src/stm32f4xx_hal_rtc_ex.c ****   *                the configuration information for RTC.
 412:../STM32Cube_FW_F4_V1.4.0/Drivers/STM32F4xx_HAL_Driver/Src/stm32f4xx_hal_rtc_ex.c ****   * @param  sTamper: Pointer to RTC Tamper.
 413:../STM32Cube_FW_F4_V1.4.0/Drivers/STM32F4xx_HAL_Driver/Src/stm32f4xx_hal_rtc_ex.c ****   * @retval HAL status
 414:../STM32Cube_FW_F4_V1.4.0/Drivers/STM32F4xx_HAL_Driver/Src/stm32f4xx_hal_rtc_ex.c ****   */
 415:../STM32Cube_FW_F4_V1.4.0/Drivers/STM32F4xx_HAL_Driver/Src/stm32f4xx_hal_rtc_ex.c **** HAL_StatusTypeDef HAL_RTCEx_SetTamper_IT(RTC_HandleTypeDef *hrtc, RTC_TamperTypeDef* sTamper)
 416:../STM32Cube_FW_F4_V1.4.0/Drivers/STM32F4xx_HAL_Driver/Src/stm32f4xx_hal_rtc_ex.c **** {
 681              		.loc 1 416 0
 682              		.cfi_startproc
 683              		@ args = 0, pretend = 0, frame = 0
 684              		@ frame_needed = 0, uses_anonymous_args = 0
 685              	.LVL54:
 686 0000 38B5     		push	{r3, r4, r5, lr}	@
 687              		.cfi_def_cfa_offset 16
 688              		.cfi_offset 3, -16
 689              		.cfi_offset 4, -12
 690              		.cfi_offset 5, -8
 691              		.cfi_offset 14, -4
 417:../STM32Cube_FW_F4_V1.4.0/Drivers/STM32F4xx_HAL_Driver/Src/stm32f4xx_hal_rtc_ex.c ****   uint32_t tmpreg = 0;
 418:../STM32Cube_FW_F4_V1.4.0/Drivers/STM32F4xx_HAL_Driver/Src/stm32f4xx_hal_rtc_ex.c ****   
 419:../STM32Cube_FW_F4_V1.4.0/Drivers/STM32F4xx_HAL_Driver/Src/stm32f4xx_hal_rtc_ex.c ****   /* Check the parameters */
 420:../STM32Cube_FW_F4_V1.4.0/Drivers/STM32F4xx_HAL_Driver/Src/stm32f4xx_hal_rtc_ex.c ****   assert_param(IS_RTC_TAMPER(sTamper->Tamper)); 
 692              		.loc 1 420 0
 693 0002 0B68     		ldr	r3, [r1]	@ D.8307, sTamper_13(D)->Tamper
 694 0004 33F00902 		bics	r2, r3, #9	@ tmp223, D.8307,
 416:../STM32Cube_FW_F4_V1.4.0/Drivers/STM32F4xx_HAL_Driver/Src/stm32f4xx_hal_rtc_ex.c ****   uint32_t tmpreg = 0;
 695              		.loc 1 416 0
 696 0008 0546     		mov	r5, r0	@ hrtc, hrtc
ARM GAS  C:\cygwin\tmp\ccim5MRL.s 			page 21


 697 000a 0C46     		mov	r4, r1	@ sTamper, sTamper
 698              		.loc 1 420 0
 699 000c 00D1     		bne	.L79	@,
 700              		.loc 1 420 0 is_stmt 0 discriminator 2
 701 000e 23B9     		cbnz	r3, .L80	@ D.8307,
 702              	.L79:
 703              		.loc 1 420 0 discriminator 3
 704 0010 4148     		ldr	r0, .L118	@,
 705              	.LVL55:
 706 0012 4FF4D271 		mov	r1, #420	@,
 707              	.LVL56:
 708 0016 FFF7FEFF 		bl	assert_failed	@
 709              	.LVL57:
 710              	.L80:
 421:../STM32Cube_FW_F4_V1.4.0/Drivers/STM32F4xx_HAL_Driver/Src/stm32f4xx_hal_rtc_ex.c ****   assert_param(IS_RTC_TAMPER_PIN(sTamper->PinSelection));
 711              		.loc 1 421 0 is_stmt 1
 712 001a 6368     		ldr	r3, [r4, #4]	@ sTamper_13(D)->PinSelection, sTamper_13(D)->PinSelection
 713 001c 33F48033 		bics	r3, r3, #65536	@ tmp224, sTamper_13(D)->PinSelection,
 714 0020 04D0     		beq	.L81	@,
 715              		.loc 1 421 0 is_stmt 0 discriminator 2
 716 0022 3D48     		ldr	r0, .L118	@,
 717 0024 40F2A511 		movw	r1, #421	@,
 718 0028 FFF7FEFF 		bl	assert_failed	@
 719              	.LVL58:
 720              	.L81:
 422:../STM32Cube_FW_F4_V1.4.0/Drivers/STM32F4xx_HAL_Driver/Src/stm32f4xx_hal_rtc_ex.c ****   assert_param(IS_RTC_TAMPER_TRIGGER(sTamper->Trigger));
 721              		.loc 1 422 0 is_stmt 1
 722 002c A368     		ldr	r3, [r4, #8]	@ sTamper_13(D)->Trigger, sTamper_13(D)->Trigger
 723 002e 33F00203 		bics	r3, r3, #2	@ tmp225, sTamper_13(D)->Trigger,
 724 0032 04D0     		beq	.L82	@,
 725              		.loc 1 422 0 is_stmt 0 discriminator 4
 726 0034 3848     		ldr	r0, .L118	@,
 727 0036 4FF4D371 		mov	r1, #422	@,
 728 003a FFF7FEFF 		bl	assert_failed	@
 729              	.LVL59:
 730              	.L82:
 423:../STM32Cube_FW_F4_V1.4.0/Drivers/STM32F4xx_HAL_Driver/Src/stm32f4xx_hal_rtc_ex.c ****   assert_param(IS_RTC_TAMPER_FILTER(sTamper->Filter));
 731              		.loc 1 423 0 is_stmt 1
 732 003e E368     		ldr	r3, [r4, #12]	@ sTamper_13(D)->Filter, sTamper_13(D)->Filter
 733 0040 33F4C053 		bics	r3, r3, #6144	@ tmp226, sTamper_13(D)->Filter,
 734 0044 04D0     		beq	.L83	@,
 735              		.loc 1 423 0 is_stmt 0 discriminator 4
 736 0046 3448     		ldr	r0, .L118	@,
 737 0048 40F2A711 		movw	r1, #423	@,
 738 004c FFF7FEFF 		bl	assert_failed	@
 739              	.LVL60:
 740              	.L83:
 424:../STM32Cube_FW_F4_V1.4.0/Drivers/STM32F4xx_HAL_Driver/Src/stm32f4xx_hal_rtc_ex.c ****   assert_param(IS_RTC_TAMPER_SAMPLING_FREQ(sTamper->SamplingFrequency));         
 741              		.loc 1 424 0 is_stmt 1
 742 0050 2369     		ldr	r3, [r4, #16]	@ D.8307, sTamper_13(D)->SamplingFrequency
 743 0052 33F44073 		bics	r3, r3, #768	@ D.8307, D.8307,
 744 0056 07D0     		beq	.L84	@,
 745              		.loc 1 424 0 is_stmt 0 discriminator 4
 746 0058 B3F5806F 		cmp	r3, #1024	@ D.8307,
 747 005c 04D0     		beq	.L84	@,
 748              		.loc 1 424 0 discriminator 8
 749 005e 2E48     		ldr	r0, .L118	@,
ARM GAS  C:\cygwin\tmp\ccim5MRL.s 			page 22


 750 0060 4FF4D471 		mov	r1, #424	@,
 751 0064 FFF7FEFF 		bl	assert_failed	@
 752              	.LVL61:
 753              	.L84:
 425:../STM32Cube_FW_F4_V1.4.0/Drivers/STM32F4xx_HAL_Driver/Src/stm32f4xx_hal_rtc_ex.c ****   assert_param(IS_RTC_TAMPER_PRECHARGE_DURATION(sTamper->PrechargeDuration));
 754              		.loc 1 425 0 is_stmt 1
 755 0068 6369     		ldr	r3, [r4, #20]	@ sTamper_13(D)->PrechargeDuration, sTamper_13(D)->PrechargeDuration
 756 006a 33F4C043 		bics	r3, r3, #24576	@ tmp227, sTamper_13(D)->PrechargeDuration,
 757 006e 04D0     		beq	.L85	@,
 758              		.loc 1 425 0 is_stmt 0 discriminator 4
 759 0070 2948     		ldr	r0, .L118	@,
 760 0072 40F2A911 		movw	r1, #425	@,
 761 0076 FFF7FEFF 		bl	assert_failed	@
 762              	.LVL62:
 763              	.L85:
 426:../STM32Cube_FW_F4_V1.4.0/Drivers/STM32F4xx_HAL_Driver/Src/stm32f4xx_hal_rtc_ex.c ****   assert_param(IS_RTC_TAMPER_PULLUP_STATE(sTamper->TamperPullUp));
 764              		.loc 1 426 0 is_stmt 1
 765 007a A369     		ldr	r3, [r4, #24]	@ sTamper_13(D)->TamperPullUp, sTamper_13(D)->TamperPullUp
 766 007c 33F40043 		bics	r3, r3, #32768	@ tmp228, sTamper_13(D)->TamperPullUp,
 767 0080 04D0     		beq	.L86	@,
 768              		.loc 1 426 0 is_stmt 0 discriminator 2
 769 0082 2548     		ldr	r0, .L118	@,
 770 0084 4FF4D571 		mov	r1, #426	@,
 771 0088 FFF7FEFF 		bl	assert_failed	@
 772              	.LVL63:
 773              	.L86:
 427:../STM32Cube_FW_F4_V1.4.0/Drivers/STM32F4xx_HAL_Driver/Src/stm32f4xx_hal_rtc_ex.c ****   assert_param(IS_RTC_TAMPER_TIMESTAMPONTAMPER_DETECTION(sTamper->TimeStampOnTamperDetection));
 774              		.loc 1 427 0 is_stmt 1
 775 008c E369     		ldr	r3, [r4, #28]	@ sTamper_13(D)->TimeStampOnTamperDetection, sTamper_13(D)->TimeStampOnTamperDet
 776 008e 33F08003 		bics	r3, r3, #128	@ tmp229, sTamper_13(D)->TimeStampOnTamperDetection,
 777 0092 04D0     		beq	.L87	@,
 778              		.loc 1 427 0 is_stmt 0 discriminator 2
 779 0094 2048     		ldr	r0, .L118	@,
 780 0096 40F2AB11 		movw	r1, #427	@,
 781 009a FFF7FEFF 		bl	assert_failed	@
 782              	.LVL64:
 783              	.L87:
 428:../STM32Cube_FW_F4_V1.4.0/Drivers/STM32F4xx_HAL_Driver/Src/stm32f4xx_hal_rtc_ex.c ****  
 429:../STM32Cube_FW_F4_V1.4.0/Drivers/STM32F4xx_HAL_Driver/Src/stm32f4xx_hal_rtc_ex.c ****   /* Process Locked */ 
 430:../STM32Cube_FW_F4_V1.4.0/Drivers/STM32F4xx_HAL_Driver/Src/stm32f4xx_hal_rtc_ex.c ****   __HAL_LOCK(hrtc);
 784              		.loc 1 430 0 is_stmt 1
 785 009e 2B7F     		ldrb	r3, [r5, #28]	@ zero_extendqisi2	@ hrtc_31(D)->Lock, hrtc_31(D)->Lock
 786 00a0 012B     		cmp	r3, #1	@ hrtc_31(D)->Lock,
 787 00a2 4FF00200 		mov	r0, #2	@ D.8306,
 788 00a6 36D0     		beq	.L88	@,
 789              		.loc 1 430 0 is_stmt 0 discriminator 2
 790 00a8 0123     		movs	r3, #1	@ tmp187,
 791 00aa 2B77     		strb	r3, [r5, #28]	@ tmp187, hrtc_31(D)->Lock
 431:../STM32Cube_FW_F4_V1.4.0/Drivers/STM32F4xx_HAL_Driver/Src/stm32f4xx_hal_rtc_ex.c ****       
 432:../STM32Cube_FW_F4_V1.4.0/Drivers/STM32F4xx_HAL_Driver/Src/stm32f4xx_hal_rtc_ex.c ****   hrtc->State = HAL_RTC_STATE_BUSY;
 433:../STM32Cube_FW_F4_V1.4.0/Drivers/STM32F4xx_HAL_Driver/Src/stm32f4xx_hal_rtc_ex.c ****   
 434:../STM32Cube_FW_F4_V1.4.0/Drivers/STM32F4xx_HAL_Driver/Src/stm32f4xx_hal_rtc_ex.c ****   /* Configure the tamper trigger */
 435:../STM32Cube_FW_F4_V1.4.0/Drivers/STM32F4xx_HAL_Driver/Src/stm32f4xx_hal_rtc_ex.c ****   if(sTamper->Trigger != RTC_TAMPERTRIGGER_RISINGEDGE)
 792              		.loc 1 435 0 is_stmt 1 discriminator 2
 793 00ac A368     		ldr	r3, [r4, #8]	@ sTamper_13(D)->Trigger, sTamper_13(D)->Trigger
 432:../STM32Cube_FW_F4_V1.4.0/Drivers/STM32F4xx_HAL_Driver/Src/stm32f4xx_hal_rtc_ex.c ****   
 794              		.loc 1 432 0 discriminator 2
ARM GAS  C:\cygwin\tmp\ccim5MRL.s 			page 23


 795 00ae 6877     		strb	r0, [r5, #29]	@ D.8306, hrtc_31(D)->State
 796 00b0 2168     		ldr	r1, [r4]	@ D.8307, sTamper_13(D)->Tamper
 797              		.loc 1 435 0 discriminator 2
 798 00b2 0BB1     		cbz	r3, .L89	@ sTamper_13(D)->Trigger,
 436:../STM32Cube_FW_F4_V1.4.0/Drivers/STM32F4xx_HAL_Driver/Src/stm32f4xx_hal_rtc_ex.c ****   { 
 437:../STM32Cube_FW_F4_V1.4.0/Drivers/STM32F4xx_HAL_Driver/Src/stm32f4xx_hal_rtc_ex.c ****     sTamper->Trigger = (uint32_t)(sTamper->Tamper << 1); 
 799              		.loc 1 437 0
 800 00b4 4B00     		lsls	r3, r1, #1	@ D.8307, D.8307,
 801 00b6 A360     		str	r3, [r4, #8]	@ D.8307, sTamper_13(D)->Trigger
 802              	.L89:
 438:../STM32Cube_FW_F4_V1.4.0/Drivers/STM32F4xx_HAL_Driver/Src/stm32f4xx_hal_rtc_ex.c ****   } 
 439:../STM32Cube_FW_F4_V1.4.0/Drivers/STM32F4xx_HAL_Driver/Src/stm32f4xx_hal_rtc_ex.c ****        
 440:../STM32Cube_FW_F4_V1.4.0/Drivers/STM32F4xx_HAL_Driver/Src/stm32f4xx_hal_rtc_ex.c ****   tmpreg = ((uint32_t)sTamper->Tamper | (uint32_t)sTamper->PinSelection | (uint32_t)sTamper->Trigge
 803              		.loc 1 440 0
 804 00b8 6368     		ldr	r3, [r4, #4]	@ sTamper_13(D)->PinSelection, sTamper_13(D)->PinSelection
 805 00ba 41EA0302 		orr	r2, r1, r3	@ D.8307, D.8307, sTamper_13(D)->PinSelection
 806 00be A368     		ldr	r3, [r4, #8]	@ sTamper_13(D)->Trigger, sTamper_13(D)->Trigger
 807 00c0 1A43     		orrs	r2, r2, r3	@, D.8307, D.8307, sTamper_13(D)->Trigger
 808 00c2 E368     		ldr	r3, [r4, #12]	@ sTamper_13(D)->Filter, sTamper_13(D)->Filter
 809 00c4 1A43     		orrs	r2, r2, r3	@, D.8307, D.8307, sTamper_13(D)->Filter
 441:../STM32Cube_FW_F4_V1.4.0/Drivers/STM32F4xx_HAL_Driver/Src/stm32f4xx_hal_rtc_ex.c ****             (uint32_t)sTamper->Filter | (uint32_t)sTamper->SamplingFrequency | (uint32_t)sTamper->P
 810              		.loc 1 441 0
 811 00c6 2369     		ldr	r3, [r4, #16]	@ sTamper_13(D)->SamplingFrequency, sTamper_13(D)->SamplingFrequency
 812 00c8 1A43     		orrs	r2, r2, r3	@, D.8307, D.8307, sTamper_13(D)->SamplingFrequency
 813 00ca 6369     		ldr	r3, [r4, #20]	@ sTamper_13(D)->PrechargeDuration, sTamper_13(D)->PrechargeDuration
 814 00cc 1A43     		orrs	r2, r2, r3	@, D.8307, D.8307, sTamper_13(D)->PrechargeDuration
 815 00ce A369     		ldr	r3, [r4, #24]	@ sTamper_13(D)->TamperPullUp, sTamper_13(D)->TamperPullUp
 816 00d0 1A43     		orrs	r2, r2, r3	@, D.8307, D.8307, sTamper_13(D)->TamperPullUp
 440:../STM32Cube_FW_F4_V1.4.0/Drivers/STM32F4xx_HAL_Driver/Src/stm32f4xx_hal_rtc_ex.c ****             (uint32_t)sTamper->Filter | (uint32_t)sTamper->SamplingFrequency | (uint32_t)sTamper->P
 817              		.loc 1 440 0
 818 00d2 E369     		ldr	r3, [r4, #28]	@ sTamper_13(D)->TimeStampOnTamperDetection, sTamper_13(D)->TimeStampOnTamperDet
 819 00d4 42EA0300 		orr	r0, r2, r3	@ tmpreg, D.8307, sTamper_13(D)->TimeStampOnTamperDetection
 820              	.LVL65:
 442:../STM32Cube_FW_F4_V1.4.0/Drivers/STM32F4xx_HAL_Driver/Src/stm32f4xx_hal_rtc_ex.c ****             (uint32_t)sTamper->TamperPullUp | sTamper->TimeStampOnTamperDetection);
 443:../STM32Cube_FW_F4_V1.4.0/Drivers/STM32F4xx_HAL_Driver/Src/stm32f4xx_hal_rtc_ex.c ****   
 444:../STM32Cube_FW_F4_V1.4.0/Drivers/STM32F4xx_HAL_Driver/Src/stm32f4xx_hal_rtc_ex.c ****   hrtc->Instance->TAFCR &= (uint32_t)~((uint32_t)sTamper->Tamper | (uint32_t)(sTamper->Tamper << 1)
 821              		.loc 1 444 0
 822 00d8 2B68     		ldr	r3, [r5]	@ D.8309, hrtc_31(D)->Instance
 823 00da 41F4FF32 		orr	r2, r1, #130560	@ D.8307, D.8307,
 824 00de 1C6C     		ldr	r4, [r3, #64]	@ D.8307, _54->TAFCR
 825              	.LVL66:
 826 00e0 42F4C072 		orr	r2, r2, #384	@ D.8307, D.8307,
 445:../STM32Cube_FW_F4_V1.4.0/Drivers/STM32F4xx_HAL_Driver/Src/stm32f4xx_hal_rtc_ex.c ****                                        (uint32_t)RTC_TAFCR_TAMPFREQ | (uint32_t)RTC_TAFCR_TAMPFLT |
 446:../STM32Cube_FW_F4_V1.4.0/Drivers/STM32F4xx_HAL_Driver/Src/stm32f4xx_hal_rtc_ex.c ****                                        (uint32_t)RTC_TAFCR_TAMPPUDIS | (uint32_t)RTC_TAFCR_TAMPINSE
 827              		.loc 1 446 0
 828 00e4 42EA4102 		orr	r2, r2, r1, lsl #1	@, D.8307, D.8307, D.8307,
 444:../STM32Cube_FW_F4_V1.4.0/Drivers/STM32F4xx_HAL_Driver/Src/stm32f4xx_hal_rtc_ex.c ****                                        (uint32_t)RTC_TAFCR_TAMPFREQ | (uint32_t)RTC_TAFCR_TAMPFLT |
 829              		.loc 1 444 0
 830 00e8 24EA0202 		bic	r2, r4, r2	@ D.8307, D.8307, D.8307
 831 00ec 1A64     		str	r2, [r3, #64]	@ D.8307, _54->TAFCR
 447:../STM32Cube_FW_F4_V1.4.0/Drivers/STM32F4xx_HAL_Driver/Src/stm32f4xx_hal_rtc_ex.c ****     
 448:../STM32Cube_FW_F4_V1.4.0/Drivers/STM32F4xx_HAL_Driver/Src/stm32f4xx_hal_rtc_ex.c ****   hrtc->Instance->TAFCR |= tmpreg;
 832              		.loc 1 448 0
 833 00ee 1A6C     		ldr	r2, [r3, #64]	@ D.8307, _54->TAFCR
 834 00f0 0243     		orrs	r2, r2, r0	@, D.8307, D.8307, tmpreg
 835 00f2 1A64     		str	r2, [r3, #64]	@ D.8307, _54->TAFCR
 449:../STM32Cube_FW_F4_V1.4.0/Drivers/STM32F4xx_HAL_Driver/Src/stm32f4xx_hal_rtc_ex.c ****   
ARM GAS  C:\cygwin\tmp\ccim5MRL.s 			page 24


 450:../STM32Cube_FW_F4_V1.4.0/Drivers/STM32F4xx_HAL_Driver/Src/stm32f4xx_hal_rtc_ex.c ****   /* Configure the Tamper Interrupt in the RTC_TAFCR */
 451:../STM32Cube_FW_F4_V1.4.0/Drivers/STM32F4xx_HAL_Driver/Src/stm32f4xx_hal_rtc_ex.c ****   hrtc->Instance->TAFCR |= (uint32_t)RTC_TAFCR_TAMPIE;
 836              		.loc 1 451 0
 837 00f4 1A6C     		ldr	r2, [r3, #64]	@ D.8307, _54->TAFCR
 838 00f6 42F00402 		orr	r2, r2, #4	@ D.8307, D.8307,
 839 00fa 1A64     		str	r2, [r3, #64]	@ D.8307, _54->TAFCR
 452:../STM32Cube_FW_F4_V1.4.0/Drivers/STM32F4xx_HAL_Driver/Src/stm32f4xx_hal_rtc_ex.c ****   
 453:../STM32Cube_FW_F4_V1.4.0/Drivers/STM32F4xx_HAL_Driver/Src/stm32f4xx_hal_rtc_ex.c ****   /* RTC Tamper Interrupt Configuration: EXTI configuration */
 454:../STM32Cube_FW_F4_V1.4.0/Drivers/STM32F4xx_HAL_Driver/Src/stm32f4xx_hal_rtc_ex.c ****   __HAL_RTC_TAMPER_TIMESTAMP_EXTI_ENABLE_IT();
 840              		.loc 1 454 0
 841 00fc 074B     		ldr	r3, .L118+4	@ tmp212,
 842 00fe 1A68     		ldr	r2, [r3]	@ D.8307, MEM[(struct EXTI_TypeDef *)1073822720B].IMR
 843 0100 42F40012 		orr	r2, r2, #2097152	@ D.8307, D.8307,
 844 0104 1A60     		str	r2, [r3]	@ D.8307, MEM[(struct EXTI_TypeDef *)1073822720B].IMR
 455:../STM32Cube_FW_F4_V1.4.0/Drivers/STM32F4xx_HAL_Driver/Src/stm32f4xx_hal_rtc_ex.c ****   
 456:../STM32Cube_FW_F4_V1.4.0/Drivers/STM32F4xx_HAL_Driver/Src/stm32f4xx_hal_rtc_ex.c ****   EXTI->RTSR |= RTC_EXTI_LINE_TAMPER_TIMESTAMP_EVENT;
 845              		.loc 1 456 0
 846 0106 9A68     		ldr	r2, [r3, #8]	@ D.8307, MEM[(struct EXTI_TypeDef *)1073822720B].RTSR
 847 0108 42F40012 		orr	r2, r2, #2097152	@ D.8307, D.8307,
 848 010c 9A60     		str	r2, [r3, #8]	@ D.8307, MEM[(struct EXTI_TypeDef *)1073822720B].RTSR
 457:../STM32Cube_FW_F4_V1.4.0/Drivers/STM32F4xx_HAL_Driver/Src/stm32f4xx_hal_rtc_ex.c ****   
 458:../STM32Cube_FW_F4_V1.4.0/Drivers/STM32F4xx_HAL_Driver/Src/stm32f4xx_hal_rtc_ex.c ****   hrtc->State = HAL_RTC_STATE_READY;   
 459:../STM32Cube_FW_F4_V1.4.0/Drivers/STM32F4xx_HAL_Driver/Src/stm32f4xx_hal_rtc_ex.c ****   
 460:../STM32Cube_FW_F4_V1.4.0/Drivers/STM32F4xx_HAL_Driver/Src/stm32f4xx_hal_rtc_ex.c ****   /* Process Unlocked */ 
 461:../STM32Cube_FW_F4_V1.4.0/Drivers/STM32F4xx_HAL_Driver/Src/stm32f4xx_hal_rtc_ex.c ****   __HAL_UNLOCK(hrtc);
 849              		.loc 1 461 0
 850 010e 0020     		movs	r0, #0	@ tmp218,
 851              	.LVL67:
 458:../STM32Cube_FW_F4_V1.4.0/Drivers/STM32F4xx_HAL_Driver/Src/stm32f4xx_hal_rtc_ex.c ****   
 852              		.loc 1 458 0
 853 0110 0123     		movs	r3, #1	@ tmp216,
 854 0112 6B77     		strb	r3, [r5, #29]	@ tmp216, hrtc_31(D)->State
 855              		.loc 1 461 0
 856 0114 2877     		strb	r0, [r5, #28]	@ tmp218, hrtc_31(D)->Lock
 857              	.L88:
 462:../STM32Cube_FW_F4_V1.4.0/Drivers/STM32F4xx_HAL_Driver/Src/stm32f4xx_hal_rtc_ex.c ****   
 463:../STM32Cube_FW_F4_V1.4.0/Drivers/STM32F4xx_HAL_Driver/Src/stm32f4xx_hal_rtc_ex.c ****   return HAL_OK;
 464:../STM32Cube_FW_F4_V1.4.0/Drivers/STM32F4xx_HAL_Driver/Src/stm32f4xx_hal_rtc_ex.c **** }
 858              		.loc 1 464 0
 859 0116 38BD     		pop	{r3, r4, r5, pc}	@
 860              	.LVL68:
 861              	.L119:
 862              		.align	2
 863              	.L118:
 864 0118 00000000 		.word	.LC0
 865 011c 003C0140 		.word	1073822720
 866              		.cfi_endproc
 867              	.LFE128:
 868              		.size	HAL_RTCEx_SetTamper_IT, .-HAL_RTCEx_SetTamper_IT
 869              		.section	.text.HAL_RTCEx_DeactivateTamper,"ax",%progbits
 870              		.align	1
 871              		.global	HAL_RTCEx_DeactivateTamper
 872              		.thumb
 873              		.thumb_func
 874              		.type	HAL_RTCEx_DeactivateTamper, %function
 875              	HAL_RTCEx_DeactivateTamper:
 876              	.LFB129:
ARM GAS  C:\cygwin\tmp\ccim5MRL.s 			page 25


 465:../STM32Cube_FW_F4_V1.4.0/Drivers/STM32F4xx_HAL_Driver/Src/stm32f4xx_hal_rtc_ex.c **** 
 466:../STM32Cube_FW_F4_V1.4.0/Drivers/STM32F4xx_HAL_Driver/Src/stm32f4xx_hal_rtc_ex.c **** /**
 467:../STM32Cube_FW_F4_V1.4.0/Drivers/STM32F4xx_HAL_Driver/Src/stm32f4xx_hal_rtc_ex.c ****   * @brief  Deactivates Tamper.
 468:../STM32Cube_FW_F4_V1.4.0/Drivers/STM32F4xx_HAL_Driver/Src/stm32f4xx_hal_rtc_ex.c ****   * @param  hrtc: pointer to a RTC_HandleTypeDef structure that contains
 469:../STM32Cube_FW_F4_V1.4.0/Drivers/STM32F4xx_HAL_Driver/Src/stm32f4xx_hal_rtc_ex.c ****   *                the configuration information for RTC.
 470:../STM32Cube_FW_F4_V1.4.0/Drivers/STM32F4xx_HAL_Driver/Src/stm32f4xx_hal_rtc_ex.c ****   * @param  Tamper: Selected tamper pin.
 471:../STM32Cube_FW_F4_V1.4.0/Drivers/STM32F4xx_HAL_Driver/Src/stm32f4xx_hal_rtc_ex.c ****   *          This parameter can be RTC_Tamper_1 and/or RTC_TAMPER_2.
 472:../STM32Cube_FW_F4_V1.4.0/Drivers/STM32F4xx_HAL_Driver/Src/stm32f4xx_hal_rtc_ex.c ****   * @retval HAL status
 473:../STM32Cube_FW_F4_V1.4.0/Drivers/STM32F4xx_HAL_Driver/Src/stm32f4xx_hal_rtc_ex.c ****   */
 474:../STM32Cube_FW_F4_V1.4.0/Drivers/STM32F4xx_HAL_Driver/Src/stm32f4xx_hal_rtc_ex.c **** HAL_StatusTypeDef HAL_RTCEx_DeactivateTamper(RTC_HandleTypeDef *hrtc, uint32_t Tamper)
 475:../STM32Cube_FW_F4_V1.4.0/Drivers/STM32F4xx_HAL_Driver/Src/stm32f4xx_hal_rtc_ex.c **** {
 877              		.loc 1 475 0
 878              		.cfi_startproc
 879              		@ args = 0, pretend = 0, frame = 0
 880              		@ frame_needed = 0, uses_anonymous_args = 0
 881              	.LVL69:
 882 0000 38B5     		push	{r3, r4, r5, lr}	@
 883              		.cfi_def_cfa_offset 16
 884              		.cfi_offset 3, -16
 885              		.cfi_offset 4, -12
 886              		.cfi_offset 5, -8
 887              		.cfi_offset 14, -4
 476:../STM32Cube_FW_F4_V1.4.0/Drivers/STM32F4xx_HAL_Driver/Src/stm32f4xx_hal_rtc_ex.c ****   assert_param(IS_RTC_TAMPER(Tamper)); 
 888              		.loc 1 476 0
 889 0002 31F00903 		bics	r3, r1, #9	@ tmp132, Tamper,
 475:../STM32Cube_FW_F4_V1.4.0/Drivers/STM32F4xx_HAL_Driver/Src/stm32f4xx_hal_rtc_ex.c ****   assert_param(IS_RTC_TAMPER(Tamper)); 
 890              		.loc 1 475 0
 891 0006 0446     		mov	r4, r0	@ hrtc, hrtc
 892 0008 0D46     		mov	r5, r1	@ Tamper, Tamper
 893              		.loc 1 476 0
 894 000a 00D1     		bne	.L121	@,
 895              		.loc 1 476 0 is_stmt 0 discriminator 2
 896 000c 21B9     		cbnz	r1, .L122	@ Tamper,
 897              	.L121:
 898              		.loc 1 476 0 discriminator 3
 899 000e 0A48     		ldr	r0, .L125	@,
 900              	.LVL70:
 901 0010 4FF4EE71 		mov	r1, #476	@,
 902              	.LVL71:
 903 0014 FFF7FEFF 		bl	assert_failed	@
 904              	.LVL72:
 905              	.L122:
 477:../STM32Cube_FW_F4_V1.4.0/Drivers/STM32F4xx_HAL_Driver/Src/stm32f4xx_hal_rtc_ex.c ****   
 478:../STM32Cube_FW_F4_V1.4.0/Drivers/STM32F4xx_HAL_Driver/Src/stm32f4xx_hal_rtc_ex.c ****   /* Process Locked */ 
 479:../STM32Cube_FW_F4_V1.4.0/Drivers/STM32F4xx_HAL_Driver/Src/stm32f4xx_hal_rtc_ex.c ****   __HAL_LOCK(hrtc);
 906              		.loc 1 479 0 is_stmt 1
 907 0018 237F     		ldrb	r3, [r4, #28]	@ zero_extendqisi2	@ hrtc_8(D)->Lock, hrtc_8(D)->Lock
 908 001a 012B     		cmp	r3, #1	@ hrtc_8(D)->Lock,
 909 001c 4FF00200 		mov	r0, #2	@ D.8312,
 910 0020 09D0     		beq	.L123	@,
 480:../STM32Cube_FW_F4_V1.4.0/Drivers/STM32F4xx_HAL_Driver/Src/stm32f4xx_hal_rtc_ex.c ****       
 481:../STM32Cube_FW_F4_V1.4.0/Drivers/STM32F4xx_HAL_Driver/Src/stm32f4xx_hal_rtc_ex.c ****   hrtc->State = HAL_RTC_STATE_BUSY;
 482:../STM32Cube_FW_F4_V1.4.0/Drivers/STM32F4xx_HAL_Driver/Src/stm32f4xx_hal_rtc_ex.c ****   
 483:../STM32Cube_FW_F4_V1.4.0/Drivers/STM32F4xx_HAL_Driver/Src/stm32f4xx_hal_rtc_ex.c ****   /* Disable the selected Tamper pin */
 484:../STM32Cube_FW_F4_V1.4.0/Drivers/STM32F4xx_HAL_Driver/Src/stm32f4xx_hal_rtc_ex.c ****   hrtc->Instance->TAFCR &= (uint32_t)~Tamper;  
 911              		.loc 1 484 0 discriminator 2
 912 0022 2368     		ldr	r3, [r4]	@ D.8315, hrtc_8(D)->Instance
ARM GAS  C:\cygwin\tmp\ccim5MRL.s 			page 26


 481:../STM32Cube_FW_F4_V1.4.0/Drivers/STM32F4xx_HAL_Driver/Src/stm32f4xx_hal_rtc_ex.c ****   
 913              		.loc 1 481 0 discriminator 2
 914 0024 6077     		strb	r0, [r4, #29]	@ D.8312, hrtc_8(D)->State
 915              		.loc 1 484 0 discriminator 2
 916 0026 196C     		ldr	r1, [r3, #64]	@ D.8313, _12->TAFCR
 917 0028 21EA0501 		bic	r1, r1, r5	@ D.8313, D.8313, Tamper
 918 002c 1964     		str	r1, [r3, #64]	@ D.8313, _12->TAFCR
 485:../STM32Cube_FW_F4_V1.4.0/Drivers/STM32F4xx_HAL_Driver/Src/stm32f4xx_hal_rtc_ex.c ****   
 486:../STM32Cube_FW_F4_V1.4.0/Drivers/STM32F4xx_HAL_Driver/Src/stm32f4xx_hal_rtc_ex.c ****   hrtc->State = HAL_RTC_STATE_READY;   
 487:../STM32Cube_FW_F4_V1.4.0/Drivers/STM32F4xx_HAL_Driver/Src/stm32f4xx_hal_rtc_ex.c ****   
 488:../STM32Cube_FW_F4_V1.4.0/Drivers/STM32F4xx_HAL_Driver/Src/stm32f4xx_hal_rtc_ex.c ****   /* Process Unlocked */  
 489:../STM32Cube_FW_F4_V1.4.0/Drivers/STM32F4xx_HAL_Driver/Src/stm32f4xx_hal_rtc_ex.c ****   __HAL_UNLOCK(hrtc);
 919              		.loc 1 489 0 discriminator 2
 920 002e 0020     		movs	r0, #0	@ tmp128,
 486:../STM32Cube_FW_F4_V1.4.0/Drivers/STM32F4xx_HAL_Driver/Src/stm32f4xx_hal_rtc_ex.c ****   
 921              		.loc 1 486 0 discriminator 2
 922 0030 0123     		movs	r3, #1	@ tmp126,
 923 0032 6377     		strb	r3, [r4, #29]	@ tmp126, hrtc_8(D)->State
 924              		.loc 1 489 0 discriminator 2
 925 0034 2077     		strb	r0, [r4, #28]	@ tmp128, hrtc_8(D)->Lock
 926              	.L123:
 490:../STM32Cube_FW_F4_V1.4.0/Drivers/STM32F4xx_HAL_Driver/Src/stm32f4xx_hal_rtc_ex.c ****   
 491:../STM32Cube_FW_F4_V1.4.0/Drivers/STM32F4xx_HAL_Driver/Src/stm32f4xx_hal_rtc_ex.c ****   return HAL_OK; 
 492:../STM32Cube_FW_F4_V1.4.0/Drivers/STM32F4xx_HAL_Driver/Src/stm32f4xx_hal_rtc_ex.c **** }
 927              		.loc 1 492 0
 928 0036 38BD     		pop	{r3, r4, r5, pc}	@
 929              	.LVL73:
 930              	.L126:
 931              		.align	2
 932              	.L125:
 933 0038 00000000 		.word	.LC0
 934              		.cfi_endproc
 935              	.LFE129:
 936              		.size	HAL_RTCEx_DeactivateTamper, .-HAL_RTCEx_DeactivateTamper
 937              		.section	.text.HAL_RTCEx_TimeStampEventCallback,"ax",%progbits
 938              		.align	1
 939              		.weak	HAL_RTCEx_TimeStampEventCallback
 940              		.thumb
 941              		.thumb_func
 942              		.type	HAL_RTCEx_TimeStampEventCallback, %function
 943              	HAL_RTCEx_TimeStampEventCallback:
 944              	.LFB131:
 493:../STM32Cube_FW_F4_V1.4.0/Drivers/STM32F4xx_HAL_Driver/Src/stm32f4xx_hal_rtc_ex.c **** 
 494:../STM32Cube_FW_F4_V1.4.0/Drivers/STM32F4xx_HAL_Driver/Src/stm32f4xx_hal_rtc_ex.c **** /**
 495:../STM32Cube_FW_F4_V1.4.0/Drivers/STM32F4xx_HAL_Driver/Src/stm32f4xx_hal_rtc_ex.c ****   * @brief  This function handles TimeStamp interrupt request.
 496:../STM32Cube_FW_F4_V1.4.0/Drivers/STM32F4xx_HAL_Driver/Src/stm32f4xx_hal_rtc_ex.c ****   * @param  hrtc: pointer to a RTC_HandleTypeDef structure that contains
 497:../STM32Cube_FW_F4_V1.4.0/Drivers/STM32F4xx_HAL_Driver/Src/stm32f4xx_hal_rtc_ex.c ****   *                the configuration information for RTC.
 498:../STM32Cube_FW_F4_V1.4.0/Drivers/STM32F4xx_HAL_Driver/Src/stm32f4xx_hal_rtc_ex.c ****   * @retval None
 499:../STM32Cube_FW_F4_V1.4.0/Drivers/STM32F4xx_HAL_Driver/Src/stm32f4xx_hal_rtc_ex.c ****   */
 500:../STM32Cube_FW_F4_V1.4.0/Drivers/STM32F4xx_HAL_Driver/Src/stm32f4xx_hal_rtc_ex.c **** void HAL_RTCEx_TamperTimeStampIRQHandler(RTC_HandleTypeDef *hrtc)
 501:../STM32Cube_FW_F4_V1.4.0/Drivers/STM32F4xx_HAL_Driver/Src/stm32f4xx_hal_rtc_ex.c **** {  
 502:../STM32Cube_FW_F4_V1.4.0/Drivers/STM32F4xx_HAL_Driver/Src/stm32f4xx_hal_rtc_ex.c ****   if(__HAL_RTC_TIMESTAMP_GET_IT(hrtc, RTC_IT_TS))
 503:../STM32Cube_FW_F4_V1.4.0/Drivers/STM32F4xx_HAL_Driver/Src/stm32f4xx_hal_rtc_ex.c ****   {
 504:../STM32Cube_FW_F4_V1.4.0/Drivers/STM32F4xx_HAL_Driver/Src/stm32f4xx_hal_rtc_ex.c ****     /* Get the status of the Interrupt */
 505:../STM32Cube_FW_F4_V1.4.0/Drivers/STM32F4xx_HAL_Driver/Src/stm32f4xx_hal_rtc_ex.c ****     if((uint32_t)(hrtc->Instance->CR & RTC_IT_TS) != (uint32_t)RESET)
 506:../STM32Cube_FW_F4_V1.4.0/Drivers/STM32F4xx_HAL_Driver/Src/stm32f4xx_hal_rtc_ex.c ****     {
 507:../STM32Cube_FW_F4_V1.4.0/Drivers/STM32F4xx_HAL_Driver/Src/stm32f4xx_hal_rtc_ex.c ****       /* TIMESTAMP callback */ 
ARM GAS  C:\cygwin\tmp\ccim5MRL.s 			page 27


 508:../STM32Cube_FW_F4_V1.4.0/Drivers/STM32F4xx_HAL_Driver/Src/stm32f4xx_hal_rtc_ex.c ****       HAL_RTCEx_TimeStampEventCallback(hrtc);
 509:../STM32Cube_FW_F4_V1.4.0/Drivers/STM32F4xx_HAL_Driver/Src/stm32f4xx_hal_rtc_ex.c ****   
 510:../STM32Cube_FW_F4_V1.4.0/Drivers/STM32F4xx_HAL_Driver/Src/stm32f4xx_hal_rtc_ex.c ****       /* Clear the TIMESTAMP interrupt pending bit */
 511:../STM32Cube_FW_F4_V1.4.0/Drivers/STM32F4xx_HAL_Driver/Src/stm32f4xx_hal_rtc_ex.c ****       __HAL_RTC_TIMESTAMP_CLEAR_FLAG(hrtc,RTC_FLAG_TSF);
 512:../STM32Cube_FW_F4_V1.4.0/Drivers/STM32F4xx_HAL_Driver/Src/stm32f4xx_hal_rtc_ex.c ****     }
 513:../STM32Cube_FW_F4_V1.4.0/Drivers/STM32F4xx_HAL_Driver/Src/stm32f4xx_hal_rtc_ex.c ****   }
 514:../STM32Cube_FW_F4_V1.4.0/Drivers/STM32F4xx_HAL_Driver/Src/stm32f4xx_hal_rtc_ex.c ****   
 515:../STM32Cube_FW_F4_V1.4.0/Drivers/STM32F4xx_HAL_Driver/Src/stm32f4xx_hal_rtc_ex.c ****   /* Get the status of the Interrupt */
 516:../STM32Cube_FW_F4_V1.4.0/Drivers/STM32F4xx_HAL_Driver/Src/stm32f4xx_hal_rtc_ex.c ****   if(__HAL_RTC_TAMPER_GET_IT(hrtc,RTC_IT_TAMP1))
 517:../STM32Cube_FW_F4_V1.4.0/Drivers/STM32F4xx_HAL_Driver/Src/stm32f4xx_hal_rtc_ex.c ****   {
 518:../STM32Cube_FW_F4_V1.4.0/Drivers/STM32F4xx_HAL_Driver/Src/stm32f4xx_hal_rtc_ex.c ****     /* Get the TAMPER Interrupt enable bit and pending bit */
 519:../STM32Cube_FW_F4_V1.4.0/Drivers/STM32F4xx_HAL_Driver/Src/stm32f4xx_hal_rtc_ex.c ****     if(((hrtc->Instance->TAFCR & (RTC_TAFCR_TAMPIE))) != (uint32_t)RESET) 
 520:../STM32Cube_FW_F4_V1.4.0/Drivers/STM32F4xx_HAL_Driver/Src/stm32f4xx_hal_rtc_ex.c ****     {
 521:../STM32Cube_FW_F4_V1.4.0/Drivers/STM32F4xx_HAL_Driver/Src/stm32f4xx_hal_rtc_ex.c ****       /* Tamper callback */ 
 522:../STM32Cube_FW_F4_V1.4.0/Drivers/STM32F4xx_HAL_Driver/Src/stm32f4xx_hal_rtc_ex.c ****       HAL_RTCEx_Tamper1EventCallback(hrtc);
 523:../STM32Cube_FW_F4_V1.4.0/Drivers/STM32F4xx_HAL_Driver/Src/stm32f4xx_hal_rtc_ex.c ****   
 524:../STM32Cube_FW_F4_V1.4.0/Drivers/STM32F4xx_HAL_Driver/Src/stm32f4xx_hal_rtc_ex.c ****       /* Clear the Tamper interrupt pending bit */
 525:../STM32Cube_FW_F4_V1.4.0/Drivers/STM32F4xx_HAL_Driver/Src/stm32f4xx_hal_rtc_ex.c ****       __HAL_RTC_TAMPER_CLEAR_FLAG(hrtc,RTC_FLAG_TAMP1F);
 526:../STM32Cube_FW_F4_V1.4.0/Drivers/STM32F4xx_HAL_Driver/Src/stm32f4xx_hal_rtc_ex.c ****     }
 527:../STM32Cube_FW_F4_V1.4.0/Drivers/STM32F4xx_HAL_Driver/Src/stm32f4xx_hal_rtc_ex.c ****   }
 528:../STM32Cube_FW_F4_V1.4.0/Drivers/STM32F4xx_HAL_Driver/Src/stm32f4xx_hal_rtc_ex.c ****   
 529:../STM32Cube_FW_F4_V1.4.0/Drivers/STM32F4xx_HAL_Driver/Src/stm32f4xx_hal_rtc_ex.c ****   /* Get the status of the Interrupt */
 530:../STM32Cube_FW_F4_V1.4.0/Drivers/STM32F4xx_HAL_Driver/Src/stm32f4xx_hal_rtc_ex.c ****   if(__HAL_RTC_TAMPER_GET_IT(hrtc, RTC_IT_TAMP2))
 531:../STM32Cube_FW_F4_V1.4.0/Drivers/STM32F4xx_HAL_Driver/Src/stm32f4xx_hal_rtc_ex.c ****   {
 532:../STM32Cube_FW_F4_V1.4.0/Drivers/STM32F4xx_HAL_Driver/Src/stm32f4xx_hal_rtc_ex.c ****     /* Get the TAMPER Interrupt enable bit and pending bit */
 533:../STM32Cube_FW_F4_V1.4.0/Drivers/STM32F4xx_HAL_Driver/Src/stm32f4xx_hal_rtc_ex.c ****     if(((hrtc->Instance->TAFCR & RTC_TAFCR_TAMPIE)) != (uint32_t)RESET) 
 534:../STM32Cube_FW_F4_V1.4.0/Drivers/STM32F4xx_HAL_Driver/Src/stm32f4xx_hal_rtc_ex.c ****     {
 535:../STM32Cube_FW_F4_V1.4.0/Drivers/STM32F4xx_HAL_Driver/Src/stm32f4xx_hal_rtc_ex.c ****       /* Tamper callback */ 
 536:../STM32Cube_FW_F4_V1.4.0/Drivers/STM32F4xx_HAL_Driver/Src/stm32f4xx_hal_rtc_ex.c ****       HAL_RTCEx_Tamper2EventCallback(hrtc);
 537:../STM32Cube_FW_F4_V1.4.0/Drivers/STM32F4xx_HAL_Driver/Src/stm32f4xx_hal_rtc_ex.c ****   
 538:../STM32Cube_FW_F4_V1.4.0/Drivers/STM32F4xx_HAL_Driver/Src/stm32f4xx_hal_rtc_ex.c ****       /* Clear the Tamper interrupt pending bit */
 539:../STM32Cube_FW_F4_V1.4.0/Drivers/STM32F4xx_HAL_Driver/Src/stm32f4xx_hal_rtc_ex.c ****       __HAL_RTC_TAMPER_CLEAR_FLAG(hrtc, RTC_FLAG_TAMP2F);
 540:../STM32Cube_FW_F4_V1.4.0/Drivers/STM32F4xx_HAL_Driver/Src/stm32f4xx_hal_rtc_ex.c ****     }
 541:../STM32Cube_FW_F4_V1.4.0/Drivers/STM32F4xx_HAL_Driver/Src/stm32f4xx_hal_rtc_ex.c ****   }
 542:../STM32Cube_FW_F4_V1.4.0/Drivers/STM32F4xx_HAL_Driver/Src/stm32f4xx_hal_rtc_ex.c ****   /* Clear the EXTI's Flag for RTC TimeStamp and Tamper */
 543:../STM32Cube_FW_F4_V1.4.0/Drivers/STM32F4xx_HAL_Driver/Src/stm32f4xx_hal_rtc_ex.c ****   __HAL_RTC_TAMPER_TIMESTAMP_EXTI_CLEAR_FLAG();
 544:../STM32Cube_FW_F4_V1.4.0/Drivers/STM32F4xx_HAL_Driver/Src/stm32f4xx_hal_rtc_ex.c ****   
 545:../STM32Cube_FW_F4_V1.4.0/Drivers/STM32F4xx_HAL_Driver/Src/stm32f4xx_hal_rtc_ex.c ****   /* Change RTC state */
 546:../STM32Cube_FW_F4_V1.4.0/Drivers/STM32F4xx_HAL_Driver/Src/stm32f4xx_hal_rtc_ex.c ****   hrtc->State = HAL_RTC_STATE_READY; 
 547:../STM32Cube_FW_F4_V1.4.0/Drivers/STM32F4xx_HAL_Driver/Src/stm32f4xx_hal_rtc_ex.c **** }
 548:../STM32Cube_FW_F4_V1.4.0/Drivers/STM32F4xx_HAL_Driver/Src/stm32f4xx_hal_rtc_ex.c **** 
 549:../STM32Cube_FW_F4_V1.4.0/Drivers/STM32F4xx_HAL_Driver/Src/stm32f4xx_hal_rtc_ex.c **** /**
 550:../STM32Cube_FW_F4_V1.4.0/Drivers/STM32F4xx_HAL_Driver/Src/stm32f4xx_hal_rtc_ex.c ****   * @brief  TimeStamp callback. 
 551:../STM32Cube_FW_F4_V1.4.0/Drivers/STM32F4xx_HAL_Driver/Src/stm32f4xx_hal_rtc_ex.c ****   * @param  hrtc: pointer to a RTC_HandleTypeDef structure that contains
 552:../STM32Cube_FW_F4_V1.4.0/Drivers/STM32F4xx_HAL_Driver/Src/stm32f4xx_hal_rtc_ex.c ****   *                the configuration information for RTC.
 553:../STM32Cube_FW_F4_V1.4.0/Drivers/STM32F4xx_HAL_Driver/Src/stm32f4xx_hal_rtc_ex.c ****   * @retval None
 554:../STM32Cube_FW_F4_V1.4.0/Drivers/STM32F4xx_HAL_Driver/Src/stm32f4xx_hal_rtc_ex.c ****   */
 555:../STM32Cube_FW_F4_V1.4.0/Drivers/STM32F4xx_HAL_Driver/Src/stm32f4xx_hal_rtc_ex.c **** __weak void HAL_RTCEx_TimeStampEventCallback(RTC_HandleTypeDef *hrtc)
 556:../STM32Cube_FW_F4_V1.4.0/Drivers/STM32F4xx_HAL_Driver/Src/stm32f4xx_hal_rtc_ex.c **** {
 945              		.loc 1 556 0
 946              		.cfi_startproc
 947              		@ args = 0, pretend = 0, frame = 0
 948              		@ frame_needed = 0, uses_anonymous_args = 0
 949              		@ link register save eliminated.
 950              	.LVL74:
 951 0000 7047     		bx	lr	@
 952              		.cfi_endproc
ARM GAS  C:\cygwin\tmp\ccim5MRL.s 			page 28


 953              	.LFE131:
 954              		.size	HAL_RTCEx_TimeStampEventCallback, .-HAL_RTCEx_TimeStampEventCallback
 955              		.section	.text.HAL_RTCEx_Tamper1EventCallback,"ax",%progbits
 956              		.align	1
 957              		.weak	HAL_RTCEx_Tamper1EventCallback
 958              		.thumb
 959              		.thumb_func
 960              		.type	HAL_RTCEx_Tamper1EventCallback, %function
 961              	HAL_RTCEx_Tamper1EventCallback:
 962              	.LFB132:
 557:../STM32Cube_FW_F4_V1.4.0/Drivers/STM32F4xx_HAL_Driver/Src/stm32f4xx_hal_rtc_ex.c ****   /* NOTE : This function Should not be modified, when the callback is needed,
 558:../STM32Cube_FW_F4_V1.4.0/Drivers/STM32F4xx_HAL_Driver/Src/stm32f4xx_hal_rtc_ex.c ****             the HAL_RTC_TimeStampEventCallback could be implemented in the user file
 559:../STM32Cube_FW_F4_V1.4.0/Drivers/STM32F4xx_HAL_Driver/Src/stm32f4xx_hal_rtc_ex.c ****   */
 560:../STM32Cube_FW_F4_V1.4.0/Drivers/STM32F4xx_HAL_Driver/Src/stm32f4xx_hal_rtc_ex.c **** }
 561:../STM32Cube_FW_F4_V1.4.0/Drivers/STM32F4xx_HAL_Driver/Src/stm32f4xx_hal_rtc_ex.c **** 
 562:../STM32Cube_FW_F4_V1.4.0/Drivers/STM32F4xx_HAL_Driver/Src/stm32f4xx_hal_rtc_ex.c **** /**
 563:../STM32Cube_FW_F4_V1.4.0/Drivers/STM32F4xx_HAL_Driver/Src/stm32f4xx_hal_rtc_ex.c ****   * @brief  Tamper 1 callback. 
 564:../STM32Cube_FW_F4_V1.4.0/Drivers/STM32F4xx_HAL_Driver/Src/stm32f4xx_hal_rtc_ex.c ****   * @param  hrtc: pointer to a RTC_HandleTypeDef structure that contains
 565:../STM32Cube_FW_F4_V1.4.0/Drivers/STM32F4xx_HAL_Driver/Src/stm32f4xx_hal_rtc_ex.c ****   *                the configuration information for RTC.
 566:../STM32Cube_FW_F4_V1.4.0/Drivers/STM32F4xx_HAL_Driver/Src/stm32f4xx_hal_rtc_ex.c ****   * @retval None
 567:../STM32Cube_FW_F4_V1.4.0/Drivers/STM32F4xx_HAL_Driver/Src/stm32f4xx_hal_rtc_ex.c ****   */
 568:../STM32Cube_FW_F4_V1.4.0/Drivers/STM32F4xx_HAL_Driver/Src/stm32f4xx_hal_rtc_ex.c **** __weak void HAL_RTCEx_Tamper1EventCallback(RTC_HandleTypeDef *hrtc)
 569:../STM32Cube_FW_F4_V1.4.0/Drivers/STM32F4xx_HAL_Driver/Src/stm32f4xx_hal_rtc_ex.c **** {
 963              		.loc 1 569 0
 964              		.cfi_startproc
 965              		@ args = 0, pretend = 0, frame = 0
 966              		@ frame_needed = 0, uses_anonymous_args = 0
 967              		@ link register save eliminated.
 968              	.LVL75:
 969 0000 7047     		bx	lr	@
 970              		.cfi_endproc
 971              	.LFE132:
 972              		.size	HAL_RTCEx_Tamper1EventCallback, .-HAL_RTCEx_Tamper1EventCallback
 973              		.section	.text.HAL_RTCEx_Tamper2EventCallback,"ax",%progbits
 974              		.align	1
 975              		.weak	HAL_RTCEx_Tamper2EventCallback
 976              		.thumb
 977              		.thumb_func
 978              		.type	HAL_RTCEx_Tamper2EventCallback, %function
 979              	HAL_RTCEx_Tamper2EventCallback:
 980              	.LFB133:
 570:../STM32Cube_FW_F4_V1.4.0/Drivers/STM32F4xx_HAL_Driver/Src/stm32f4xx_hal_rtc_ex.c ****   /* NOTE : This function Should not be modified, when the callback is needed,
 571:../STM32Cube_FW_F4_V1.4.0/Drivers/STM32F4xx_HAL_Driver/Src/stm32f4xx_hal_rtc_ex.c ****             the HAL_RTC_Tamper1EventCallback could be implemented in the user file
 572:../STM32Cube_FW_F4_V1.4.0/Drivers/STM32F4xx_HAL_Driver/Src/stm32f4xx_hal_rtc_ex.c ****    */
 573:../STM32Cube_FW_F4_V1.4.0/Drivers/STM32F4xx_HAL_Driver/Src/stm32f4xx_hal_rtc_ex.c **** }
 574:../STM32Cube_FW_F4_V1.4.0/Drivers/STM32F4xx_HAL_Driver/Src/stm32f4xx_hal_rtc_ex.c **** 
 575:../STM32Cube_FW_F4_V1.4.0/Drivers/STM32F4xx_HAL_Driver/Src/stm32f4xx_hal_rtc_ex.c **** /**
 576:../STM32Cube_FW_F4_V1.4.0/Drivers/STM32F4xx_HAL_Driver/Src/stm32f4xx_hal_rtc_ex.c ****   * @brief  Tamper 2 callback. 
 577:../STM32Cube_FW_F4_V1.4.0/Drivers/STM32F4xx_HAL_Driver/Src/stm32f4xx_hal_rtc_ex.c ****   * @param  hrtc: pointer to a RTC_HandleTypeDef structure that contains
 578:../STM32Cube_FW_F4_V1.4.0/Drivers/STM32F4xx_HAL_Driver/Src/stm32f4xx_hal_rtc_ex.c ****   *                the configuration information for RTC.
 579:../STM32Cube_FW_F4_V1.4.0/Drivers/STM32F4xx_HAL_Driver/Src/stm32f4xx_hal_rtc_ex.c ****   * @retval None
 580:../STM32Cube_FW_F4_V1.4.0/Drivers/STM32F4xx_HAL_Driver/Src/stm32f4xx_hal_rtc_ex.c ****   */
 581:../STM32Cube_FW_F4_V1.4.0/Drivers/STM32F4xx_HAL_Driver/Src/stm32f4xx_hal_rtc_ex.c **** __weak void HAL_RTCEx_Tamper2EventCallback(RTC_HandleTypeDef *hrtc)
 582:../STM32Cube_FW_F4_V1.4.0/Drivers/STM32F4xx_HAL_Driver/Src/stm32f4xx_hal_rtc_ex.c **** {
 981              		.loc 1 582 0
 982              		.cfi_startproc
 983              		@ args = 0, pretend = 0, frame = 0
ARM GAS  C:\cygwin\tmp\ccim5MRL.s 			page 29


 984              		@ frame_needed = 0, uses_anonymous_args = 0
 985              		@ link register save eliminated.
 986              	.LVL76:
 987 0000 7047     		bx	lr	@
 988              		.cfi_endproc
 989              	.LFE133:
 990              		.size	HAL_RTCEx_Tamper2EventCallback, .-HAL_RTCEx_Tamper2EventCallback
 991              		.section	.text.HAL_RTCEx_TamperTimeStampIRQHandler,"ax",%progbits
 992              		.align	1
 993              		.global	HAL_RTCEx_TamperTimeStampIRQHandler
 994              		.thumb
 995              		.thumb_func
 996              		.type	HAL_RTCEx_TamperTimeStampIRQHandler, %function
 997              	HAL_RTCEx_TamperTimeStampIRQHandler:
 998              	.LFB130:
 501:../STM32Cube_FW_F4_V1.4.0/Drivers/STM32F4xx_HAL_Driver/Src/stm32f4xx_hal_rtc_ex.c ****   if(__HAL_RTC_TIMESTAMP_GET_IT(hrtc, RTC_IT_TS))
 999              		.loc 1 501 0
 1000              		.cfi_startproc
 1001              		@ args = 0, pretend = 0, frame = 0
 1002              		@ frame_needed = 0, uses_anonymous_args = 0
 1003              	.LVL77:
 502:../STM32Cube_FW_F4_V1.4.0/Drivers/STM32F4xx_HAL_Driver/Src/stm32f4xx_hal_rtc_ex.c ****   {
 1004              		.loc 1 502 0
 1005 0000 0368     		ldr	r3, [r0]	@ D.8324, hrtc_5(D)->Instance
 1006 0002 DA68     		ldr	r2, [r3, #12]	@ D.8325, _6->ISR
 1007 0004 1205     		lsls	r2, r2, #20	@, D.8325,
 501:../STM32Cube_FW_F4_V1.4.0/Drivers/STM32F4xx_HAL_Driver/Src/stm32f4xx_hal_rtc_ex.c ****   if(__HAL_RTC_TIMESTAMP_GET_IT(hrtc, RTC_IT_TS))
 1008              		.loc 1 501 0
 1009 0006 10B5     		push	{r4, lr}	@
 1010              		.cfi_def_cfa_offset 8
 1011              		.cfi_offset 4, -8
 1012              		.cfi_offset 14, -4
 501:../STM32Cube_FW_F4_V1.4.0/Drivers/STM32F4xx_HAL_Driver/Src/stm32f4xx_hal_rtc_ex.c ****   if(__HAL_RTC_TIMESTAMP_GET_IT(hrtc, RTC_IT_TS))
 1013              		.loc 1 501 0
 1014 0008 0446     		mov	r4, r0	@ hrtc, hrtc
 502:../STM32Cube_FW_F4_V1.4.0/Drivers/STM32F4xx_HAL_Driver/Src/stm32f4xx_hal_rtc_ex.c ****   {
 1015              		.loc 1 502 0
 1016 000a 0AD5     		bpl	.L131	@,
 505:../STM32Cube_FW_F4_V1.4.0/Drivers/STM32F4xx_HAL_Driver/Src/stm32f4xx_hal_rtc_ex.c ****     {
 1017              		.loc 1 505 0
 1018 000c 9B68     		ldr	r3, [r3, #8]	@ D.8325, _6->CR
 1019 000e 1B04     		lsls	r3, r3, #16	@, D.8325,
 1020 0010 07D5     		bpl	.L131	@,
 508:../STM32Cube_FW_F4_V1.4.0/Drivers/STM32F4xx_HAL_Driver/Src/stm32f4xx_hal_rtc_ex.c ****   
 1021              		.loc 1 508 0
 1022 0012 FFF7FEFF 		bl	HAL_RTCEx_TimeStampEventCallback	@
 1023              	.LVL78:
 511:../STM32Cube_FW_F4_V1.4.0/Drivers/STM32F4xx_HAL_Driver/Src/stm32f4xx_hal_rtc_ex.c ****     }
 1024              		.loc 1 511 0
 1025 0016 2268     		ldr	r2, [r4]	@ D.8324, hrtc_5(D)->Instance
 1026 0018 D368     		ldr	r3, [r2, #12]	@ D.8325, _12->ISR
 1027 001a DBB2     		uxtb	r3, r3	@ D.8325, D.8325
 1028 001c 63F40863 		orn	r3, r3, #2176	@ D.8325, D.8325,
 1029 0020 D360     		str	r3, [r2, #12]	@ D.8325, _12->ISR
 1030              	.L131:
 516:../STM32Cube_FW_F4_V1.4.0/Drivers/STM32F4xx_HAL_Driver/Src/stm32f4xx_hal_rtc_ex.c ****   {
 1031              		.loc 1 516 0
ARM GAS  C:\cygwin\tmp\ccim5MRL.s 			page 30


 1032 0022 2368     		ldr	r3, [r4]	@ D.8324, hrtc_5(D)->Instance
 1033 0024 DA68     		ldr	r2, [r3, #12]	@ D.8325, _17->ISR
 1034 0026 9004     		lsls	r0, r2, #18	@, D.8325,
 1035 0028 0BD5     		bpl	.L132	@,
 519:../STM32Cube_FW_F4_V1.4.0/Drivers/STM32F4xx_HAL_Driver/Src/stm32f4xx_hal_rtc_ex.c ****     {
 1036              		.loc 1 519 0
 1037 002a 1B6C     		ldr	r3, [r3, #64]	@ D.8325, _17->TAFCR
 1038 002c 5907     		lsls	r1, r3, #29	@, D.8325,
 1039 002e 08D5     		bpl	.L132	@,
 522:../STM32Cube_FW_F4_V1.4.0/Drivers/STM32F4xx_HAL_Driver/Src/stm32f4xx_hal_rtc_ex.c ****   
 1040              		.loc 1 522 0
 1041 0030 2046     		mov	r0, r4	@, hrtc
 1042 0032 FFF7FEFF 		bl	HAL_RTCEx_Tamper1EventCallback	@
 1043              	.LVL79:
 525:../STM32Cube_FW_F4_V1.4.0/Drivers/STM32F4xx_HAL_Driver/Src/stm32f4xx_hal_rtc_ex.c ****     }
 1044              		.loc 1 525 0
 1045 0036 2268     		ldr	r2, [r4]	@ D.8324, hrtc_5(D)->Instance
 1046 0038 D368     		ldr	r3, [r2, #12]	@ D.8325, _23->ISR
 1047 003a DBB2     		uxtb	r3, r3	@ D.8325, D.8325
 1048 003c 63F40253 		orn	r3, r3, #8320	@ D.8325, D.8325,
 1049 0040 D360     		str	r3, [r2, #12]	@ D.8325, _23->ISR
 1050              	.L132:
 530:../STM32Cube_FW_F4_V1.4.0/Drivers/STM32F4xx_HAL_Driver/Src/stm32f4xx_hal_rtc_ex.c ****   {
 1051              		.loc 1 530 0
 1052 0042 2368     		ldr	r3, [r4]	@ D.8324, hrtc_5(D)->Instance
 1053 0044 DA68     		ldr	r2, [r3, #12]	@ D.8325, _28->ISR
 1054 0046 5204     		lsls	r2, r2, #17	@, D.8325,
 1055 0048 0BD5     		bpl	.L133	@,
 533:../STM32Cube_FW_F4_V1.4.0/Drivers/STM32F4xx_HAL_Driver/Src/stm32f4xx_hal_rtc_ex.c ****     {
 1056              		.loc 1 533 0
 1057 004a 1B6C     		ldr	r3, [r3, #64]	@ D.8325, _28->TAFCR
 1058 004c 5B07     		lsls	r3, r3, #29	@, D.8325,
 1059 004e 08D5     		bpl	.L133	@,
 536:../STM32Cube_FW_F4_V1.4.0/Drivers/STM32F4xx_HAL_Driver/Src/stm32f4xx_hal_rtc_ex.c ****   
 1060              		.loc 1 536 0
 1061 0050 2046     		mov	r0, r4	@, hrtc
 1062 0052 FFF7FEFF 		bl	HAL_RTCEx_Tamper2EventCallback	@
 1063              	.LVL80:
 539:../STM32Cube_FW_F4_V1.4.0/Drivers/STM32F4xx_HAL_Driver/Src/stm32f4xx_hal_rtc_ex.c ****     }
 1064              		.loc 1 539 0
 1065 0056 2268     		ldr	r2, [r4]	@ D.8324, hrtc_5(D)->Instance
 1066 0058 D368     		ldr	r3, [r2, #12]	@ D.8325, _34->ISR
 1067 005a DBB2     		uxtb	r3, r3	@ D.8325, D.8325
 1068 005c 63F48143 		orn	r3, r3, #16512	@ D.8325, D.8325,
 1069 0060 D360     		str	r3, [r2, #12]	@ D.8325, _34->ISR
 1070              	.L133:
 543:../STM32Cube_FW_F4_V1.4.0/Drivers/STM32F4xx_HAL_Driver/Src/stm32f4xx_hal_rtc_ex.c ****   
 1071              		.loc 1 543 0
 1072 0062 034B     		ldr	r3, .L152	@ tmp147,
 1073 0064 4FF40012 		mov	r2, #2097152	@ tmp148,
 1074 0068 5A61     		str	r2, [r3, #20]	@ tmp148, MEM[(struct EXTI_TypeDef *)1073822720B].PR
 546:../STM32Cube_FW_F4_V1.4.0/Drivers/STM32F4xx_HAL_Driver/Src/stm32f4xx_hal_rtc_ex.c **** }
 1075              		.loc 1 546 0
 1076 006a 0123     		movs	r3, #1	@ tmp149,
 1077 006c 6377     		strb	r3, [r4, #29]	@ tmp149, hrtc_5(D)->State
 1078 006e 10BD     		pop	{r4, pc}	@
 1079              	.LVL81:
ARM GAS  C:\cygwin\tmp\ccim5MRL.s 			page 31


 1080              	.L153:
 1081              		.align	2
 1082              	.L152:
 1083 0070 003C0140 		.word	1073822720
 1084              		.cfi_endproc
 1085              	.LFE130:
 1086              		.size	HAL_RTCEx_TamperTimeStampIRQHandler, .-HAL_RTCEx_TamperTimeStampIRQHandler
 1087              		.section	.text.HAL_RTCEx_PollForTimeStampEvent,"ax",%progbits
 1088              		.align	1
 1089              		.global	HAL_RTCEx_PollForTimeStampEvent
 1090              		.thumb
 1091              		.thumb_func
 1092              		.type	HAL_RTCEx_PollForTimeStampEvent, %function
 1093              	HAL_RTCEx_PollForTimeStampEvent:
 1094              	.LFB134:
 583:../STM32Cube_FW_F4_V1.4.0/Drivers/STM32F4xx_HAL_Driver/Src/stm32f4xx_hal_rtc_ex.c ****   /* NOTE : This function Should not be modified, when the callback is needed,
 584:../STM32Cube_FW_F4_V1.4.0/Drivers/STM32F4xx_HAL_Driver/Src/stm32f4xx_hal_rtc_ex.c ****             the HAL_RTC_Tamper2EventCallback could be implemented in the user file
 585:../STM32Cube_FW_F4_V1.4.0/Drivers/STM32F4xx_HAL_Driver/Src/stm32f4xx_hal_rtc_ex.c ****    */
 586:../STM32Cube_FW_F4_V1.4.0/Drivers/STM32F4xx_HAL_Driver/Src/stm32f4xx_hal_rtc_ex.c **** }
 587:../STM32Cube_FW_F4_V1.4.0/Drivers/STM32F4xx_HAL_Driver/Src/stm32f4xx_hal_rtc_ex.c **** 
 588:../STM32Cube_FW_F4_V1.4.0/Drivers/STM32F4xx_HAL_Driver/Src/stm32f4xx_hal_rtc_ex.c **** /**
 589:../STM32Cube_FW_F4_V1.4.0/Drivers/STM32F4xx_HAL_Driver/Src/stm32f4xx_hal_rtc_ex.c ****   * @brief  This function handles TimeStamp polling request.
 590:../STM32Cube_FW_F4_V1.4.0/Drivers/STM32F4xx_HAL_Driver/Src/stm32f4xx_hal_rtc_ex.c ****   * @param  hrtc: pointer to a RTC_HandleTypeDef structure that contains
 591:../STM32Cube_FW_F4_V1.4.0/Drivers/STM32F4xx_HAL_Driver/Src/stm32f4xx_hal_rtc_ex.c ****   *                the configuration information for RTC.
 592:../STM32Cube_FW_F4_V1.4.0/Drivers/STM32F4xx_HAL_Driver/Src/stm32f4xx_hal_rtc_ex.c ****   * @param  Timeout: Timeout duration
 593:../STM32Cube_FW_F4_V1.4.0/Drivers/STM32F4xx_HAL_Driver/Src/stm32f4xx_hal_rtc_ex.c ****   * @retval HAL status
 594:../STM32Cube_FW_F4_V1.4.0/Drivers/STM32F4xx_HAL_Driver/Src/stm32f4xx_hal_rtc_ex.c ****   */
 595:../STM32Cube_FW_F4_V1.4.0/Drivers/STM32F4xx_HAL_Driver/Src/stm32f4xx_hal_rtc_ex.c **** HAL_StatusTypeDef HAL_RTCEx_PollForTimeStampEvent(RTC_HandleTypeDef *hrtc, uint32_t Timeout)
 596:../STM32Cube_FW_F4_V1.4.0/Drivers/STM32F4xx_HAL_Driver/Src/stm32f4xx_hal_rtc_ex.c **** { 
 1095              		.loc 1 596 0
 1096              		.cfi_startproc
 1097              		@ args = 0, pretend = 0, frame = 0
 1098              		@ frame_needed = 0, uses_anonymous_args = 0
 1099              	.LVL82:
 1100 0000 70B5     		push	{r4, r5, r6, lr}	@
 1101              		.cfi_def_cfa_offset 16
 1102              		.cfi_offset 4, -16
 1103              		.cfi_offset 5, -12
 1104              		.cfi_offset 6, -8
 1105              		.cfi_offset 14, -4
 1106              		.loc 1 596 0
 1107 0002 0446     		mov	r4, r0	@ hrtc, hrtc
 1108 0004 0D46     		mov	r5, r1	@ Timeout, Timeout
 597:../STM32Cube_FW_F4_V1.4.0/Drivers/STM32F4xx_HAL_Driver/Src/stm32f4xx_hal_rtc_ex.c ****   uint32_t tickstart = 0; 
 598:../STM32Cube_FW_F4_V1.4.0/Drivers/STM32F4xx_HAL_Driver/Src/stm32f4xx_hal_rtc_ex.c **** 
 599:../STM32Cube_FW_F4_V1.4.0/Drivers/STM32F4xx_HAL_Driver/Src/stm32f4xx_hal_rtc_ex.c ****   /* Get tick */
 600:../STM32Cube_FW_F4_V1.4.0/Drivers/STM32F4xx_HAL_Driver/Src/stm32f4xx_hal_rtc_ex.c ****   tickstart = HAL_GetTick();
 1109              		.loc 1 600 0
 1110 0006 FFF7FEFF 		bl	HAL_GetTick	@
 1111              	.LVL83:
 1112 000a 0646     		mov	r6, r0	@ tickstart,
 1113              	.LVL84:
 1114              	.L155:
 601:../STM32Cube_FW_F4_V1.4.0/Drivers/STM32F4xx_HAL_Driver/Src/stm32f4xx_hal_rtc_ex.c **** 
 602:../STM32Cube_FW_F4_V1.4.0/Drivers/STM32F4xx_HAL_Driver/Src/stm32f4xx_hal_rtc_ex.c ****   while(__HAL_RTC_TIMESTAMP_GET_FLAG(hrtc, RTC_FLAG_TSF) == RESET)
 1115              		.loc 1 602 0
 1116 000c 2268     		ldr	r2, [r4]	@ D.8329, hrtc_8(D)->Instance
ARM GAS  C:\cygwin\tmp\ccim5MRL.s 			page 32


 1117              	.L158:
 1118 000e D368     		ldr	r3, [r2, #12]	@ D.8330, _9->ISR
 1119 0010 1B05     		lsls	r3, r3, #20	@, D.8330,
 1120 0012 17D4     		bmi	.L164	@,
 603:../STM32Cube_FW_F4_V1.4.0/Drivers/STM32F4xx_HAL_Driver/Src/stm32f4xx_hal_rtc_ex.c ****   {
 604:../STM32Cube_FW_F4_V1.4.0/Drivers/STM32F4xx_HAL_Driver/Src/stm32f4xx_hal_rtc_ex.c ****     if(__HAL_RTC_TIMESTAMP_GET_FLAG(hrtc, RTC_FLAG_TSOVF) != RESET)
 1121              		.loc 1 604 0
 1122 0014 D368     		ldr	r3, [r2, #12]	@ D.8330, _9->ISR
 1123 0016 D804     		lsls	r0, r3, #19	@, D.8330,
 1124 0018 08D5     		bpl	.L156	@,
 605:../STM32Cube_FW_F4_V1.4.0/Drivers/STM32F4xx_HAL_Driver/Src/stm32f4xx_hal_rtc_ex.c ****     {
 606:../STM32Cube_FW_F4_V1.4.0/Drivers/STM32F4xx_HAL_Driver/Src/stm32f4xx_hal_rtc_ex.c ****       /* Clear the TIMESTAMP Overrun Flag */
 607:../STM32Cube_FW_F4_V1.4.0/Drivers/STM32F4xx_HAL_Driver/Src/stm32f4xx_hal_rtc_ex.c ****       __HAL_RTC_TIMESTAMP_CLEAR_FLAG(hrtc, RTC_FLAG_TSOVF);
 1125              		.loc 1 607 0
 1126 001a D368     		ldr	r3, [r2, #12]	@ D.8330, _3->ISR
 1127 001c DBB2     		uxtb	r3, r3	@ D.8330, D.8330
 1128 001e 63F48453 		orn	r3, r3, #4224	@ D.8330, D.8330,
 1129 0022 D360     		str	r3, [r2, #12]	@ D.8330, _3->ISR
 608:../STM32Cube_FW_F4_V1.4.0/Drivers/STM32F4xx_HAL_Driver/Src/stm32f4xx_hal_rtc_ex.c ****       
 609:../STM32Cube_FW_F4_V1.4.0/Drivers/STM32F4xx_HAL_Driver/Src/stm32f4xx_hal_rtc_ex.c ****       /* Change TIMESTAMP state */
 610:../STM32Cube_FW_F4_V1.4.0/Drivers/STM32F4xx_HAL_Driver/Src/stm32f4xx_hal_rtc_ex.c ****       hrtc->State = HAL_RTC_STATE_ERROR; 
 1130              		.loc 1 610 0
 1131 0024 0423     		movs	r3, #4	@ tmp127,
 1132 0026 6377     		strb	r3, [r4, #29]	@ tmp127, hrtc_8(D)->State
 611:../STM32Cube_FW_F4_V1.4.0/Drivers/STM32F4xx_HAL_Driver/Src/stm32f4xx_hal_rtc_ex.c ****       
 612:../STM32Cube_FW_F4_V1.4.0/Drivers/STM32F4xx_HAL_Driver/Src/stm32f4xx_hal_rtc_ex.c ****       return HAL_ERROR; 
 1133              		.loc 1 612 0
 1134 0028 0120     		movs	r0, #1	@ D.8328,
 1135 002a 70BD     		pop	{r4, r5, r6, pc}	@
 1136              	.LVL85:
 1137              	.L156:
 613:../STM32Cube_FW_F4_V1.4.0/Drivers/STM32F4xx_HAL_Driver/Src/stm32f4xx_hal_rtc_ex.c ****     }
 614:../STM32Cube_FW_F4_V1.4.0/Drivers/STM32F4xx_HAL_Driver/Src/stm32f4xx_hal_rtc_ex.c ****     
 615:../STM32Cube_FW_F4_V1.4.0/Drivers/STM32F4xx_HAL_Driver/Src/stm32f4xx_hal_rtc_ex.c ****     if(Timeout != HAL_MAX_DELAY)
 1138              		.loc 1 615 0
 1139 002c 691C     		adds	r1, r5, #1	@, Timeout,
 1140 002e EED0     		beq	.L158	@,
 616:../STM32Cube_FW_F4_V1.4.0/Drivers/STM32F4xx_HAL_Driver/Src/stm32f4xx_hal_rtc_ex.c ****     {
 617:../STM32Cube_FW_F4_V1.4.0/Drivers/STM32F4xx_HAL_Driver/Src/stm32f4xx_hal_rtc_ex.c ****       if((Timeout == 0)||((HAL_GetTick() - tickstart ) > Timeout))
 1141              		.loc 1 617 0
 1142 0030 15B9     		cbnz	r5, .L159	@ Timeout,
 1143              	.L160:
 618:../STM32Cube_FW_F4_V1.4.0/Drivers/STM32F4xx_HAL_Driver/Src/stm32f4xx_hal_rtc_ex.c ****       {
 619:../STM32Cube_FW_F4_V1.4.0/Drivers/STM32F4xx_HAL_Driver/Src/stm32f4xx_hal_rtc_ex.c ****         hrtc->State = HAL_RTC_STATE_TIMEOUT;
 1144              		.loc 1 619 0
 1145 0032 0320     		movs	r0, #3	@ tmp129,
 1146 0034 6077     		strb	r0, [r4, #29]	@ tmp129, hrtc_8(D)->State
 620:../STM32Cube_FW_F4_V1.4.0/Drivers/STM32F4xx_HAL_Driver/Src/stm32f4xx_hal_rtc_ex.c ****         return HAL_TIMEOUT;
 1147              		.loc 1 620 0
 1148 0036 70BD     		pop	{r4, r5, r6, pc}	@
 1149              	.LVL86:
 1150              	.L159:
 617:../STM32Cube_FW_F4_V1.4.0/Drivers/STM32F4xx_HAL_Driver/Src/stm32f4xx_hal_rtc_ex.c ****       {
 1151              		.loc 1 617 0 discriminator 1
 1152 0038 FFF7FEFF 		bl	HAL_GetTick	@
 1153              	.LVL87:
 1154 003c 801B     		subs	r0, r0, r6	@ D.8330,, tickstart
ARM GAS  C:\cygwin\tmp\ccim5MRL.s 			page 33


 1155 003e A842     		cmp	r0, r5	@ D.8330, Timeout
 1156 0040 E4D9     		bls	.L155	@,
 1157 0042 F6E7     		b	.L160	@
 1158              	.L164:
 621:../STM32Cube_FW_F4_V1.4.0/Drivers/STM32F4xx_HAL_Driver/Src/stm32f4xx_hal_rtc_ex.c ****       }
 622:../STM32Cube_FW_F4_V1.4.0/Drivers/STM32F4xx_HAL_Driver/Src/stm32f4xx_hal_rtc_ex.c ****     }
 623:../STM32Cube_FW_F4_V1.4.0/Drivers/STM32F4xx_HAL_Driver/Src/stm32f4xx_hal_rtc_ex.c ****   }
 624:../STM32Cube_FW_F4_V1.4.0/Drivers/STM32F4xx_HAL_Driver/Src/stm32f4xx_hal_rtc_ex.c ****   
 625:../STM32Cube_FW_F4_V1.4.0/Drivers/STM32F4xx_HAL_Driver/Src/stm32f4xx_hal_rtc_ex.c ****   /* Change RTC state */
 626:../STM32Cube_FW_F4_V1.4.0/Drivers/STM32F4xx_HAL_Driver/Src/stm32f4xx_hal_rtc_ex.c ****   hrtc->State = HAL_RTC_STATE_READY; 
 1159              		.loc 1 626 0
 1160 0044 0123     		movs	r3, #1	@ tmp133,
 1161 0046 6377     		strb	r3, [r4, #29]	@ tmp133, hrtc_8(D)->State
 627:../STM32Cube_FW_F4_V1.4.0/Drivers/STM32F4xx_HAL_Driver/Src/stm32f4xx_hal_rtc_ex.c ****   
 628:../STM32Cube_FW_F4_V1.4.0/Drivers/STM32F4xx_HAL_Driver/Src/stm32f4xx_hal_rtc_ex.c ****   return HAL_OK; 
 1162              		.loc 1 628 0
 1163 0048 0020     		movs	r0, #0	@ D.8328,
 629:../STM32Cube_FW_F4_V1.4.0/Drivers/STM32F4xx_HAL_Driver/Src/stm32f4xx_hal_rtc_ex.c **** }
 1164              		.loc 1 629 0
 1165 004a 70BD     		pop	{r4, r5, r6, pc}	@
 1166              		.cfi_endproc
 1167              	.LFE134:
 1168              		.size	HAL_RTCEx_PollForTimeStampEvent, .-HAL_RTCEx_PollForTimeStampEvent
 1169              		.section	.text.HAL_RTCEx_PollForTamper1Event,"ax",%progbits
 1170              		.align	1
 1171              		.global	HAL_RTCEx_PollForTamper1Event
 1172              		.thumb
 1173              		.thumb_func
 1174              		.type	HAL_RTCEx_PollForTamper1Event, %function
 1175              	HAL_RTCEx_PollForTamper1Event:
 1176              	.LFB135:
 630:../STM32Cube_FW_F4_V1.4.0/Drivers/STM32F4xx_HAL_Driver/Src/stm32f4xx_hal_rtc_ex.c ****   
 631:../STM32Cube_FW_F4_V1.4.0/Drivers/STM32F4xx_HAL_Driver/Src/stm32f4xx_hal_rtc_ex.c **** /**
 632:../STM32Cube_FW_F4_V1.4.0/Drivers/STM32F4xx_HAL_Driver/Src/stm32f4xx_hal_rtc_ex.c ****   * @brief  This function handles Tamper1 Polling.
 633:../STM32Cube_FW_F4_V1.4.0/Drivers/STM32F4xx_HAL_Driver/Src/stm32f4xx_hal_rtc_ex.c ****   * @param  hrtc: pointer to a RTC_HandleTypeDef structure that contains
 634:../STM32Cube_FW_F4_V1.4.0/Drivers/STM32F4xx_HAL_Driver/Src/stm32f4xx_hal_rtc_ex.c ****   *                the configuration information for RTC.
 635:../STM32Cube_FW_F4_V1.4.0/Drivers/STM32F4xx_HAL_Driver/Src/stm32f4xx_hal_rtc_ex.c ****   * @param  Timeout: Timeout duration
 636:../STM32Cube_FW_F4_V1.4.0/Drivers/STM32F4xx_HAL_Driver/Src/stm32f4xx_hal_rtc_ex.c ****   * @retval HAL status
 637:../STM32Cube_FW_F4_V1.4.0/Drivers/STM32F4xx_HAL_Driver/Src/stm32f4xx_hal_rtc_ex.c ****   */
 638:../STM32Cube_FW_F4_V1.4.0/Drivers/STM32F4xx_HAL_Driver/Src/stm32f4xx_hal_rtc_ex.c **** HAL_StatusTypeDef HAL_RTCEx_PollForTamper1Event(RTC_HandleTypeDef *hrtc, uint32_t Timeout)
 639:../STM32Cube_FW_F4_V1.4.0/Drivers/STM32F4xx_HAL_Driver/Src/stm32f4xx_hal_rtc_ex.c **** {  
 1177              		.loc 1 639 0
 1178              		.cfi_startproc
 1179              		@ args = 0, pretend = 0, frame = 0
 1180              		@ frame_needed = 0, uses_anonymous_args = 0
 1181              	.LVL88:
 1182 0000 70B5     		push	{r4, r5, r6, lr}	@
 1183              		.cfi_def_cfa_offset 16
 1184              		.cfi_offset 4, -16
 1185              		.cfi_offset 5, -12
 1186              		.cfi_offset 6, -8
 1187              		.cfi_offset 14, -4
 1188              		.loc 1 639 0
 1189 0002 0446     		mov	r4, r0	@ hrtc, hrtc
 1190 0004 0D46     		mov	r5, r1	@ Timeout, Timeout
 640:../STM32Cube_FW_F4_V1.4.0/Drivers/STM32F4xx_HAL_Driver/Src/stm32f4xx_hal_rtc_ex.c ****   uint32_t tickstart = 0; 
 641:../STM32Cube_FW_F4_V1.4.0/Drivers/STM32F4xx_HAL_Driver/Src/stm32f4xx_hal_rtc_ex.c **** 
ARM GAS  C:\cygwin\tmp\ccim5MRL.s 			page 34


 642:../STM32Cube_FW_F4_V1.4.0/Drivers/STM32F4xx_HAL_Driver/Src/stm32f4xx_hal_rtc_ex.c ****   /* Get tick */
 643:../STM32Cube_FW_F4_V1.4.0/Drivers/STM32F4xx_HAL_Driver/Src/stm32f4xx_hal_rtc_ex.c ****   tickstart = HAL_GetTick();
 1191              		.loc 1 643 0
 1192 0006 FFF7FEFF 		bl	HAL_GetTick	@
 1193              	.LVL89:
 1194 000a 0646     		mov	r6, r0	@ tickstart,
 1195              	.LVL90:
 1196              	.L166:
 644:../STM32Cube_FW_F4_V1.4.0/Drivers/STM32F4xx_HAL_Driver/Src/stm32f4xx_hal_rtc_ex.c ****   
 645:../STM32Cube_FW_F4_V1.4.0/Drivers/STM32F4xx_HAL_Driver/Src/stm32f4xx_hal_rtc_ex.c ****   /* Get the status of the Interrupt */
 646:../STM32Cube_FW_F4_V1.4.0/Drivers/STM32F4xx_HAL_Driver/Src/stm32f4xx_hal_rtc_ex.c ****   while(__HAL_RTC_TAMPER_GET_FLAG(hrtc, RTC_FLAG_TAMP1F)== RESET)
 1197              		.loc 1 646 0
 1198 000c 2268     		ldr	r2, [r4]	@ D.8334, hrtc_8(D)->Instance
 1199              	.L167:
 1200 000e D368     		ldr	r3, [r2, #12]	@ D.8335, _9->ISR
 1201 0010 9B04     		lsls	r3, r3, #18	@, D.8335,
 1202 0012 0BD4     		bmi	.L174	@,
 647:../STM32Cube_FW_F4_V1.4.0/Drivers/STM32F4xx_HAL_Driver/Src/stm32f4xx_hal_rtc_ex.c ****   {
 648:../STM32Cube_FW_F4_V1.4.0/Drivers/STM32F4xx_HAL_Driver/Src/stm32f4xx_hal_rtc_ex.c ****     if(Timeout != HAL_MAX_DELAY)
 1203              		.loc 1 648 0
 1204 0014 691C     		adds	r1, r5, #1	@, Timeout,
 1205 0016 FAD0     		beq	.L167	@,
 649:../STM32Cube_FW_F4_V1.4.0/Drivers/STM32F4xx_HAL_Driver/Src/stm32f4xx_hal_rtc_ex.c ****     {
 650:../STM32Cube_FW_F4_V1.4.0/Drivers/STM32F4xx_HAL_Driver/Src/stm32f4xx_hal_rtc_ex.c ****       if((Timeout == 0)||((HAL_GetTick() - tickstart ) > Timeout))
 1206              		.loc 1 650 0
 1207 0018 15B9     		cbnz	r5, .L168	@ Timeout,
 1208              	.L170:
 651:../STM32Cube_FW_F4_V1.4.0/Drivers/STM32F4xx_HAL_Driver/Src/stm32f4xx_hal_rtc_ex.c ****       {
 652:../STM32Cube_FW_F4_V1.4.0/Drivers/STM32F4xx_HAL_Driver/Src/stm32f4xx_hal_rtc_ex.c ****         hrtc->State = HAL_RTC_STATE_TIMEOUT;
 1209              		.loc 1 652 0
 1210 001a 0320     		movs	r0, #3	@ tmp123,
 1211 001c 6077     		strb	r0, [r4, #29]	@ tmp123, hrtc_8(D)->State
 653:../STM32Cube_FW_F4_V1.4.0/Drivers/STM32F4xx_HAL_Driver/Src/stm32f4xx_hal_rtc_ex.c ****         return HAL_TIMEOUT;
 1212              		.loc 1 653 0
 1213 001e 70BD     		pop	{r4, r5, r6, pc}	@
 1214              	.LVL91:
 1215              	.L168:
 650:../STM32Cube_FW_F4_V1.4.0/Drivers/STM32F4xx_HAL_Driver/Src/stm32f4xx_hal_rtc_ex.c ****       {
 1216              		.loc 1 650 0 discriminator 1
 1217 0020 FFF7FEFF 		bl	HAL_GetTick	@
 1218              	.LVL92:
 1219 0024 801B     		subs	r0, r0, r6	@ D.8335,, tickstart
 1220 0026 A842     		cmp	r0, r5	@ D.8335, Timeout
 1221 0028 F0D9     		bls	.L166	@,
 1222 002a F6E7     		b	.L170	@
 1223              	.L174:
 654:../STM32Cube_FW_F4_V1.4.0/Drivers/STM32F4xx_HAL_Driver/Src/stm32f4xx_hal_rtc_ex.c ****       }
 655:../STM32Cube_FW_F4_V1.4.0/Drivers/STM32F4xx_HAL_Driver/Src/stm32f4xx_hal_rtc_ex.c ****     }
 656:../STM32Cube_FW_F4_V1.4.0/Drivers/STM32F4xx_HAL_Driver/Src/stm32f4xx_hal_rtc_ex.c ****   }
 657:../STM32Cube_FW_F4_V1.4.0/Drivers/STM32F4xx_HAL_Driver/Src/stm32f4xx_hal_rtc_ex.c ****   
 658:../STM32Cube_FW_F4_V1.4.0/Drivers/STM32F4xx_HAL_Driver/Src/stm32f4xx_hal_rtc_ex.c ****   /* Clear the Tamper Flag */
 659:../STM32Cube_FW_F4_V1.4.0/Drivers/STM32F4xx_HAL_Driver/Src/stm32f4xx_hal_rtc_ex.c ****   __HAL_RTC_TAMPER_CLEAR_FLAG(hrtc,RTC_FLAG_TAMP1F);
 1224              		.loc 1 659 0
 1225 002c D368     		ldr	r3, [r2, #12]	@ D.8335, _3->ISR
 1226 002e DBB2     		uxtb	r3, r3	@ D.8335, D.8335
 1227 0030 63F40253 		orn	r3, r3, #8320	@ D.8335, D.8335,
 1228 0034 D360     		str	r3, [r2, #12]	@ D.8335, _3->ISR
ARM GAS  C:\cygwin\tmp\ccim5MRL.s 			page 35


 660:../STM32Cube_FW_F4_V1.4.0/Drivers/STM32F4xx_HAL_Driver/Src/stm32f4xx_hal_rtc_ex.c ****   
 661:../STM32Cube_FW_F4_V1.4.0/Drivers/STM32F4xx_HAL_Driver/Src/stm32f4xx_hal_rtc_ex.c ****   /* Change RTC state */
 662:../STM32Cube_FW_F4_V1.4.0/Drivers/STM32F4xx_HAL_Driver/Src/stm32f4xx_hal_rtc_ex.c ****   hrtc->State = HAL_RTC_STATE_READY;
 1229              		.loc 1 662 0
 1230 0036 0123     		movs	r3, #1	@ tmp128,
 1231 0038 6377     		strb	r3, [r4, #29]	@ tmp128, hrtc_8(D)->State
 663:../STM32Cube_FW_F4_V1.4.0/Drivers/STM32F4xx_HAL_Driver/Src/stm32f4xx_hal_rtc_ex.c ****   
 664:../STM32Cube_FW_F4_V1.4.0/Drivers/STM32F4xx_HAL_Driver/Src/stm32f4xx_hal_rtc_ex.c ****   return HAL_OK; 
 1232              		.loc 1 664 0
 1233 003a 0020     		movs	r0, #0	@ D.8333,
 665:../STM32Cube_FW_F4_V1.4.0/Drivers/STM32F4xx_HAL_Driver/Src/stm32f4xx_hal_rtc_ex.c **** }
 1234              		.loc 1 665 0
 1235 003c 70BD     		pop	{r4, r5, r6, pc}	@
 1236              		.cfi_endproc
 1237              	.LFE135:
 1238              		.size	HAL_RTCEx_PollForTamper1Event, .-HAL_RTCEx_PollForTamper1Event
 1239              		.section	.text.HAL_RTCEx_PollForTamper2Event,"ax",%progbits
 1240              		.align	1
 1241              		.global	HAL_RTCEx_PollForTamper2Event
 1242              		.thumb
 1243              		.thumb_func
 1244              		.type	HAL_RTCEx_PollForTamper2Event, %function
 1245              	HAL_RTCEx_PollForTamper2Event:
 1246              	.LFB136:
 666:../STM32Cube_FW_F4_V1.4.0/Drivers/STM32F4xx_HAL_Driver/Src/stm32f4xx_hal_rtc_ex.c **** 
 667:../STM32Cube_FW_F4_V1.4.0/Drivers/STM32F4xx_HAL_Driver/Src/stm32f4xx_hal_rtc_ex.c **** /**
 668:../STM32Cube_FW_F4_V1.4.0/Drivers/STM32F4xx_HAL_Driver/Src/stm32f4xx_hal_rtc_ex.c ****   * @brief  This function handles Tamper2 Polling.
 669:../STM32Cube_FW_F4_V1.4.0/Drivers/STM32F4xx_HAL_Driver/Src/stm32f4xx_hal_rtc_ex.c ****   * @param  hrtc: pointer to a RTC_HandleTypeDef structure that contains
 670:../STM32Cube_FW_F4_V1.4.0/Drivers/STM32F4xx_HAL_Driver/Src/stm32f4xx_hal_rtc_ex.c ****   *                the configuration information for RTC.
 671:../STM32Cube_FW_F4_V1.4.0/Drivers/STM32F4xx_HAL_Driver/Src/stm32f4xx_hal_rtc_ex.c ****   * @param  Timeout: Timeout duration
 672:../STM32Cube_FW_F4_V1.4.0/Drivers/STM32F4xx_HAL_Driver/Src/stm32f4xx_hal_rtc_ex.c ****   * @retval HAL status
 673:../STM32Cube_FW_F4_V1.4.0/Drivers/STM32F4xx_HAL_Driver/Src/stm32f4xx_hal_rtc_ex.c ****   */
 674:../STM32Cube_FW_F4_V1.4.0/Drivers/STM32F4xx_HAL_Driver/Src/stm32f4xx_hal_rtc_ex.c **** HAL_StatusTypeDef HAL_RTCEx_PollForTamper2Event(RTC_HandleTypeDef *hrtc, uint32_t Timeout)
 675:../STM32Cube_FW_F4_V1.4.0/Drivers/STM32F4xx_HAL_Driver/Src/stm32f4xx_hal_rtc_ex.c **** {  
 1247              		.loc 1 675 0
 1248              		.cfi_startproc
 1249              		@ args = 0, pretend = 0, frame = 0
 1250              		@ frame_needed = 0, uses_anonymous_args = 0
 1251              	.LVL93:
 1252 0000 70B5     		push	{r4, r5, r6, lr}	@
 1253              		.cfi_def_cfa_offset 16
 1254              		.cfi_offset 4, -16
 1255              		.cfi_offset 5, -12
 1256              		.cfi_offset 6, -8
 1257              		.cfi_offset 14, -4
 1258              		.loc 1 675 0
 1259 0002 0446     		mov	r4, r0	@ hrtc, hrtc
 1260 0004 0D46     		mov	r5, r1	@ Timeout, Timeout
 676:../STM32Cube_FW_F4_V1.4.0/Drivers/STM32F4xx_HAL_Driver/Src/stm32f4xx_hal_rtc_ex.c ****   uint32_t tickstart = 0; 
 677:../STM32Cube_FW_F4_V1.4.0/Drivers/STM32F4xx_HAL_Driver/Src/stm32f4xx_hal_rtc_ex.c **** 
 678:../STM32Cube_FW_F4_V1.4.0/Drivers/STM32F4xx_HAL_Driver/Src/stm32f4xx_hal_rtc_ex.c ****   /* Get tick */
 679:../STM32Cube_FW_F4_V1.4.0/Drivers/STM32F4xx_HAL_Driver/Src/stm32f4xx_hal_rtc_ex.c ****   tickstart = HAL_GetTick();
 1261              		.loc 1 679 0
 1262 0006 FFF7FEFF 		bl	HAL_GetTick	@
 1263              	.LVL94:
 1264 000a 0646     		mov	r6, r0	@ tickstart,
 1265              	.LVL95:
ARM GAS  C:\cygwin\tmp\ccim5MRL.s 			page 36


 1266              	.L176:
 680:../STM32Cube_FW_F4_V1.4.0/Drivers/STM32F4xx_HAL_Driver/Src/stm32f4xx_hal_rtc_ex.c ****   
 681:../STM32Cube_FW_F4_V1.4.0/Drivers/STM32F4xx_HAL_Driver/Src/stm32f4xx_hal_rtc_ex.c ****   /* Get the status of the Interrupt */
 682:../STM32Cube_FW_F4_V1.4.0/Drivers/STM32F4xx_HAL_Driver/Src/stm32f4xx_hal_rtc_ex.c ****   while(__HAL_RTC_TAMPER_GET_FLAG(hrtc, RTC_FLAG_TAMP2F) == RESET)
 1267              		.loc 1 682 0
 1268 000c 2268     		ldr	r2, [r4]	@ D.8339, hrtc_8(D)->Instance
 1269              	.L177:
 1270 000e D368     		ldr	r3, [r2, #12]	@ D.8340, _9->ISR
 1271 0010 5B04     		lsls	r3, r3, #17	@, D.8340,
 1272 0012 0BD4     		bmi	.L184	@,
 683:../STM32Cube_FW_F4_V1.4.0/Drivers/STM32F4xx_HAL_Driver/Src/stm32f4xx_hal_rtc_ex.c ****   {
 684:../STM32Cube_FW_F4_V1.4.0/Drivers/STM32F4xx_HAL_Driver/Src/stm32f4xx_hal_rtc_ex.c ****     if(Timeout != HAL_MAX_DELAY)
 1273              		.loc 1 684 0
 1274 0014 691C     		adds	r1, r5, #1	@, Timeout,
 1275 0016 FAD0     		beq	.L177	@,
 685:../STM32Cube_FW_F4_V1.4.0/Drivers/STM32F4xx_HAL_Driver/Src/stm32f4xx_hal_rtc_ex.c ****     {
 686:../STM32Cube_FW_F4_V1.4.0/Drivers/STM32F4xx_HAL_Driver/Src/stm32f4xx_hal_rtc_ex.c ****       if((Timeout == 0)||((HAL_GetTick() - tickstart ) > Timeout))
 1276              		.loc 1 686 0
 1277 0018 15B9     		cbnz	r5, .L178	@ Timeout,
 1278              	.L180:
 687:../STM32Cube_FW_F4_V1.4.0/Drivers/STM32F4xx_HAL_Driver/Src/stm32f4xx_hal_rtc_ex.c ****       {
 688:../STM32Cube_FW_F4_V1.4.0/Drivers/STM32F4xx_HAL_Driver/Src/stm32f4xx_hal_rtc_ex.c ****         hrtc->State = HAL_RTC_STATE_TIMEOUT;
 1279              		.loc 1 688 0
 1280 001a 0320     		movs	r0, #3	@ tmp123,
 1281 001c 6077     		strb	r0, [r4, #29]	@ tmp123, hrtc_8(D)->State
 689:../STM32Cube_FW_F4_V1.4.0/Drivers/STM32F4xx_HAL_Driver/Src/stm32f4xx_hal_rtc_ex.c ****         return HAL_TIMEOUT;
 1282              		.loc 1 689 0
 1283 001e 70BD     		pop	{r4, r5, r6, pc}	@
 1284              	.LVL96:
 1285              	.L178:
 686:../STM32Cube_FW_F4_V1.4.0/Drivers/STM32F4xx_HAL_Driver/Src/stm32f4xx_hal_rtc_ex.c ****       {
 1286              		.loc 1 686 0 discriminator 1
 1287 0020 FFF7FEFF 		bl	HAL_GetTick	@
 1288              	.LVL97:
 1289 0024 801B     		subs	r0, r0, r6	@ D.8340,, tickstart
 1290 0026 A842     		cmp	r0, r5	@ D.8340, Timeout
 1291 0028 F0D9     		bls	.L176	@,
 1292 002a F6E7     		b	.L180	@
 1293              	.L184:
 690:../STM32Cube_FW_F4_V1.4.0/Drivers/STM32F4xx_HAL_Driver/Src/stm32f4xx_hal_rtc_ex.c ****       }
 691:../STM32Cube_FW_F4_V1.4.0/Drivers/STM32F4xx_HAL_Driver/Src/stm32f4xx_hal_rtc_ex.c ****     }
 692:../STM32Cube_FW_F4_V1.4.0/Drivers/STM32F4xx_HAL_Driver/Src/stm32f4xx_hal_rtc_ex.c ****   }
 693:../STM32Cube_FW_F4_V1.4.0/Drivers/STM32F4xx_HAL_Driver/Src/stm32f4xx_hal_rtc_ex.c ****   
 694:../STM32Cube_FW_F4_V1.4.0/Drivers/STM32F4xx_HAL_Driver/Src/stm32f4xx_hal_rtc_ex.c ****   /* Clear the Tamper Flag */
 695:../STM32Cube_FW_F4_V1.4.0/Drivers/STM32F4xx_HAL_Driver/Src/stm32f4xx_hal_rtc_ex.c ****   __HAL_RTC_TAMPER_CLEAR_FLAG(hrtc,RTC_FLAG_TAMP2F);
 1294              		.loc 1 695 0
 1295 002c D368     		ldr	r3, [r2, #12]	@ D.8340, _3->ISR
 1296 002e DBB2     		uxtb	r3, r3	@ D.8340, D.8340
 1297 0030 63F48143 		orn	r3, r3, #16512	@ D.8340, D.8340,
 1298 0034 D360     		str	r3, [r2, #12]	@ D.8340, _3->ISR
 696:../STM32Cube_FW_F4_V1.4.0/Drivers/STM32F4xx_HAL_Driver/Src/stm32f4xx_hal_rtc_ex.c ****   
 697:../STM32Cube_FW_F4_V1.4.0/Drivers/STM32F4xx_HAL_Driver/Src/stm32f4xx_hal_rtc_ex.c ****   /* Change RTC state */
 698:../STM32Cube_FW_F4_V1.4.0/Drivers/STM32F4xx_HAL_Driver/Src/stm32f4xx_hal_rtc_ex.c ****   hrtc->State = HAL_RTC_STATE_READY;
 1299              		.loc 1 698 0
 1300 0036 0123     		movs	r3, #1	@ tmp128,
 1301 0038 6377     		strb	r3, [r4, #29]	@ tmp128, hrtc_8(D)->State
 699:../STM32Cube_FW_F4_V1.4.0/Drivers/STM32F4xx_HAL_Driver/Src/stm32f4xx_hal_rtc_ex.c ****   
ARM GAS  C:\cygwin\tmp\ccim5MRL.s 			page 37


 700:../STM32Cube_FW_F4_V1.4.0/Drivers/STM32F4xx_HAL_Driver/Src/stm32f4xx_hal_rtc_ex.c ****   return HAL_OK;
 1302              		.loc 1 700 0
 1303 003a 0020     		movs	r0, #0	@ D.8338,
 701:../STM32Cube_FW_F4_V1.4.0/Drivers/STM32F4xx_HAL_Driver/Src/stm32f4xx_hal_rtc_ex.c **** }
 1304              		.loc 1 701 0
 1305 003c 70BD     		pop	{r4, r5, r6, pc}	@
 1306              		.cfi_endproc
 1307              	.LFE136:
 1308              		.size	HAL_RTCEx_PollForTamper2Event, .-HAL_RTCEx_PollForTamper2Event
 1309              		.section	.text.HAL_RTCEx_SetWakeUpTimer,"ax",%progbits
 1310              		.align	1
 1311              		.global	HAL_RTCEx_SetWakeUpTimer
 1312              		.thumb
 1313              		.thumb_func
 1314              		.type	HAL_RTCEx_SetWakeUpTimer, %function
 1315              	HAL_RTCEx_SetWakeUpTimer:
 1316              	.LFB137:
 702:../STM32Cube_FW_F4_V1.4.0/Drivers/STM32F4xx_HAL_Driver/Src/stm32f4xx_hal_rtc_ex.c **** 
 703:../STM32Cube_FW_F4_V1.4.0/Drivers/STM32F4xx_HAL_Driver/Src/stm32f4xx_hal_rtc_ex.c **** /**
 704:../STM32Cube_FW_F4_V1.4.0/Drivers/STM32F4xx_HAL_Driver/Src/stm32f4xx_hal_rtc_ex.c ****   * @}
 705:../STM32Cube_FW_F4_V1.4.0/Drivers/STM32F4xx_HAL_Driver/Src/stm32f4xx_hal_rtc_ex.c ****   */
 706:../STM32Cube_FW_F4_V1.4.0/Drivers/STM32F4xx_HAL_Driver/Src/stm32f4xx_hal_rtc_ex.c ****   
 707:../STM32Cube_FW_F4_V1.4.0/Drivers/STM32F4xx_HAL_Driver/Src/stm32f4xx_hal_rtc_ex.c **** /** @defgroup RTCEx_Exported_Functions_Group2 RTC Wake-up functions
 708:../STM32Cube_FW_F4_V1.4.0/Drivers/STM32F4xx_HAL_Driver/Src/stm32f4xx_hal_rtc_ex.c ****  *  @brief   RTC Wake-up functions
 709:../STM32Cube_FW_F4_V1.4.0/Drivers/STM32F4xx_HAL_Driver/Src/stm32f4xx_hal_rtc_ex.c ****  *
 710:../STM32Cube_FW_F4_V1.4.0/Drivers/STM32F4xx_HAL_Driver/Src/stm32f4xx_hal_rtc_ex.c **** @verbatim   
 711:../STM32Cube_FW_F4_V1.4.0/Drivers/STM32F4xx_HAL_Driver/Src/stm32f4xx_hal_rtc_ex.c ****  ===============================================================================
 712:../STM32Cube_FW_F4_V1.4.0/Drivers/STM32F4xx_HAL_Driver/Src/stm32f4xx_hal_rtc_ex.c ****                         ##### RTC Wake-up functions #####
 713:../STM32Cube_FW_F4_V1.4.0/Drivers/STM32F4xx_HAL_Driver/Src/stm32f4xx_hal_rtc_ex.c ****  ===============================================================================  
 714:../STM32Cube_FW_F4_V1.4.0/Drivers/STM32F4xx_HAL_Driver/Src/stm32f4xx_hal_rtc_ex.c ****  
 715:../STM32Cube_FW_F4_V1.4.0/Drivers/STM32F4xx_HAL_Driver/Src/stm32f4xx_hal_rtc_ex.c ****  [..] This section provides functions allowing to configure Wake-up feature
 716:../STM32Cube_FW_F4_V1.4.0/Drivers/STM32F4xx_HAL_Driver/Src/stm32f4xx_hal_rtc_ex.c **** 
 717:../STM32Cube_FW_F4_V1.4.0/Drivers/STM32F4xx_HAL_Driver/Src/stm32f4xx_hal_rtc_ex.c **** @endverbatim
 718:../STM32Cube_FW_F4_V1.4.0/Drivers/STM32F4xx_HAL_Driver/Src/stm32f4xx_hal_rtc_ex.c ****   * @{
 719:../STM32Cube_FW_F4_V1.4.0/Drivers/STM32F4xx_HAL_Driver/Src/stm32f4xx_hal_rtc_ex.c ****   */
 720:../STM32Cube_FW_F4_V1.4.0/Drivers/STM32F4xx_HAL_Driver/Src/stm32f4xx_hal_rtc_ex.c **** 
 721:../STM32Cube_FW_F4_V1.4.0/Drivers/STM32F4xx_HAL_Driver/Src/stm32f4xx_hal_rtc_ex.c **** /**
 722:../STM32Cube_FW_F4_V1.4.0/Drivers/STM32F4xx_HAL_Driver/Src/stm32f4xx_hal_rtc_ex.c ****   * @brief  Sets wake up timer. 
 723:../STM32Cube_FW_F4_V1.4.0/Drivers/STM32F4xx_HAL_Driver/Src/stm32f4xx_hal_rtc_ex.c ****   * @param  hrtc: pointer to a RTC_HandleTypeDef structure that contains
 724:../STM32Cube_FW_F4_V1.4.0/Drivers/STM32F4xx_HAL_Driver/Src/stm32f4xx_hal_rtc_ex.c ****   *                the configuration information for RTC.
 725:../STM32Cube_FW_F4_V1.4.0/Drivers/STM32F4xx_HAL_Driver/Src/stm32f4xx_hal_rtc_ex.c ****   * @param  WakeUpCounter: Wake up counter
 726:../STM32Cube_FW_F4_V1.4.0/Drivers/STM32F4xx_HAL_Driver/Src/stm32f4xx_hal_rtc_ex.c ****   * @param  WakeUpClock: Wake up clock  
 727:../STM32Cube_FW_F4_V1.4.0/Drivers/STM32F4xx_HAL_Driver/Src/stm32f4xx_hal_rtc_ex.c ****   * @retval HAL status
 728:../STM32Cube_FW_F4_V1.4.0/Drivers/STM32F4xx_HAL_Driver/Src/stm32f4xx_hal_rtc_ex.c ****   */
 729:../STM32Cube_FW_F4_V1.4.0/Drivers/STM32F4xx_HAL_Driver/Src/stm32f4xx_hal_rtc_ex.c **** HAL_StatusTypeDef HAL_RTCEx_SetWakeUpTimer(RTC_HandleTypeDef *hrtc, uint32_t WakeUpCounter, uint32_
 730:../STM32Cube_FW_F4_V1.4.0/Drivers/STM32F4xx_HAL_Driver/Src/stm32f4xx_hal_rtc_ex.c **** {
 1317              		.loc 1 730 0
 1318              		.cfi_startproc
 1319              		@ args = 0, pretend = 0, frame = 0
 1320              		@ frame_needed = 0, uses_anonymous_args = 0
 1321              	.LVL98:
 731:../STM32Cube_FW_F4_V1.4.0/Drivers/STM32F4xx_HAL_Driver/Src/stm32f4xx_hal_rtc_ex.c ****   uint32_t tickstart = 0;
 732:../STM32Cube_FW_F4_V1.4.0/Drivers/STM32F4xx_HAL_Driver/Src/stm32f4xx_hal_rtc_ex.c **** 
 733:../STM32Cube_FW_F4_V1.4.0/Drivers/STM32F4xx_HAL_Driver/Src/stm32f4xx_hal_rtc_ex.c ****   /* Check the parameters */
 734:../STM32Cube_FW_F4_V1.4.0/Drivers/STM32F4xx_HAL_Driver/Src/stm32f4xx_hal_rtc_ex.c ****   assert_param(IS_RTC_WAKEUP_CLOCK(WakeUpClock));
 1322              		.loc 1 734 0
 1323 0000 042A     		cmp	r2, #4	@ WakeUpClock,
ARM GAS  C:\cygwin\tmp\ccim5MRL.s 			page 38


 730:../STM32Cube_FW_F4_V1.4.0/Drivers/STM32F4xx_HAL_Driver/Src/stm32f4xx_hal_rtc_ex.c ****   uint32_t tickstart = 0;
 1324              		.loc 1 730 0
 1325 0002 2DE9F041 		push	{r4, r5, r6, r7, r8, lr}	@
 1326              		.cfi_def_cfa_offset 24
 1327              		.cfi_offset 4, -24
 1328              		.cfi_offset 5, -20
 1329              		.cfi_offset 6, -16
 1330              		.cfi_offset 7, -12
 1331              		.cfi_offset 8, -8
 1332              		.cfi_offset 14, -4
 730:../STM32Cube_FW_F4_V1.4.0/Drivers/STM32F4xx_HAL_Driver/Src/stm32f4xx_hal_rtc_ex.c ****   uint32_t tickstart = 0;
 1333              		.loc 1 730 0
 1334 0006 0446     		mov	r4, r0	@ hrtc, hrtc
 1335 0008 0E46     		mov	r6, r1	@ WakeUpCounter, WakeUpCounter
 1336 000a 1746     		mov	r7, r2	@ WakeUpClock, WakeUpClock
 1337              		.loc 1 734 0
 1338 000c 06D9     		bls	.L186	@,
 1339              		.loc 1 734 0 is_stmt 0 discriminator 1
 1340 000e 062A     		cmp	r2, #6	@ WakeUpClock,
 1341 0010 04D0     		beq	.L186	@,
 1342              		.loc 1 734 0 discriminator 2
 1343 0012 2448     		ldr	r0, .L197	@,
 1344              	.LVL99:
 1345 0014 40F2DE21 		movw	r1, #734	@,
 1346              	.LVL100:
 1347 0018 FFF7FEFF 		bl	assert_failed	@
 1348              	.LVL101:
 1349              	.L186:
 735:../STM32Cube_FW_F4_V1.4.0/Drivers/STM32F4xx_HAL_Driver/Src/stm32f4xx_hal_rtc_ex.c ****   assert_param(IS_RTC_WAKEUP_COUNTER(WakeUpCounter));
 1350              		.loc 1 735 0 is_stmt 1
 1351 001c B6F5803F 		cmp	r6, #65536	@ WakeUpCounter,
 1352 0020 04D3     		bcc	.L187	@,
 1353              		.loc 1 735 0 is_stmt 0 discriminator 1
 1354 0022 2048     		ldr	r0, .L197	@,
 1355 0024 40F2DF21 		movw	r1, #735	@,
 1356 0028 FFF7FEFF 		bl	assert_failed	@
 1357              	.LVL102:
 1358              	.L187:
 736:../STM32Cube_FW_F4_V1.4.0/Drivers/STM32F4xx_HAL_Driver/Src/stm32f4xx_hal_rtc_ex.c ****  
 737:../STM32Cube_FW_F4_V1.4.0/Drivers/STM32F4xx_HAL_Driver/Src/stm32f4xx_hal_rtc_ex.c ****   /* Process Locked */ 
 738:../STM32Cube_FW_F4_V1.4.0/Drivers/STM32F4xx_HAL_Driver/Src/stm32f4xx_hal_rtc_ex.c ****   __HAL_LOCK(hrtc);
 1359              		.loc 1 738 0 is_stmt 1
 1360 002c 237F     		ldrb	r3, [r4, #28]	@ zero_extendqisi2	@ hrtc_11(D)->Lock, hrtc_11(D)->Lock
 1361 002e 012B     		cmp	r3, #1	@ hrtc_11(D)->Lock,
 1362 0030 4FF00200 		mov	r0, #2	@ D.8343,
 1363 0034 34D0     		beq	.L188	@,
 1364              		.loc 1 738 0 is_stmt 0 discriminator 2
 1365 0036 0123     		movs	r3, #1	@ tmp135,
 1366 0038 2377     		strb	r3, [r4, #28]	@ tmp135, hrtc_11(D)->Lock
 739:../STM32Cube_FW_F4_V1.4.0/Drivers/STM32F4xx_HAL_Driver/Src/stm32f4xx_hal_rtc_ex.c ****     
 740:../STM32Cube_FW_F4_V1.4.0/Drivers/STM32F4xx_HAL_Driver/Src/stm32f4xx_hal_rtc_ex.c ****   hrtc->State = HAL_RTC_STATE_BUSY;
 741:../STM32Cube_FW_F4_V1.4.0/Drivers/STM32F4xx_HAL_Driver/Src/stm32f4xx_hal_rtc_ex.c ****   
 742:../STM32Cube_FW_F4_V1.4.0/Drivers/STM32F4xx_HAL_Driver/Src/stm32f4xx_hal_rtc_ex.c ****   /* Disable the write protection for RTC registers */
 743:../STM32Cube_FW_F4_V1.4.0/Drivers/STM32F4xx_HAL_Driver/Src/stm32f4xx_hal_rtc_ex.c ****   __HAL_RTC_WRITEPROTECTION_DISABLE(hrtc);
 1367              		.loc 1 743 0 is_stmt 1 discriminator 2
 1368 003a 2368     		ldr	r3, [r4]	@ D.8345, hrtc_11(D)->Instance
 740:../STM32Cube_FW_F4_V1.4.0/Drivers/STM32F4xx_HAL_Driver/Src/stm32f4xx_hal_rtc_ex.c ****   
ARM GAS  C:\cygwin\tmp\ccim5MRL.s 			page 39


 1369              		.loc 1 740 0 discriminator 2
 1370 003c 6077     		strb	r0, [r4, #29]	@ D.8343, hrtc_11(D)->State
 1371              		.loc 1 743 0 discriminator 2
 1372 003e CA22     		movs	r2, #202	@ tmp139,
 1373 0040 5A62     		str	r2, [r3, #36]	@ tmp139, _15->WPR
 1374 0042 5322     		movs	r2, #83	@ tmp140,
 1375 0044 5A62     		str	r2, [r3, #36]	@ tmp140, _15->WPR
 744:../STM32Cube_FW_F4_V1.4.0/Drivers/STM32F4xx_HAL_Driver/Src/stm32f4xx_hal_rtc_ex.c ****   
 745:../STM32Cube_FW_F4_V1.4.0/Drivers/STM32F4xx_HAL_Driver/Src/stm32f4xx_hal_rtc_ex.c ****   __HAL_RTC_WAKEUPTIMER_DISABLE(hrtc);
 1376              		.loc 1 745 0 discriminator 2
 1377 0046 9A68     		ldr	r2, [r3, #8]	@ D.8346, _15->CR
 1378 0048 22F48062 		bic	r2, r2, #1024	@ D.8346, D.8346,
 1379 004c 9A60     		str	r2, [r3, #8]	@ D.8346, _15->CR
 746:../STM32Cube_FW_F4_V1.4.0/Drivers/STM32F4xx_HAL_Driver/Src/stm32f4xx_hal_rtc_ex.c **** 
 747:../STM32Cube_FW_F4_V1.4.0/Drivers/STM32F4xx_HAL_Driver/Src/stm32f4xx_hal_rtc_ex.c ****   /* Get tick */
 748:../STM32Cube_FW_F4_V1.4.0/Drivers/STM32F4xx_HAL_Driver/Src/stm32f4xx_hal_rtc_ex.c ****   tickstart = HAL_GetTick();
 1380              		.loc 1 748 0 discriminator 2
 1381 004e FFF7FEFF 		bl	HAL_GetTick	@
 1382              	.LVL103:
 1383 0052 8046     		mov	r8, r0	@ tickstart,
 1384              	.LVL104:
 1385              	.L189:
 749:../STM32Cube_FW_F4_V1.4.0/Drivers/STM32F4xx_HAL_Driver/Src/stm32f4xx_hal_rtc_ex.c **** 
 750:../STM32Cube_FW_F4_V1.4.0/Drivers/STM32F4xx_HAL_Driver/Src/stm32f4xx_hal_rtc_ex.c ****   /* Wait till RTC WUTWF flag is set and if Time out is reached exit */
 751:../STM32Cube_FW_F4_V1.4.0/Drivers/STM32F4xx_HAL_Driver/Src/stm32f4xx_hal_rtc_ex.c ****   while(__HAL_RTC_WAKEUPTIMER_GET_FLAG(hrtc, RTC_FLAG_WUTWF) == RESET)
 1386              		.loc 1 751 0
 1387 0054 2368     		ldr	r3, [r4]	@ D.8345, hrtc_11(D)->Instance
 1388 0056 DA68     		ldr	r2, [r3, #12]	@ D.8346, _23->ISR
 1389 0058 12F00405 		ands	r5, r2, #4	@ D.8346, D.8346,
 1390 005c 0ED1     		bne	.L196	@,
 752:../STM32Cube_FW_F4_V1.4.0/Drivers/STM32F4xx_HAL_Driver/Src/stm32f4xx_hal_rtc_ex.c ****   {
 753:../STM32Cube_FW_F4_V1.4.0/Drivers/STM32F4xx_HAL_Driver/Src/stm32f4xx_hal_rtc_ex.c ****     if((HAL_GetTick() - tickstart ) > RTC_TIMEOUT_VALUE)
 1391              		.loc 1 753 0
 1392 005e FFF7FEFF 		bl	HAL_GetTick	@
 1393              	.LVL105:
 1394 0062 C8EB0000 		rsb	r0, r8, r0	@ D.8346, tickstart,
 1395 0066 B0F57A7F 		cmp	r0, #1000	@ D.8346,
 1396 006a F3D9     		bls	.L189	@,
 754:../STM32Cube_FW_F4_V1.4.0/Drivers/STM32F4xx_HAL_Driver/Src/stm32f4xx_hal_rtc_ex.c ****     {
 755:../STM32Cube_FW_F4_V1.4.0/Drivers/STM32F4xx_HAL_Driver/Src/stm32f4xx_hal_rtc_ex.c ****       /* Enable the write protection for RTC registers */
 756:../STM32Cube_FW_F4_V1.4.0/Drivers/STM32F4xx_HAL_Driver/Src/stm32f4xx_hal_rtc_ex.c ****       __HAL_RTC_WRITEPROTECTION_ENABLE(hrtc);
 1397              		.loc 1 756 0
 1398 006c 2368     		ldr	r3, [r4]	@ D.8345, hrtc_11(D)->Instance
 1399 006e FF22     		movs	r2, #255	@ tmp142,
 757:../STM32Cube_FW_F4_V1.4.0/Drivers/STM32F4xx_HAL_Driver/Src/stm32f4xx_hal_rtc_ex.c ****       
 758:../STM32Cube_FW_F4_V1.4.0/Drivers/STM32F4xx_HAL_Driver/Src/stm32f4xx_hal_rtc_ex.c ****       hrtc->State = HAL_RTC_STATE_TIMEOUT; 
 1400              		.loc 1 758 0
 1401 0070 0320     		movs	r0, #3	@ tmp143,
 756:../STM32Cube_FW_F4_V1.4.0/Drivers/STM32F4xx_HAL_Driver/Src/stm32f4xx_hal_rtc_ex.c ****       
 1402              		.loc 1 756 0
 1403 0072 5A62     		str	r2, [r3, #36]	@ tmp142, _29->WPR
 1404              		.loc 1 758 0
 1405 0074 6077     		strb	r0, [r4, #29]	@ tmp143, hrtc_11(D)->State
 759:../STM32Cube_FW_F4_V1.4.0/Drivers/STM32F4xx_HAL_Driver/Src/stm32f4xx_hal_rtc_ex.c ****       
 760:../STM32Cube_FW_F4_V1.4.0/Drivers/STM32F4xx_HAL_Driver/Src/stm32f4xx_hal_rtc_ex.c ****       /* Process Unlocked */ 
 761:../STM32Cube_FW_F4_V1.4.0/Drivers/STM32F4xx_HAL_Driver/Src/stm32f4xx_hal_rtc_ex.c ****       __HAL_UNLOCK(hrtc);
 1406              		.loc 1 761 0
ARM GAS  C:\cygwin\tmp\ccim5MRL.s 			page 40


 1407 0076 2577     		strb	r5, [r4, #28]	@ D.8346, hrtc_11(D)->Lock
 762:../STM32Cube_FW_F4_V1.4.0/Drivers/STM32F4xx_HAL_Driver/Src/stm32f4xx_hal_rtc_ex.c ****       
 763:../STM32Cube_FW_F4_V1.4.0/Drivers/STM32F4xx_HAL_Driver/Src/stm32f4xx_hal_rtc_ex.c ****       return HAL_TIMEOUT;
 1408              		.loc 1 763 0
 1409 0078 BDE8F081 		pop	{r4, r5, r6, r7, r8, pc}	@
 1410              	.LVL106:
 1411              	.L196:
 764:../STM32Cube_FW_F4_V1.4.0/Drivers/STM32F4xx_HAL_Driver/Src/stm32f4xx_hal_rtc_ex.c ****     }  
 765:../STM32Cube_FW_F4_V1.4.0/Drivers/STM32F4xx_HAL_Driver/Src/stm32f4xx_hal_rtc_ex.c ****   }
 766:../STM32Cube_FW_F4_V1.4.0/Drivers/STM32F4xx_HAL_Driver/Src/stm32f4xx_hal_rtc_ex.c ****   
 767:../STM32Cube_FW_F4_V1.4.0/Drivers/STM32F4xx_HAL_Driver/Src/stm32f4xx_hal_rtc_ex.c ****   /* Clear the Wake-up Timer clock source bits in CR register */
 768:../STM32Cube_FW_F4_V1.4.0/Drivers/STM32F4xx_HAL_Driver/Src/stm32f4xx_hal_rtc_ex.c ****   hrtc->Instance->CR &= (uint32_t)~RTC_CR_WUCKSEL;
 1412              		.loc 1 768 0
 1413 007c 9A68     		ldr	r2, [r3, #8]	@ D.8346, _33->CR
 1414 007e 22F00702 		bic	r2, r2, #7	@ D.8346, D.8346,
 1415 0082 9A60     		str	r2, [r3, #8]	@ D.8346, _33->CR
 769:../STM32Cube_FW_F4_V1.4.0/Drivers/STM32F4xx_HAL_Driver/Src/stm32f4xx_hal_rtc_ex.c ****   
 770:../STM32Cube_FW_F4_V1.4.0/Drivers/STM32F4xx_HAL_Driver/Src/stm32f4xx_hal_rtc_ex.c ****   /* Configure the clock source */
 771:../STM32Cube_FW_F4_V1.4.0/Drivers/STM32F4xx_HAL_Driver/Src/stm32f4xx_hal_rtc_ex.c ****   hrtc->Instance->CR |= (uint32_t)WakeUpClock;
 1416              		.loc 1 771 0
 1417 0084 9A68     		ldr	r2, [r3, #8]	@ D.8346, _33->CR
 1418 0086 3A43     		orrs	r2, r2, r7	@, D.8346, D.8346, WakeUpClock
 1419 0088 9A60     		str	r2, [r3, #8]	@ D.8346, _33->CR
 772:../STM32Cube_FW_F4_V1.4.0/Drivers/STM32F4xx_HAL_Driver/Src/stm32f4xx_hal_rtc_ex.c ****   
 773:../STM32Cube_FW_F4_V1.4.0/Drivers/STM32F4xx_HAL_Driver/Src/stm32f4xx_hal_rtc_ex.c ****   /* Configure the Wake-up Timer counter */
 774:../STM32Cube_FW_F4_V1.4.0/Drivers/STM32F4xx_HAL_Driver/Src/stm32f4xx_hal_rtc_ex.c ****   hrtc->Instance->WUTR = (uint32_t)WakeUpCounter;
 1420              		.loc 1 774 0
 1421 008a 5E61     		str	r6, [r3, #20]	@ WakeUpCounter, _33->WUTR
 775:../STM32Cube_FW_F4_V1.4.0/Drivers/STM32F4xx_HAL_Driver/Src/stm32f4xx_hal_rtc_ex.c ****   
 776:../STM32Cube_FW_F4_V1.4.0/Drivers/STM32F4xx_HAL_Driver/Src/stm32f4xx_hal_rtc_ex.c ****    /* Enable the Wake-up Timer */
 777:../STM32Cube_FW_F4_V1.4.0/Drivers/STM32F4xx_HAL_Driver/Src/stm32f4xx_hal_rtc_ex.c ****   __HAL_RTC_WAKEUPTIMER_ENABLE(hrtc);   
 1422              		.loc 1 777 0
 1423 008c 9A68     		ldr	r2, [r3, #8]	@ D.8346, _33->CR
 1424 008e 42F48062 		orr	r2, r2, #1024	@ D.8346, D.8346,
 1425 0092 9A60     		str	r2, [r3, #8]	@ D.8346, _33->CR
 778:../STM32Cube_FW_F4_V1.4.0/Drivers/STM32F4xx_HAL_Driver/Src/stm32f4xx_hal_rtc_ex.c ****   
 779:../STM32Cube_FW_F4_V1.4.0/Drivers/STM32F4xx_HAL_Driver/Src/stm32f4xx_hal_rtc_ex.c ****   /* Enable the write protection for RTC registers */
 780:../STM32Cube_FW_F4_V1.4.0/Drivers/STM32F4xx_HAL_Driver/Src/stm32f4xx_hal_rtc_ex.c ****   __HAL_RTC_WRITEPROTECTION_ENABLE(hrtc); 
 1426              		.loc 1 780 0
 1427 0094 FF22     		movs	r2, #255	@ tmp148,
 1428 0096 5A62     		str	r2, [r3, #36]	@ tmp148, _33->WPR
 781:../STM32Cube_FW_F4_V1.4.0/Drivers/STM32F4xx_HAL_Driver/Src/stm32f4xx_hal_rtc_ex.c ****   
 782:../STM32Cube_FW_F4_V1.4.0/Drivers/STM32F4xx_HAL_Driver/Src/stm32f4xx_hal_rtc_ex.c ****   hrtc->State = HAL_RTC_STATE_READY;   
 783:../STM32Cube_FW_F4_V1.4.0/Drivers/STM32F4xx_HAL_Driver/Src/stm32f4xx_hal_rtc_ex.c ****   
 784:../STM32Cube_FW_F4_V1.4.0/Drivers/STM32F4xx_HAL_Driver/Src/stm32f4xx_hal_rtc_ex.c ****   /* Process Unlocked */ 
 785:../STM32Cube_FW_F4_V1.4.0/Drivers/STM32F4xx_HAL_Driver/Src/stm32f4xx_hal_rtc_ex.c ****   __HAL_UNLOCK(hrtc);
 1429              		.loc 1 785 0
 1430 0098 0020     		movs	r0, #0	@ tmp151,
 782:../STM32Cube_FW_F4_V1.4.0/Drivers/STM32F4xx_HAL_Driver/Src/stm32f4xx_hal_rtc_ex.c ****   
 1431              		.loc 1 782 0
 1432 009a 0123     		movs	r3, #1	@ tmp149,
 1433 009c 6377     		strb	r3, [r4, #29]	@ tmp149, hrtc_11(D)->State
 1434              		.loc 1 785 0
 1435 009e 2077     		strb	r0, [r4, #28]	@ tmp151, hrtc_11(D)->Lock
 1436              	.LVL107:
 1437              	.L188:
 786:../STM32Cube_FW_F4_V1.4.0/Drivers/STM32F4xx_HAL_Driver/Src/stm32f4xx_hal_rtc_ex.c ****   
ARM GAS  C:\cygwin\tmp\ccim5MRL.s 			page 41


 787:../STM32Cube_FW_F4_V1.4.0/Drivers/STM32F4xx_HAL_Driver/Src/stm32f4xx_hal_rtc_ex.c ****   return HAL_OK;
 788:../STM32Cube_FW_F4_V1.4.0/Drivers/STM32F4xx_HAL_Driver/Src/stm32f4xx_hal_rtc_ex.c **** }
 1438              		.loc 1 788 0
 1439 00a0 BDE8F081 		pop	{r4, r5, r6, r7, r8, pc}	@
 1440              	.LVL108:
 1441              	.L198:
 1442              		.align	2
 1443              	.L197:
 1444 00a4 00000000 		.word	.LC0
 1445              		.cfi_endproc
 1446              	.LFE137:
 1447              		.size	HAL_RTCEx_SetWakeUpTimer, .-HAL_RTCEx_SetWakeUpTimer
 1448              		.section	.text.HAL_RTCEx_SetWakeUpTimer_IT,"ax",%progbits
 1449              		.align	1
 1450              		.global	HAL_RTCEx_SetWakeUpTimer_IT
 1451              		.thumb
 1452              		.thumb_func
 1453              		.type	HAL_RTCEx_SetWakeUpTimer_IT, %function
 1454              	HAL_RTCEx_SetWakeUpTimer_IT:
 1455              	.LFB138:
 789:../STM32Cube_FW_F4_V1.4.0/Drivers/STM32F4xx_HAL_Driver/Src/stm32f4xx_hal_rtc_ex.c **** 
 790:../STM32Cube_FW_F4_V1.4.0/Drivers/STM32F4xx_HAL_Driver/Src/stm32f4xx_hal_rtc_ex.c **** /**
 791:../STM32Cube_FW_F4_V1.4.0/Drivers/STM32F4xx_HAL_Driver/Src/stm32f4xx_hal_rtc_ex.c ****   * @brief  Sets wake up timer with interrupt
 792:../STM32Cube_FW_F4_V1.4.0/Drivers/STM32F4xx_HAL_Driver/Src/stm32f4xx_hal_rtc_ex.c ****   * @param  hrtc: pointer to a RTC_HandleTypeDef structure that contains
 793:../STM32Cube_FW_F4_V1.4.0/Drivers/STM32F4xx_HAL_Driver/Src/stm32f4xx_hal_rtc_ex.c ****   *                the configuration information for RTC.
 794:../STM32Cube_FW_F4_V1.4.0/Drivers/STM32F4xx_HAL_Driver/Src/stm32f4xx_hal_rtc_ex.c ****   * @param  WakeUpCounter: Wake up counter
 795:../STM32Cube_FW_F4_V1.4.0/Drivers/STM32F4xx_HAL_Driver/Src/stm32f4xx_hal_rtc_ex.c ****   * @param  WakeUpClock: Wake up clock  
 796:../STM32Cube_FW_F4_V1.4.0/Drivers/STM32F4xx_HAL_Driver/Src/stm32f4xx_hal_rtc_ex.c ****   * @retval HAL status
 797:../STM32Cube_FW_F4_V1.4.0/Drivers/STM32F4xx_HAL_Driver/Src/stm32f4xx_hal_rtc_ex.c ****   */
 798:../STM32Cube_FW_F4_V1.4.0/Drivers/STM32F4xx_HAL_Driver/Src/stm32f4xx_hal_rtc_ex.c **** HAL_StatusTypeDef HAL_RTCEx_SetWakeUpTimer_IT(RTC_HandleTypeDef *hrtc, uint32_t WakeUpCounter, uint
 799:../STM32Cube_FW_F4_V1.4.0/Drivers/STM32F4xx_HAL_Driver/Src/stm32f4xx_hal_rtc_ex.c **** {
 1456              		.loc 1 799 0
 1457              		.cfi_startproc
 1458              		@ args = 0, pretend = 0, frame = 0
 1459              		@ frame_needed = 0, uses_anonymous_args = 0
 1460              	.LVL109:
 800:../STM32Cube_FW_F4_V1.4.0/Drivers/STM32F4xx_HAL_Driver/Src/stm32f4xx_hal_rtc_ex.c ****   uint32_t tickstart = 0;
 801:../STM32Cube_FW_F4_V1.4.0/Drivers/STM32F4xx_HAL_Driver/Src/stm32f4xx_hal_rtc_ex.c ****   
 802:../STM32Cube_FW_F4_V1.4.0/Drivers/STM32F4xx_HAL_Driver/Src/stm32f4xx_hal_rtc_ex.c ****   /* Check the parameters */
 803:../STM32Cube_FW_F4_V1.4.0/Drivers/STM32F4xx_HAL_Driver/Src/stm32f4xx_hal_rtc_ex.c ****   assert_param(IS_RTC_WAKEUP_CLOCK(WakeUpClock));
 1461              		.loc 1 803 0
 1462 0000 042A     		cmp	r2, #4	@ WakeUpClock,
 799:../STM32Cube_FW_F4_V1.4.0/Drivers/STM32F4xx_HAL_Driver/Src/stm32f4xx_hal_rtc_ex.c ****   uint32_t tickstart = 0;
 1463              		.loc 1 799 0
 1464 0002 2DE9F041 		push	{r4, r5, r6, r7, r8, lr}	@
 1465              		.cfi_def_cfa_offset 24
 1466              		.cfi_offset 4, -24
 1467              		.cfi_offset 5, -20
 1468              		.cfi_offset 6, -16
 1469              		.cfi_offset 7, -12
 1470              		.cfi_offset 8, -8
 1471              		.cfi_offset 14, -4
 799:../STM32Cube_FW_F4_V1.4.0/Drivers/STM32F4xx_HAL_Driver/Src/stm32f4xx_hal_rtc_ex.c ****   uint32_t tickstart = 0;
 1472              		.loc 1 799 0
 1473 0006 0446     		mov	r4, r0	@ hrtc, hrtc
 1474 0008 0F46     		mov	r7, r1	@ WakeUpCounter, WakeUpCounter
 1475 000a 1646     		mov	r6, r2	@ WakeUpClock, WakeUpClock
ARM GAS  C:\cygwin\tmp\ccim5MRL.s 			page 42


 1476              		.loc 1 803 0
 1477 000c 06D9     		bls	.L200	@,
 1478              		.loc 1 803 0 is_stmt 0 discriminator 1
 1479 000e 062A     		cmp	r2, #6	@ WakeUpClock,
 1480 0010 04D0     		beq	.L200	@,
 1481              		.loc 1 803 0 discriminator 2
 1482 0012 2B48     		ldr	r0, .L211	@,
 1483              	.LVL110:
 1484 0014 40F22331 		movw	r1, #803	@,
 1485              	.LVL111:
 1486 0018 FFF7FEFF 		bl	assert_failed	@
 1487              	.LVL112:
 1488              	.L200:
 804:../STM32Cube_FW_F4_V1.4.0/Drivers/STM32F4xx_HAL_Driver/Src/stm32f4xx_hal_rtc_ex.c ****   assert_param(IS_RTC_WAKEUP_COUNTER(WakeUpCounter));
 1489              		.loc 1 804 0 is_stmt 1
 1490 001c B7F5803F 		cmp	r7, #65536	@ WakeUpCounter,
 1491 0020 04D3     		bcc	.L201	@,
 1492              		.loc 1 804 0 is_stmt 0 discriminator 1
 1493 0022 2748     		ldr	r0, .L211	@,
 1494 0024 4FF44971 		mov	r1, #804	@,
 1495 0028 FFF7FEFF 		bl	assert_failed	@
 1496              	.LVL113:
 1497              	.L201:
 805:../STM32Cube_FW_F4_V1.4.0/Drivers/STM32F4xx_HAL_Driver/Src/stm32f4xx_hal_rtc_ex.c ****   
 806:../STM32Cube_FW_F4_V1.4.0/Drivers/STM32F4xx_HAL_Driver/Src/stm32f4xx_hal_rtc_ex.c ****   /* Process Locked */ 
 807:../STM32Cube_FW_F4_V1.4.0/Drivers/STM32F4xx_HAL_Driver/Src/stm32f4xx_hal_rtc_ex.c ****   __HAL_LOCK(hrtc);
 1498              		.loc 1 807 0 is_stmt 1
 1499 002c 237F     		ldrb	r3, [r4, #28]	@ zero_extendqisi2	@ hrtc_11(D)->Lock, hrtc_11(D)->Lock
 1500 002e 012B     		cmp	r3, #1	@ hrtc_11(D)->Lock,
 1501 0030 4FF00200 		mov	r0, #2	@ D.8349,
 1502 0034 41D0     		beq	.L202	@,
 1503              		.loc 1 807 0 is_stmt 0 discriminator 2
 1504 0036 0123     		movs	r3, #1	@ tmp141,
 1505 0038 2377     		strb	r3, [r4, #28]	@ tmp141, hrtc_11(D)->Lock
 808:../STM32Cube_FW_F4_V1.4.0/Drivers/STM32F4xx_HAL_Driver/Src/stm32f4xx_hal_rtc_ex.c ****   
 809:../STM32Cube_FW_F4_V1.4.0/Drivers/STM32F4xx_HAL_Driver/Src/stm32f4xx_hal_rtc_ex.c ****   hrtc->State = HAL_RTC_STATE_BUSY;
 810:../STM32Cube_FW_F4_V1.4.0/Drivers/STM32F4xx_HAL_Driver/Src/stm32f4xx_hal_rtc_ex.c ****   
 811:../STM32Cube_FW_F4_V1.4.0/Drivers/STM32F4xx_HAL_Driver/Src/stm32f4xx_hal_rtc_ex.c ****   /* Disable the write protection for RTC registers */
 812:../STM32Cube_FW_F4_V1.4.0/Drivers/STM32F4xx_HAL_Driver/Src/stm32f4xx_hal_rtc_ex.c ****   __HAL_RTC_WRITEPROTECTION_DISABLE(hrtc);
 1506              		.loc 1 812 0 is_stmt 1 discriminator 2
 1507 003a 2368     		ldr	r3, [r4]	@ D.8351, hrtc_11(D)->Instance
 809:../STM32Cube_FW_F4_V1.4.0/Drivers/STM32F4xx_HAL_Driver/Src/stm32f4xx_hal_rtc_ex.c ****   
 1508              		.loc 1 809 0 discriminator 2
 1509 003c 6077     		strb	r0, [r4, #29]	@ D.8349, hrtc_11(D)->State
 1510              		.loc 1 812 0 discriminator 2
 1511 003e CA22     		movs	r2, #202	@ tmp145,
 1512 0040 5A62     		str	r2, [r3, #36]	@ tmp145, _15->WPR
 1513 0042 5322     		movs	r2, #83	@ tmp146,
 1514 0044 5A62     		str	r2, [r3, #36]	@ tmp146, _15->WPR
 813:../STM32Cube_FW_F4_V1.4.0/Drivers/STM32F4xx_HAL_Driver/Src/stm32f4xx_hal_rtc_ex.c ****   
 814:../STM32Cube_FW_F4_V1.4.0/Drivers/STM32F4xx_HAL_Driver/Src/stm32f4xx_hal_rtc_ex.c ****   __HAL_RTC_WAKEUPTIMER_DISABLE(hrtc);
 1515              		.loc 1 814 0 discriminator 2
 1516 0046 9A68     		ldr	r2, [r3, #8]	@ D.8352, _15->CR
 1517 0048 22F48062 		bic	r2, r2, #1024	@ D.8352, D.8352,
 1518 004c 9A60     		str	r2, [r3, #8]	@ D.8352, _15->CR
 815:../STM32Cube_FW_F4_V1.4.0/Drivers/STM32F4xx_HAL_Driver/Src/stm32f4xx_hal_rtc_ex.c **** 
 816:../STM32Cube_FW_F4_V1.4.0/Drivers/STM32F4xx_HAL_Driver/Src/stm32f4xx_hal_rtc_ex.c ****   /* Get tick */
ARM GAS  C:\cygwin\tmp\ccim5MRL.s 			page 43


 817:../STM32Cube_FW_F4_V1.4.0/Drivers/STM32F4xx_HAL_Driver/Src/stm32f4xx_hal_rtc_ex.c ****   tickstart = HAL_GetTick();
 1519              		.loc 1 817 0 discriminator 2
 1520 004e FFF7FEFF 		bl	HAL_GetTick	@
 1521              	.LVL114:
 1522 0052 8046     		mov	r8, r0	@ tickstart,
 1523              	.LVL115:
 1524              	.L203:
 818:../STM32Cube_FW_F4_V1.4.0/Drivers/STM32F4xx_HAL_Driver/Src/stm32f4xx_hal_rtc_ex.c **** 
 819:../STM32Cube_FW_F4_V1.4.0/Drivers/STM32F4xx_HAL_Driver/Src/stm32f4xx_hal_rtc_ex.c ****   /* Wait till RTC WUTWF flag is set and if Time out is reached exit */
 820:../STM32Cube_FW_F4_V1.4.0/Drivers/STM32F4xx_HAL_Driver/Src/stm32f4xx_hal_rtc_ex.c ****   while(__HAL_RTC_WAKEUPTIMER_GET_FLAG(hrtc, RTC_FLAG_WUTWF) == RESET)
 1525              		.loc 1 820 0
 1526 0054 2368     		ldr	r3, [r4]	@ D.8351, hrtc_11(D)->Instance
 1527 0056 DA68     		ldr	r2, [r3, #12]	@ D.8352, _23->ISR
 1528 0058 12F00405 		ands	r5, r2, #4	@ D.8352, D.8352,
 1529 005c 0ED1     		bne	.L210	@,
 821:../STM32Cube_FW_F4_V1.4.0/Drivers/STM32F4xx_HAL_Driver/Src/stm32f4xx_hal_rtc_ex.c ****   {
 822:../STM32Cube_FW_F4_V1.4.0/Drivers/STM32F4xx_HAL_Driver/Src/stm32f4xx_hal_rtc_ex.c ****     if((HAL_GetTick() - tickstart ) > RTC_TIMEOUT_VALUE)
 1530              		.loc 1 822 0
 1531 005e FFF7FEFF 		bl	HAL_GetTick	@
 1532              	.LVL116:
 1533 0062 C8EB0000 		rsb	r0, r8, r0	@ D.8352, tickstart,
 1534 0066 B0F57A7F 		cmp	r0, #1000	@ D.8352,
 1535 006a F3D9     		bls	.L203	@,
 823:../STM32Cube_FW_F4_V1.4.0/Drivers/STM32F4xx_HAL_Driver/Src/stm32f4xx_hal_rtc_ex.c ****     {
 824:../STM32Cube_FW_F4_V1.4.0/Drivers/STM32F4xx_HAL_Driver/Src/stm32f4xx_hal_rtc_ex.c ****       /* Enable the write protection for RTC registers */
 825:../STM32Cube_FW_F4_V1.4.0/Drivers/STM32F4xx_HAL_Driver/Src/stm32f4xx_hal_rtc_ex.c ****       __HAL_RTC_WRITEPROTECTION_ENABLE(hrtc);
 1536              		.loc 1 825 0
 1537 006c 2368     		ldr	r3, [r4]	@ D.8351, hrtc_11(D)->Instance
 1538 006e FF22     		movs	r2, #255	@ tmp148,
 826:../STM32Cube_FW_F4_V1.4.0/Drivers/STM32F4xx_HAL_Driver/Src/stm32f4xx_hal_rtc_ex.c ****       
 827:../STM32Cube_FW_F4_V1.4.0/Drivers/STM32F4xx_HAL_Driver/Src/stm32f4xx_hal_rtc_ex.c ****       hrtc->State = HAL_RTC_STATE_TIMEOUT; 
 1539              		.loc 1 827 0
 1540 0070 0320     		movs	r0, #3	@ tmp149,
 825:../STM32Cube_FW_F4_V1.4.0/Drivers/STM32F4xx_HAL_Driver/Src/stm32f4xx_hal_rtc_ex.c ****       
 1541              		.loc 1 825 0
 1542 0072 5A62     		str	r2, [r3, #36]	@ tmp148, _29->WPR
 1543              		.loc 1 827 0
 1544 0074 6077     		strb	r0, [r4, #29]	@ tmp149, hrtc_11(D)->State
 828:../STM32Cube_FW_F4_V1.4.0/Drivers/STM32F4xx_HAL_Driver/Src/stm32f4xx_hal_rtc_ex.c ****       
 829:../STM32Cube_FW_F4_V1.4.0/Drivers/STM32F4xx_HAL_Driver/Src/stm32f4xx_hal_rtc_ex.c ****       /* Process Unlocked */ 
 830:../STM32Cube_FW_F4_V1.4.0/Drivers/STM32F4xx_HAL_Driver/Src/stm32f4xx_hal_rtc_ex.c ****       __HAL_UNLOCK(hrtc);
 1545              		.loc 1 830 0
 1546 0076 2577     		strb	r5, [r4, #28]	@ D.8352, hrtc_11(D)->Lock
 831:../STM32Cube_FW_F4_V1.4.0/Drivers/STM32F4xx_HAL_Driver/Src/stm32f4xx_hal_rtc_ex.c ****       
 832:../STM32Cube_FW_F4_V1.4.0/Drivers/STM32F4xx_HAL_Driver/Src/stm32f4xx_hal_rtc_ex.c ****       return HAL_TIMEOUT;
 1547              		.loc 1 832 0
 1548 0078 BDE8F081 		pop	{r4, r5, r6, r7, r8, pc}	@
 1549              	.LVL117:
 1550              	.L210:
 833:../STM32Cube_FW_F4_V1.4.0/Drivers/STM32F4xx_HAL_Driver/Src/stm32f4xx_hal_rtc_ex.c ****     }  
 834:../STM32Cube_FW_F4_V1.4.0/Drivers/STM32F4xx_HAL_Driver/Src/stm32f4xx_hal_rtc_ex.c ****   }
 835:../STM32Cube_FW_F4_V1.4.0/Drivers/STM32F4xx_HAL_Driver/Src/stm32f4xx_hal_rtc_ex.c ****   
 836:../STM32Cube_FW_F4_V1.4.0/Drivers/STM32F4xx_HAL_Driver/Src/stm32f4xx_hal_rtc_ex.c ****   /* Configure the Wake-up Timer counter */
 837:../STM32Cube_FW_F4_V1.4.0/Drivers/STM32F4xx_HAL_Driver/Src/stm32f4xx_hal_rtc_ex.c ****   hrtc->Instance->WUTR = (uint32_t)WakeUpCounter;
 1551              		.loc 1 837 0
 1552 007c 5F61     		str	r7, [r3, #20]	@ WakeUpCounter, _33->WUTR
 838:../STM32Cube_FW_F4_V1.4.0/Drivers/STM32F4xx_HAL_Driver/Src/stm32f4xx_hal_rtc_ex.c **** 
ARM GAS  C:\cygwin\tmp\ccim5MRL.s 			page 44


 839:../STM32Cube_FW_F4_V1.4.0/Drivers/STM32F4xx_HAL_Driver/Src/stm32f4xx_hal_rtc_ex.c ****   /* Clear the Wake-up Timer clock source bits in CR register */
 840:../STM32Cube_FW_F4_V1.4.0/Drivers/STM32F4xx_HAL_Driver/Src/stm32f4xx_hal_rtc_ex.c ****   hrtc->Instance->CR &= (uint32_t)~RTC_CR_WUCKSEL;
 1553              		.loc 1 840 0
 1554 007e 9A68     		ldr	r2, [r3, #8]	@ D.8352, _33->CR
 1555 0080 22F00702 		bic	r2, r2, #7	@ D.8352, D.8352,
 1556 0084 9A60     		str	r2, [r3, #8]	@ D.8352, _33->CR
 841:../STM32Cube_FW_F4_V1.4.0/Drivers/STM32F4xx_HAL_Driver/Src/stm32f4xx_hal_rtc_ex.c **** 
 842:../STM32Cube_FW_F4_V1.4.0/Drivers/STM32F4xx_HAL_Driver/Src/stm32f4xx_hal_rtc_ex.c ****   /* Configure the clock source */
 843:../STM32Cube_FW_F4_V1.4.0/Drivers/STM32F4xx_HAL_Driver/Src/stm32f4xx_hal_rtc_ex.c ****   hrtc->Instance->CR |= (uint32_t)WakeUpClock;
 1557              		.loc 1 843 0
 1558 0086 9A68     		ldr	r2, [r3, #8]	@ D.8352, _33->CR
 1559 0088 3243     		orrs	r2, r2, r6	@, D.8352, D.8352, WakeUpClock
 1560 008a 9A60     		str	r2, [r3, #8]	@ D.8352, _33->CR
 844:../STM32Cube_FW_F4_V1.4.0/Drivers/STM32F4xx_HAL_Driver/Src/stm32f4xx_hal_rtc_ex.c ****   
 845:../STM32Cube_FW_F4_V1.4.0/Drivers/STM32F4xx_HAL_Driver/Src/stm32f4xx_hal_rtc_ex.c ****   /* RTC WakeUpTimer Interrupt Configuration: EXTI configuration */
 846:../STM32Cube_FW_F4_V1.4.0/Drivers/STM32F4xx_HAL_Driver/Src/stm32f4xx_hal_rtc_ex.c ****   __HAL_RTC_WAKEUPTIMER_EXTI_ENABLE_IT();
 1561              		.loc 1 846 0
 1562 008c 0D4A     		ldr	r2, .L211+4	@ tmp154,
 1563 008e 1168     		ldr	r1, [r2]	@ D.8352, MEM[(struct EXTI_TypeDef *)1073822720B].IMR
 1564 0090 41F48001 		orr	r1, r1, #4194304	@ D.8352, D.8352,
 1565 0094 1160     		str	r1, [r2]	@ D.8352, MEM[(struct EXTI_TypeDef *)1073822720B].IMR
 847:../STM32Cube_FW_F4_V1.4.0/Drivers/STM32F4xx_HAL_Driver/Src/stm32f4xx_hal_rtc_ex.c ****   
 848:../STM32Cube_FW_F4_V1.4.0/Drivers/STM32F4xx_HAL_Driver/Src/stm32f4xx_hal_rtc_ex.c ****   EXTI->RTSR |= RTC_EXTI_LINE_WAKEUPTIMER_EVENT;
 1566              		.loc 1 848 0
 1567 0096 9168     		ldr	r1, [r2, #8]	@ D.8352, MEM[(struct EXTI_TypeDef *)1073822720B].RTSR
 1568 0098 41F48001 		orr	r1, r1, #4194304	@ D.8352, D.8352,
 1569 009c 9160     		str	r1, [r2, #8]	@ D.8352, MEM[(struct EXTI_TypeDef *)1073822720B].RTSR
 849:../STM32Cube_FW_F4_V1.4.0/Drivers/STM32F4xx_HAL_Driver/Src/stm32f4xx_hal_rtc_ex.c ****   
 850:../STM32Cube_FW_F4_V1.4.0/Drivers/STM32F4xx_HAL_Driver/Src/stm32f4xx_hal_rtc_ex.c ****   /* Configure the Interrupt in the RTC_CR register */
 851:../STM32Cube_FW_F4_V1.4.0/Drivers/STM32F4xx_HAL_Driver/Src/stm32f4xx_hal_rtc_ex.c ****   __HAL_RTC_WAKEUPTIMER_ENABLE_IT(hrtc,RTC_IT_WUT);
 1570              		.loc 1 851 0
 1571 009e 9A68     		ldr	r2, [r3, #8]	@ D.8352, _33->CR
 1572 00a0 42F48042 		orr	r2, r2, #16384	@ D.8352, D.8352,
 1573 00a4 9A60     		str	r2, [r3, #8]	@ D.8352, _33->CR
 852:../STM32Cube_FW_F4_V1.4.0/Drivers/STM32F4xx_HAL_Driver/Src/stm32f4xx_hal_rtc_ex.c ****   
 853:../STM32Cube_FW_F4_V1.4.0/Drivers/STM32F4xx_HAL_Driver/Src/stm32f4xx_hal_rtc_ex.c ****   /* Enable the Wake-up Timer */
 854:../STM32Cube_FW_F4_V1.4.0/Drivers/STM32F4xx_HAL_Driver/Src/stm32f4xx_hal_rtc_ex.c ****   __HAL_RTC_WAKEUPTIMER_ENABLE(hrtc);
 1574              		.loc 1 854 0
 1575 00a6 9A68     		ldr	r2, [r3, #8]	@ D.8352, _33->CR
 1576 00a8 42F48062 		orr	r2, r2, #1024	@ D.8352, D.8352,
 1577 00ac 9A60     		str	r2, [r3, #8]	@ D.8352, _33->CR
 855:../STM32Cube_FW_F4_V1.4.0/Drivers/STM32F4xx_HAL_Driver/Src/stm32f4xx_hal_rtc_ex.c ****     
 856:../STM32Cube_FW_F4_V1.4.0/Drivers/STM32F4xx_HAL_Driver/Src/stm32f4xx_hal_rtc_ex.c ****   /* Enable the write protection for RTC registers */
 857:../STM32Cube_FW_F4_V1.4.0/Drivers/STM32F4xx_HAL_Driver/Src/stm32f4xx_hal_rtc_ex.c ****   __HAL_RTC_WRITEPROTECTION_ENABLE(hrtc); 
 1578              		.loc 1 857 0
 1579 00ae FF22     		movs	r2, #255	@ tmp158,
 1580 00b0 5A62     		str	r2, [r3, #36]	@ tmp158, _33->WPR
 858:../STM32Cube_FW_F4_V1.4.0/Drivers/STM32F4xx_HAL_Driver/Src/stm32f4xx_hal_rtc_ex.c ****   
 859:../STM32Cube_FW_F4_V1.4.0/Drivers/STM32F4xx_HAL_Driver/Src/stm32f4xx_hal_rtc_ex.c ****   hrtc->State = HAL_RTC_STATE_READY;   
 860:../STM32Cube_FW_F4_V1.4.0/Drivers/STM32F4xx_HAL_Driver/Src/stm32f4xx_hal_rtc_ex.c ****   
 861:../STM32Cube_FW_F4_V1.4.0/Drivers/STM32F4xx_HAL_Driver/Src/stm32f4xx_hal_rtc_ex.c ****   /* Process Unlocked */ 
 862:../STM32Cube_FW_F4_V1.4.0/Drivers/STM32F4xx_HAL_Driver/Src/stm32f4xx_hal_rtc_ex.c ****   __HAL_UNLOCK(hrtc);
 1581              		.loc 1 862 0
 1582 00b2 0020     		movs	r0, #0	@ tmp161,
 859:../STM32Cube_FW_F4_V1.4.0/Drivers/STM32F4xx_HAL_Driver/Src/stm32f4xx_hal_rtc_ex.c ****   
 1583              		.loc 1 859 0
 1584 00b4 0123     		movs	r3, #1	@ tmp159,
ARM GAS  C:\cygwin\tmp\ccim5MRL.s 			page 45


 1585 00b6 6377     		strb	r3, [r4, #29]	@ tmp159, hrtc_11(D)->State
 1586              		.loc 1 862 0
 1587 00b8 2077     		strb	r0, [r4, #28]	@ tmp161, hrtc_11(D)->Lock
 1588              	.LVL118:
 1589              	.L202:
 863:../STM32Cube_FW_F4_V1.4.0/Drivers/STM32F4xx_HAL_Driver/Src/stm32f4xx_hal_rtc_ex.c ****  
 864:../STM32Cube_FW_F4_V1.4.0/Drivers/STM32F4xx_HAL_Driver/Src/stm32f4xx_hal_rtc_ex.c ****   return HAL_OK;
 865:../STM32Cube_FW_F4_V1.4.0/Drivers/STM32F4xx_HAL_Driver/Src/stm32f4xx_hal_rtc_ex.c **** }
 1590              		.loc 1 865 0
 1591 00ba BDE8F081 		pop	{r4, r5, r6, r7, r8, pc}	@
 1592              	.LVL119:
 1593              	.L212:
 1594 00be 00BF     		.align	2
 1595              	.L211:
 1596 00c0 00000000 		.word	.LC0
 1597 00c4 003C0140 		.word	1073822720
 1598              		.cfi_endproc
 1599              	.LFE138:
 1600              		.size	HAL_RTCEx_SetWakeUpTimer_IT, .-HAL_RTCEx_SetWakeUpTimer_IT
 1601              		.section	.text.HAL_RTCEx_DeactivateWakeUpTimer,"ax",%progbits
 1602              		.align	1
 1603              		.global	HAL_RTCEx_DeactivateWakeUpTimer
 1604              		.thumb
 1605              		.thumb_func
 1606              		.type	HAL_RTCEx_DeactivateWakeUpTimer, %function
 1607              	HAL_RTCEx_DeactivateWakeUpTimer:
 1608              	.LFB139:
 866:../STM32Cube_FW_F4_V1.4.0/Drivers/STM32F4xx_HAL_Driver/Src/stm32f4xx_hal_rtc_ex.c **** 
 867:../STM32Cube_FW_F4_V1.4.0/Drivers/STM32F4xx_HAL_Driver/Src/stm32f4xx_hal_rtc_ex.c **** /**
 868:../STM32Cube_FW_F4_V1.4.0/Drivers/STM32F4xx_HAL_Driver/Src/stm32f4xx_hal_rtc_ex.c ****   * @brief  Deactivates wake up timer counter.
 869:../STM32Cube_FW_F4_V1.4.0/Drivers/STM32F4xx_HAL_Driver/Src/stm32f4xx_hal_rtc_ex.c ****   * @param  hrtc: pointer to a RTC_HandleTypeDef structure that contains
 870:../STM32Cube_FW_F4_V1.4.0/Drivers/STM32F4xx_HAL_Driver/Src/stm32f4xx_hal_rtc_ex.c ****   *                the configuration information for RTC. 
 871:../STM32Cube_FW_F4_V1.4.0/Drivers/STM32F4xx_HAL_Driver/Src/stm32f4xx_hal_rtc_ex.c ****   * @retval HAL status
 872:../STM32Cube_FW_F4_V1.4.0/Drivers/STM32F4xx_HAL_Driver/Src/stm32f4xx_hal_rtc_ex.c ****   */
 873:../STM32Cube_FW_F4_V1.4.0/Drivers/STM32F4xx_HAL_Driver/Src/stm32f4xx_hal_rtc_ex.c **** uint32_t HAL_RTCEx_DeactivateWakeUpTimer(RTC_HandleTypeDef *hrtc)
 874:../STM32Cube_FW_F4_V1.4.0/Drivers/STM32F4xx_HAL_Driver/Src/stm32f4xx_hal_rtc_ex.c **** {
 1609              		.loc 1 874 0
 1610              		.cfi_startproc
 1611              		@ args = 0, pretend = 0, frame = 0
 1612              		@ frame_needed = 0, uses_anonymous_args = 0
 1613              	.LVL120:
 875:../STM32Cube_FW_F4_V1.4.0/Drivers/STM32F4xx_HAL_Driver/Src/stm32f4xx_hal_rtc_ex.c ****   uint32_t tickstart = 0;
 876:../STM32Cube_FW_F4_V1.4.0/Drivers/STM32F4xx_HAL_Driver/Src/stm32f4xx_hal_rtc_ex.c ****   
 877:../STM32Cube_FW_F4_V1.4.0/Drivers/STM32F4xx_HAL_Driver/Src/stm32f4xx_hal_rtc_ex.c ****   /* Process Locked */ 
 878:../STM32Cube_FW_F4_V1.4.0/Drivers/STM32F4xx_HAL_Driver/Src/stm32f4xx_hal_rtc_ex.c ****   __HAL_LOCK(hrtc);
 1614              		.loc 1 878 0
 1615 0000 037F     		ldrb	r3, [r0, #28]	@ zero_extendqisi2	@ hrtc_5(D)->Lock, hrtc_5(D)->Lock
 1616 0002 012B     		cmp	r3, #1	@ hrtc_5(D)->Lock,
 874:../STM32Cube_FW_F4_V1.4.0/Drivers/STM32F4xx_HAL_Driver/Src/stm32f4xx_hal_rtc_ex.c ****   uint32_t tickstart = 0;
 1617              		.loc 1 874 0
 1618 0004 70B5     		push	{r4, r5, r6, lr}	@
 1619              		.cfi_def_cfa_offset 16
 1620              		.cfi_offset 4, -16
 1621              		.cfi_offset 5, -12
 1622              		.cfi_offset 6, -8
 1623              		.cfi_offset 14, -4
 874:../STM32Cube_FW_F4_V1.4.0/Drivers/STM32F4xx_HAL_Driver/Src/stm32f4xx_hal_rtc_ex.c ****   uint32_t tickstart = 0;
ARM GAS  C:\cygwin\tmp\ccim5MRL.s 			page 46


 1624              		.loc 1 874 0
 1625 0006 0446     		mov	r4, r0	@ hrtc, hrtc
 1626 0008 4FF00200 		mov	r0, #2	@ D.8355,
 1627              	.LVL121:
 1628              		.loc 1 878 0
 1629 000c 2AD0     		beq	.L214	@,
 1630              		.loc 1 878 0 is_stmt 0 discriminator 2
 1631 000e 0123     		movs	r3, #1	@ tmp127,
 1632 0010 2377     		strb	r3, [r4, #28]	@ tmp127, hrtc_5(D)->Lock
 879:../STM32Cube_FW_F4_V1.4.0/Drivers/STM32F4xx_HAL_Driver/Src/stm32f4xx_hal_rtc_ex.c ****   
 880:../STM32Cube_FW_F4_V1.4.0/Drivers/STM32F4xx_HAL_Driver/Src/stm32f4xx_hal_rtc_ex.c ****   hrtc->State = HAL_RTC_STATE_BUSY;
 881:../STM32Cube_FW_F4_V1.4.0/Drivers/STM32F4xx_HAL_Driver/Src/stm32f4xx_hal_rtc_ex.c ****   
 882:../STM32Cube_FW_F4_V1.4.0/Drivers/STM32F4xx_HAL_Driver/Src/stm32f4xx_hal_rtc_ex.c ****   /* Disable the write protection for RTC registers */
 883:../STM32Cube_FW_F4_V1.4.0/Drivers/STM32F4xx_HAL_Driver/Src/stm32f4xx_hal_rtc_ex.c ****   __HAL_RTC_WRITEPROTECTION_DISABLE(hrtc);
 1633              		.loc 1 883 0 is_stmt 1 discriminator 2
 1634 0012 2368     		ldr	r3, [r4]	@ D.8357, hrtc_5(D)->Instance
 880:../STM32Cube_FW_F4_V1.4.0/Drivers/STM32F4xx_HAL_Driver/Src/stm32f4xx_hal_rtc_ex.c ****   
 1635              		.loc 1 880 0 discriminator 2
 1636 0014 6077     		strb	r0, [r4, #29]	@ D.8355, hrtc_5(D)->State
 1637              		.loc 1 883 0 discriminator 2
 1638 0016 CA22     		movs	r2, #202	@ tmp131,
 1639 0018 5A62     		str	r2, [r3, #36]	@ tmp131, _9->WPR
 1640 001a 5322     		movs	r2, #83	@ tmp132,
 1641 001c 5A62     		str	r2, [r3, #36]	@ tmp132, _9->WPR
 884:../STM32Cube_FW_F4_V1.4.0/Drivers/STM32F4xx_HAL_Driver/Src/stm32f4xx_hal_rtc_ex.c ****   
 885:../STM32Cube_FW_F4_V1.4.0/Drivers/STM32F4xx_HAL_Driver/Src/stm32f4xx_hal_rtc_ex.c ****   /* Disable the Wake-up Timer */
 886:../STM32Cube_FW_F4_V1.4.0/Drivers/STM32F4xx_HAL_Driver/Src/stm32f4xx_hal_rtc_ex.c ****   __HAL_RTC_WAKEUPTIMER_DISABLE(hrtc);
 1642              		.loc 1 886 0 discriminator 2
 1643 001e 9A68     		ldr	r2, [r3, #8]	@ D.8358, _9->CR
 1644 0020 22F48062 		bic	r2, r2, #1024	@ D.8358, D.8358,
 1645 0024 9A60     		str	r2, [r3, #8]	@ D.8358, _9->CR
 887:../STM32Cube_FW_F4_V1.4.0/Drivers/STM32F4xx_HAL_Driver/Src/stm32f4xx_hal_rtc_ex.c ****   
 888:../STM32Cube_FW_F4_V1.4.0/Drivers/STM32F4xx_HAL_Driver/Src/stm32f4xx_hal_rtc_ex.c ****   /* In case of interrupt mode is used, the interrupt source must disabled */ 
 889:../STM32Cube_FW_F4_V1.4.0/Drivers/STM32F4xx_HAL_Driver/Src/stm32f4xx_hal_rtc_ex.c ****   __HAL_RTC_WAKEUPTIMER_DISABLE_IT(hrtc,RTC_IT_WUT);
 1646              		.loc 1 889 0 discriminator 2
 1647 0026 9A68     		ldr	r2, [r3, #8]	@ D.8358, _9->CR
 1648 0028 22F48042 		bic	r2, r2, #16384	@ D.8358, D.8358,
 1649 002c 9A60     		str	r2, [r3, #8]	@ D.8358, _9->CR
 890:../STM32Cube_FW_F4_V1.4.0/Drivers/STM32F4xx_HAL_Driver/Src/stm32f4xx_hal_rtc_ex.c **** 
 891:../STM32Cube_FW_F4_V1.4.0/Drivers/STM32F4xx_HAL_Driver/Src/stm32f4xx_hal_rtc_ex.c ****   /* Get tick */
 892:../STM32Cube_FW_F4_V1.4.0/Drivers/STM32F4xx_HAL_Driver/Src/stm32f4xx_hal_rtc_ex.c ****   tickstart = HAL_GetTick();
 1650              		.loc 1 892 0 discriminator 2
 1651 002e FFF7FEFF 		bl	HAL_GetTick	@
 1652              	.LVL122:
 1653 0032 0646     		mov	r6, r0	@ tickstart,
 1654              	.LVL123:
 1655              	.L215:
 893:../STM32Cube_FW_F4_V1.4.0/Drivers/STM32F4xx_HAL_Driver/Src/stm32f4xx_hal_rtc_ex.c **** 
 894:../STM32Cube_FW_F4_V1.4.0/Drivers/STM32F4xx_HAL_Driver/Src/stm32f4xx_hal_rtc_ex.c ****   /* Wait till RTC WUTWF flag is set and if Time out is reached exit */
 895:../STM32Cube_FW_F4_V1.4.0/Drivers/STM32F4xx_HAL_Driver/Src/stm32f4xx_hal_rtc_ex.c ****   while(__HAL_RTC_WAKEUPTIMER_GET_FLAG(hrtc, RTC_FLAG_WUTWF) == RESET)
 1656              		.loc 1 895 0
 1657 0034 2268     		ldr	r2, [r4]	@ D.8357, hrtc_5(D)->Instance
 1658 0036 D368     		ldr	r3, [r2, #12]	@ D.8358, _20->ISR
 1659 0038 13F00405 		ands	r5, r3, #4	@ D.8358, D.8358,
 1660 003c 0CD1     		bne	.L219	@,
 896:../STM32Cube_FW_F4_V1.4.0/Drivers/STM32F4xx_HAL_Driver/Src/stm32f4xx_hal_rtc_ex.c ****   {
 897:../STM32Cube_FW_F4_V1.4.0/Drivers/STM32F4xx_HAL_Driver/Src/stm32f4xx_hal_rtc_ex.c ****     if((HAL_GetTick() - tickstart ) > RTC_TIMEOUT_VALUE)
ARM GAS  C:\cygwin\tmp\ccim5MRL.s 			page 47


 1661              		.loc 1 897 0
 1662 003e FFF7FEFF 		bl	HAL_GetTick	@
 1663              	.LVL124:
 1664 0042 801B     		subs	r0, r0, r6	@ D.8358,, tickstart
 1665 0044 B0F57A7F 		cmp	r0, #1000	@ D.8358,
 1666 0048 F4D9     		bls	.L215	@,
 898:../STM32Cube_FW_F4_V1.4.0/Drivers/STM32F4xx_HAL_Driver/Src/stm32f4xx_hal_rtc_ex.c ****     {
 899:../STM32Cube_FW_F4_V1.4.0/Drivers/STM32F4xx_HAL_Driver/Src/stm32f4xx_hal_rtc_ex.c ****       /* Enable the write protection for RTC registers */
 900:../STM32Cube_FW_F4_V1.4.0/Drivers/STM32F4xx_HAL_Driver/Src/stm32f4xx_hal_rtc_ex.c ****       __HAL_RTC_WRITEPROTECTION_ENABLE(hrtc);
 1667              		.loc 1 900 0
 1668 004a 2368     		ldr	r3, [r4]	@ D.8357, hrtc_5(D)->Instance
 1669 004c FF22     		movs	r2, #255	@ tmp134,
 901:../STM32Cube_FW_F4_V1.4.0/Drivers/STM32F4xx_HAL_Driver/Src/stm32f4xx_hal_rtc_ex.c ****       
 902:../STM32Cube_FW_F4_V1.4.0/Drivers/STM32F4xx_HAL_Driver/Src/stm32f4xx_hal_rtc_ex.c ****       hrtc->State = HAL_RTC_STATE_TIMEOUT; 
 1670              		.loc 1 902 0
 1671 004e 0320     		movs	r0, #3	@ tmp135,
 900:../STM32Cube_FW_F4_V1.4.0/Drivers/STM32F4xx_HAL_Driver/Src/stm32f4xx_hal_rtc_ex.c ****       
 1672              		.loc 1 900 0
 1673 0050 5A62     		str	r2, [r3, #36]	@ tmp134, _26->WPR
 1674              		.loc 1 902 0
 1675 0052 6077     		strb	r0, [r4, #29]	@ tmp135, hrtc_5(D)->State
 903:../STM32Cube_FW_F4_V1.4.0/Drivers/STM32F4xx_HAL_Driver/Src/stm32f4xx_hal_rtc_ex.c ****       
 904:../STM32Cube_FW_F4_V1.4.0/Drivers/STM32F4xx_HAL_Driver/Src/stm32f4xx_hal_rtc_ex.c ****       /* Process Unlocked */ 
 905:../STM32Cube_FW_F4_V1.4.0/Drivers/STM32F4xx_HAL_Driver/Src/stm32f4xx_hal_rtc_ex.c ****       __HAL_UNLOCK(hrtc);
 1676              		.loc 1 905 0
 1677 0054 2577     		strb	r5, [r4, #28]	@ D.8358, hrtc_5(D)->Lock
 906:../STM32Cube_FW_F4_V1.4.0/Drivers/STM32F4xx_HAL_Driver/Src/stm32f4xx_hal_rtc_ex.c ****       
 907:../STM32Cube_FW_F4_V1.4.0/Drivers/STM32F4xx_HAL_Driver/Src/stm32f4xx_hal_rtc_ex.c ****       return HAL_TIMEOUT;
 1678              		.loc 1 907 0
 1679 0056 70BD     		pop	{r4, r5, r6, pc}	@
 1680              	.LVL125:
 1681              	.L219:
 908:../STM32Cube_FW_F4_V1.4.0/Drivers/STM32F4xx_HAL_Driver/Src/stm32f4xx_hal_rtc_ex.c ****     }   
 909:../STM32Cube_FW_F4_V1.4.0/Drivers/STM32F4xx_HAL_Driver/Src/stm32f4xx_hal_rtc_ex.c ****   }
 910:../STM32Cube_FW_F4_V1.4.0/Drivers/STM32F4xx_HAL_Driver/Src/stm32f4xx_hal_rtc_ex.c ****   
 911:../STM32Cube_FW_F4_V1.4.0/Drivers/STM32F4xx_HAL_Driver/Src/stm32f4xx_hal_rtc_ex.c ****   /* Enable the write protection for RTC registers */
 912:../STM32Cube_FW_F4_V1.4.0/Drivers/STM32F4xx_HAL_Driver/Src/stm32f4xx_hal_rtc_ex.c ****   __HAL_RTC_WRITEPROTECTION_ENABLE(hrtc);
 1682              		.loc 1 912 0
 1683 0058 FF23     		movs	r3, #255	@ tmp140,
 1684 005a 5362     		str	r3, [r2, #36]	@ tmp140, _30->WPR
 913:../STM32Cube_FW_F4_V1.4.0/Drivers/STM32F4xx_HAL_Driver/Src/stm32f4xx_hal_rtc_ex.c ****   
 914:../STM32Cube_FW_F4_V1.4.0/Drivers/STM32F4xx_HAL_Driver/Src/stm32f4xx_hal_rtc_ex.c ****   hrtc->State = HAL_RTC_STATE_READY;   
 915:../STM32Cube_FW_F4_V1.4.0/Drivers/STM32F4xx_HAL_Driver/Src/stm32f4xx_hal_rtc_ex.c ****   
 916:../STM32Cube_FW_F4_V1.4.0/Drivers/STM32F4xx_HAL_Driver/Src/stm32f4xx_hal_rtc_ex.c ****   /* Process Unlocked */ 
 917:../STM32Cube_FW_F4_V1.4.0/Drivers/STM32F4xx_HAL_Driver/Src/stm32f4xx_hal_rtc_ex.c ****   __HAL_UNLOCK(hrtc);
 1685              		.loc 1 917 0
 1686 005c 0020     		movs	r0, #0	@ tmp143,
 914:../STM32Cube_FW_F4_V1.4.0/Drivers/STM32F4xx_HAL_Driver/Src/stm32f4xx_hal_rtc_ex.c ****   
 1687              		.loc 1 914 0
 1688 005e 0123     		movs	r3, #1	@ tmp141,
 1689 0060 6377     		strb	r3, [r4, #29]	@ tmp141, hrtc_5(D)->State
 1690              		.loc 1 917 0
 1691 0062 2077     		strb	r0, [r4, #28]	@ tmp143, hrtc_5(D)->Lock
 1692              	.LVL126:
 1693              	.L214:
 918:../STM32Cube_FW_F4_V1.4.0/Drivers/STM32F4xx_HAL_Driver/Src/stm32f4xx_hal_rtc_ex.c ****   
 919:../STM32Cube_FW_F4_V1.4.0/Drivers/STM32F4xx_HAL_Driver/Src/stm32f4xx_hal_rtc_ex.c ****   return HAL_OK;
ARM GAS  C:\cygwin\tmp\ccim5MRL.s 			page 48


 920:../STM32Cube_FW_F4_V1.4.0/Drivers/STM32F4xx_HAL_Driver/Src/stm32f4xx_hal_rtc_ex.c **** }
 1694              		.loc 1 920 0
 1695 0064 70BD     		pop	{r4, r5, r6, pc}	@
 1696              		.cfi_endproc
 1697              	.LFE139:
 1698              		.size	HAL_RTCEx_DeactivateWakeUpTimer, .-HAL_RTCEx_DeactivateWakeUpTimer
 1699              		.section	.text.HAL_RTCEx_GetWakeUpTimer,"ax",%progbits
 1700              		.align	1
 1701              		.global	HAL_RTCEx_GetWakeUpTimer
 1702              		.thumb
 1703              		.thumb_func
 1704              		.type	HAL_RTCEx_GetWakeUpTimer, %function
 1705              	HAL_RTCEx_GetWakeUpTimer:
 1706              	.LFB140:
 921:../STM32Cube_FW_F4_V1.4.0/Drivers/STM32F4xx_HAL_Driver/Src/stm32f4xx_hal_rtc_ex.c **** 
 922:../STM32Cube_FW_F4_V1.4.0/Drivers/STM32F4xx_HAL_Driver/Src/stm32f4xx_hal_rtc_ex.c **** /**
 923:../STM32Cube_FW_F4_V1.4.0/Drivers/STM32F4xx_HAL_Driver/Src/stm32f4xx_hal_rtc_ex.c ****   * @brief  Gets wake up timer counter.
 924:../STM32Cube_FW_F4_V1.4.0/Drivers/STM32F4xx_HAL_Driver/Src/stm32f4xx_hal_rtc_ex.c ****   * @param  hrtc: pointer to a RTC_HandleTypeDef structure that contains
 925:../STM32Cube_FW_F4_V1.4.0/Drivers/STM32F4xx_HAL_Driver/Src/stm32f4xx_hal_rtc_ex.c ****   *                the configuration information for RTC. 
 926:../STM32Cube_FW_F4_V1.4.0/Drivers/STM32F4xx_HAL_Driver/Src/stm32f4xx_hal_rtc_ex.c ****   * @retval Counter value
 927:../STM32Cube_FW_F4_V1.4.0/Drivers/STM32F4xx_HAL_Driver/Src/stm32f4xx_hal_rtc_ex.c ****   */
 928:../STM32Cube_FW_F4_V1.4.0/Drivers/STM32F4xx_HAL_Driver/Src/stm32f4xx_hal_rtc_ex.c **** uint32_t HAL_RTCEx_GetWakeUpTimer(RTC_HandleTypeDef *hrtc)
 929:../STM32Cube_FW_F4_V1.4.0/Drivers/STM32F4xx_HAL_Driver/Src/stm32f4xx_hal_rtc_ex.c **** {
 1707              		.loc 1 929 0
 1708              		.cfi_startproc
 1709              		@ args = 0, pretend = 0, frame = 0
 1710              		@ frame_needed = 0, uses_anonymous_args = 0
 1711              		@ link register save eliminated.
 1712              	.LVL127:
 930:../STM32Cube_FW_F4_V1.4.0/Drivers/STM32F4xx_HAL_Driver/Src/stm32f4xx_hal_rtc_ex.c ****   /* Get the counter value */
 931:../STM32Cube_FW_F4_V1.4.0/Drivers/STM32F4xx_HAL_Driver/Src/stm32f4xx_hal_rtc_ex.c ****   return ((uint32_t)(hrtc->Instance->WUTR & RTC_WUTR_WUT)); 
 1713              		.loc 1 931 0
 1714 0000 0368     		ldr	r3, [r0]	@ D.8361, hrtc_2(D)->Instance
 1715 0002 5869     		ldr	r0, [r3, #20]	@ D.8362, _3->WUTR
 1716              	.LVL128:
 932:../STM32Cube_FW_F4_V1.4.0/Drivers/STM32F4xx_HAL_Driver/Src/stm32f4xx_hal_rtc_ex.c **** }
 1717              		.loc 1 932 0
 1718 0004 80B2     		uxth	r0, r0	@, D.8362
 1719 0006 7047     		bx	lr	@
 1720              		.cfi_endproc
 1721              	.LFE140:
 1722              		.size	HAL_RTCEx_GetWakeUpTimer, .-HAL_RTCEx_GetWakeUpTimer
 1723              		.section	.text.HAL_RTCEx_WakeUpTimerEventCallback,"ax",%progbits
 1724              		.align	1
 1725              		.weak	HAL_RTCEx_WakeUpTimerEventCallback
 1726              		.thumb
 1727              		.thumb_func
 1728              		.type	HAL_RTCEx_WakeUpTimerEventCallback, %function
 1729              	HAL_RTCEx_WakeUpTimerEventCallback:
 1730              	.LFB142:
 933:../STM32Cube_FW_F4_V1.4.0/Drivers/STM32F4xx_HAL_Driver/Src/stm32f4xx_hal_rtc_ex.c **** 
 934:../STM32Cube_FW_F4_V1.4.0/Drivers/STM32F4xx_HAL_Driver/Src/stm32f4xx_hal_rtc_ex.c **** /**
 935:../STM32Cube_FW_F4_V1.4.0/Drivers/STM32F4xx_HAL_Driver/Src/stm32f4xx_hal_rtc_ex.c ****   * @brief  This function handles Wake Up Timer interrupt request.
 936:../STM32Cube_FW_F4_V1.4.0/Drivers/STM32F4xx_HAL_Driver/Src/stm32f4xx_hal_rtc_ex.c ****   * @param  hrtc: pointer to a RTC_HandleTypeDef structure that contains
 937:../STM32Cube_FW_F4_V1.4.0/Drivers/STM32F4xx_HAL_Driver/Src/stm32f4xx_hal_rtc_ex.c ****   *                the configuration information for RTC.
 938:../STM32Cube_FW_F4_V1.4.0/Drivers/STM32F4xx_HAL_Driver/Src/stm32f4xx_hal_rtc_ex.c ****   * @retval None
 939:../STM32Cube_FW_F4_V1.4.0/Drivers/STM32F4xx_HAL_Driver/Src/stm32f4xx_hal_rtc_ex.c ****   */
ARM GAS  C:\cygwin\tmp\ccim5MRL.s 			page 49


 940:../STM32Cube_FW_F4_V1.4.0/Drivers/STM32F4xx_HAL_Driver/Src/stm32f4xx_hal_rtc_ex.c **** void HAL_RTCEx_WakeUpTimerIRQHandler(RTC_HandleTypeDef *hrtc)
 941:../STM32Cube_FW_F4_V1.4.0/Drivers/STM32F4xx_HAL_Driver/Src/stm32f4xx_hal_rtc_ex.c **** {  
 942:../STM32Cube_FW_F4_V1.4.0/Drivers/STM32F4xx_HAL_Driver/Src/stm32f4xx_hal_rtc_ex.c ****   if(__HAL_RTC_WAKEUPTIMER_GET_IT(hrtc, RTC_IT_WUT))
 943:../STM32Cube_FW_F4_V1.4.0/Drivers/STM32F4xx_HAL_Driver/Src/stm32f4xx_hal_rtc_ex.c ****   {
 944:../STM32Cube_FW_F4_V1.4.0/Drivers/STM32F4xx_HAL_Driver/Src/stm32f4xx_hal_rtc_ex.c ****     /* Get the status of the Interrupt */
 945:../STM32Cube_FW_F4_V1.4.0/Drivers/STM32F4xx_HAL_Driver/Src/stm32f4xx_hal_rtc_ex.c ****     if((uint32_t)(hrtc->Instance->CR & RTC_IT_WUT) != (uint32_t)RESET)
 946:../STM32Cube_FW_F4_V1.4.0/Drivers/STM32F4xx_HAL_Driver/Src/stm32f4xx_hal_rtc_ex.c ****     {
 947:../STM32Cube_FW_F4_V1.4.0/Drivers/STM32F4xx_HAL_Driver/Src/stm32f4xx_hal_rtc_ex.c ****       /* WAKEUPTIMER callback */ 
 948:../STM32Cube_FW_F4_V1.4.0/Drivers/STM32F4xx_HAL_Driver/Src/stm32f4xx_hal_rtc_ex.c ****       HAL_RTCEx_WakeUpTimerEventCallback(hrtc);
 949:../STM32Cube_FW_F4_V1.4.0/Drivers/STM32F4xx_HAL_Driver/Src/stm32f4xx_hal_rtc_ex.c ****       
 950:../STM32Cube_FW_F4_V1.4.0/Drivers/STM32F4xx_HAL_Driver/Src/stm32f4xx_hal_rtc_ex.c ****       /* Clear the WAKEUPTIMER interrupt pending bit */
 951:../STM32Cube_FW_F4_V1.4.0/Drivers/STM32F4xx_HAL_Driver/Src/stm32f4xx_hal_rtc_ex.c ****       __HAL_RTC_WAKEUPTIMER_CLEAR_FLAG(hrtc, RTC_FLAG_WUTF);
 952:../STM32Cube_FW_F4_V1.4.0/Drivers/STM32F4xx_HAL_Driver/Src/stm32f4xx_hal_rtc_ex.c ****     }
 953:../STM32Cube_FW_F4_V1.4.0/Drivers/STM32F4xx_HAL_Driver/Src/stm32f4xx_hal_rtc_ex.c ****   }
 954:../STM32Cube_FW_F4_V1.4.0/Drivers/STM32F4xx_HAL_Driver/Src/stm32f4xx_hal_rtc_ex.c ****   
 955:../STM32Cube_FW_F4_V1.4.0/Drivers/STM32F4xx_HAL_Driver/Src/stm32f4xx_hal_rtc_ex.c ****   /* Clear the EXTI's line Flag for RTC WakeUpTimer */
 956:../STM32Cube_FW_F4_V1.4.0/Drivers/STM32F4xx_HAL_Driver/Src/stm32f4xx_hal_rtc_ex.c ****   __HAL_RTC_WAKEUPTIMER_EXTI_CLEAR_FLAG();
 957:../STM32Cube_FW_F4_V1.4.0/Drivers/STM32F4xx_HAL_Driver/Src/stm32f4xx_hal_rtc_ex.c **** 
 958:../STM32Cube_FW_F4_V1.4.0/Drivers/STM32F4xx_HAL_Driver/Src/stm32f4xx_hal_rtc_ex.c ****   /* Change RTC state */
 959:../STM32Cube_FW_F4_V1.4.0/Drivers/STM32F4xx_HAL_Driver/Src/stm32f4xx_hal_rtc_ex.c ****   hrtc->State = HAL_RTC_STATE_READY; 
 960:../STM32Cube_FW_F4_V1.4.0/Drivers/STM32F4xx_HAL_Driver/Src/stm32f4xx_hal_rtc_ex.c **** }
 961:../STM32Cube_FW_F4_V1.4.0/Drivers/STM32F4xx_HAL_Driver/Src/stm32f4xx_hal_rtc_ex.c **** 
 962:../STM32Cube_FW_F4_V1.4.0/Drivers/STM32F4xx_HAL_Driver/Src/stm32f4xx_hal_rtc_ex.c **** /**
 963:../STM32Cube_FW_F4_V1.4.0/Drivers/STM32F4xx_HAL_Driver/Src/stm32f4xx_hal_rtc_ex.c ****   * @brief  Wake Up Timer callback.
 964:../STM32Cube_FW_F4_V1.4.0/Drivers/STM32F4xx_HAL_Driver/Src/stm32f4xx_hal_rtc_ex.c ****   * @param  hrtc: pointer to a RTC_HandleTypeDef structure that contains
 965:../STM32Cube_FW_F4_V1.4.0/Drivers/STM32F4xx_HAL_Driver/Src/stm32f4xx_hal_rtc_ex.c ****   *                the configuration information for RTC.
 966:../STM32Cube_FW_F4_V1.4.0/Drivers/STM32F4xx_HAL_Driver/Src/stm32f4xx_hal_rtc_ex.c ****   * @retval None
 967:../STM32Cube_FW_F4_V1.4.0/Drivers/STM32F4xx_HAL_Driver/Src/stm32f4xx_hal_rtc_ex.c ****   */
 968:../STM32Cube_FW_F4_V1.4.0/Drivers/STM32F4xx_HAL_Driver/Src/stm32f4xx_hal_rtc_ex.c **** __weak void HAL_RTCEx_WakeUpTimerEventCallback(RTC_HandleTypeDef *hrtc)
 969:../STM32Cube_FW_F4_V1.4.0/Drivers/STM32F4xx_HAL_Driver/Src/stm32f4xx_hal_rtc_ex.c **** {
 1731              		.loc 1 969 0
 1732              		.cfi_startproc
 1733              		@ args = 0, pretend = 0, frame = 0
 1734              		@ frame_needed = 0, uses_anonymous_args = 0
 1735              		@ link register save eliminated.
 1736              	.LVL129:
 1737 0000 7047     		bx	lr	@
 1738              		.cfi_endproc
 1739              	.LFE142:
 1740              		.size	HAL_RTCEx_WakeUpTimerEventCallback, .-HAL_RTCEx_WakeUpTimerEventCallback
 1741              		.section	.text.HAL_RTCEx_WakeUpTimerIRQHandler,"ax",%progbits
 1742              		.align	1
 1743              		.global	HAL_RTCEx_WakeUpTimerIRQHandler
 1744              		.thumb
 1745              		.thumb_func
 1746              		.type	HAL_RTCEx_WakeUpTimerIRQHandler, %function
 1747              	HAL_RTCEx_WakeUpTimerIRQHandler:
 1748              	.LFB141:
 941:../STM32Cube_FW_F4_V1.4.0/Drivers/STM32F4xx_HAL_Driver/Src/stm32f4xx_hal_rtc_ex.c ****   if(__HAL_RTC_WAKEUPTIMER_GET_IT(hrtc, RTC_IT_WUT))
 1749              		.loc 1 941 0
 1750              		.cfi_startproc
 1751              		@ args = 0, pretend = 0, frame = 0
 1752              		@ frame_needed = 0, uses_anonymous_args = 0
 1753              	.LVL130:
 942:../STM32Cube_FW_F4_V1.4.0/Drivers/STM32F4xx_HAL_Driver/Src/stm32f4xx_hal_rtc_ex.c ****   {
 1754              		.loc 1 942 0
 1755 0000 0368     		ldr	r3, [r0]	@ D.8368, hrtc_3(D)->Instance
ARM GAS  C:\cygwin\tmp\ccim5MRL.s 			page 50


 1756 0002 DA68     		ldr	r2, [r3, #12]	@ D.8369, _4->ISR
 1757 0004 5205     		lsls	r2, r2, #21	@, D.8369,
 941:../STM32Cube_FW_F4_V1.4.0/Drivers/STM32F4xx_HAL_Driver/Src/stm32f4xx_hal_rtc_ex.c ****   if(__HAL_RTC_WAKEUPTIMER_GET_IT(hrtc, RTC_IT_WUT))
 1758              		.loc 1 941 0
 1759 0006 10B5     		push	{r4, lr}	@
 1760              		.cfi_def_cfa_offset 8
 1761              		.cfi_offset 4, -8
 1762              		.cfi_offset 14, -4
 941:../STM32Cube_FW_F4_V1.4.0/Drivers/STM32F4xx_HAL_Driver/Src/stm32f4xx_hal_rtc_ex.c ****   if(__HAL_RTC_WAKEUPTIMER_GET_IT(hrtc, RTC_IT_WUT))
 1763              		.loc 1 941 0
 1764 0008 0446     		mov	r4, r0	@ hrtc, hrtc
 942:../STM32Cube_FW_F4_V1.4.0/Drivers/STM32F4xx_HAL_Driver/Src/stm32f4xx_hal_rtc_ex.c ****   {
 1765              		.loc 1 942 0
 1766 000a 0AD5     		bpl	.L223	@,
 945:../STM32Cube_FW_F4_V1.4.0/Drivers/STM32F4xx_HAL_Driver/Src/stm32f4xx_hal_rtc_ex.c ****     {
 1767              		.loc 1 945 0
 1768 000c 9B68     		ldr	r3, [r3, #8]	@ D.8369, _4->CR
 1769 000e 5B04     		lsls	r3, r3, #17	@, D.8369,
 1770 0010 07D5     		bpl	.L223	@,
 948:../STM32Cube_FW_F4_V1.4.0/Drivers/STM32F4xx_HAL_Driver/Src/stm32f4xx_hal_rtc_ex.c ****       
 1771              		.loc 1 948 0
 1772 0012 FFF7FEFF 		bl	HAL_RTCEx_WakeUpTimerEventCallback	@
 1773              	.LVL131:
 951:../STM32Cube_FW_F4_V1.4.0/Drivers/STM32F4xx_HAL_Driver/Src/stm32f4xx_hal_rtc_ex.c ****     }
 1774              		.loc 1 951 0
 1775 0016 2268     		ldr	r2, [r4]	@ D.8368, hrtc_3(D)->Instance
 1776 0018 D368     		ldr	r3, [r2, #12]	@ D.8369, _10->ISR
 1777 001a DBB2     		uxtb	r3, r3	@ D.8369, D.8369
 1778 001c 63F49063 		orn	r3, r3, #1152	@ D.8369, D.8369,
 1779 0020 D360     		str	r3, [r2, #12]	@ D.8369, _10->ISR
 1780              	.L223:
 956:../STM32Cube_FW_F4_V1.4.0/Drivers/STM32F4xx_HAL_Driver/Src/stm32f4xx_hal_rtc_ex.c **** 
 1781              		.loc 1 956 0
 1782 0022 034B     		ldr	r3, .L230	@ tmp123,
 1783 0024 4FF48002 		mov	r2, #4194304	@ tmp124,
 1784 0028 5A61     		str	r2, [r3, #20]	@ tmp124, MEM[(struct EXTI_TypeDef *)1073822720B].PR
 959:../STM32Cube_FW_F4_V1.4.0/Drivers/STM32F4xx_HAL_Driver/Src/stm32f4xx_hal_rtc_ex.c **** }
 1785              		.loc 1 959 0
 1786 002a 0123     		movs	r3, #1	@ tmp125,
 1787 002c 6377     		strb	r3, [r4, #29]	@ tmp125, hrtc_3(D)->State
 1788 002e 10BD     		pop	{r4, pc}	@
 1789              	.LVL132:
 1790              	.L231:
 1791              		.align	2
 1792              	.L230:
 1793 0030 003C0140 		.word	1073822720
 1794              		.cfi_endproc
 1795              	.LFE141:
 1796              		.size	HAL_RTCEx_WakeUpTimerIRQHandler, .-HAL_RTCEx_WakeUpTimerIRQHandler
 1797              		.section	.text.HAL_RTCEx_PollForWakeUpTimerEvent,"ax",%progbits
 1798              		.align	1
 1799              		.global	HAL_RTCEx_PollForWakeUpTimerEvent
 1800              		.thumb
 1801              		.thumb_func
 1802              		.type	HAL_RTCEx_PollForWakeUpTimerEvent, %function
 1803              	HAL_RTCEx_PollForWakeUpTimerEvent:
 1804              	.LFB143:
ARM GAS  C:\cygwin\tmp\ccim5MRL.s 			page 51


 970:../STM32Cube_FW_F4_V1.4.0/Drivers/STM32F4xx_HAL_Driver/Src/stm32f4xx_hal_rtc_ex.c ****   /* NOTE : This function Should not be modified, when the callback is needed,
 971:../STM32Cube_FW_F4_V1.4.0/Drivers/STM32F4xx_HAL_Driver/Src/stm32f4xx_hal_rtc_ex.c ****             the HAL_RTC_WakeUpTimerEventCallback could be implemented in the user file
 972:../STM32Cube_FW_F4_V1.4.0/Drivers/STM32F4xx_HAL_Driver/Src/stm32f4xx_hal_rtc_ex.c ****    */
 973:../STM32Cube_FW_F4_V1.4.0/Drivers/STM32F4xx_HAL_Driver/Src/stm32f4xx_hal_rtc_ex.c **** }
 974:../STM32Cube_FW_F4_V1.4.0/Drivers/STM32F4xx_HAL_Driver/Src/stm32f4xx_hal_rtc_ex.c **** 
 975:../STM32Cube_FW_F4_V1.4.0/Drivers/STM32F4xx_HAL_Driver/Src/stm32f4xx_hal_rtc_ex.c **** /**
 976:../STM32Cube_FW_F4_V1.4.0/Drivers/STM32F4xx_HAL_Driver/Src/stm32f4xx_hal_rtc_ex.c ****   * @brief  This function handles Wake Up Timer Polling.
 977:../STM32Cube_FW_F4_V1.4.0/Drivers/STM32F4xx_HAL_Driver/Src/stm32f4xx_hal_rtc_ex.c ****   * @param  hrtc: pointer to a RTC_HandleTypeDef structure that contains
 978:../STM32Cube_FW_F4_V1.4.0/Drivers/STM32F4xx_HAL_Driver/Src/stm32f4xx_hal_rtc_ex.c ****   *                the configuration information for RTC.
 979:../STM32Cube_FW_F4_V1.4.0/Drivers/STM32F4xx_HAL_Driver/Src/stm32f4xx_hal_rtc_ex.c ****   * @param  Timeout: Timeout duration
 980:../STM32Cube_FW_F4_V1.4.0/Drivers/STM32F4xx_HAL_Driver/Src/stm32f4xx_hal_rtc_ex.c ****   * @retval HAL status
 981:../STM32Cube_FW_F4_V1.4.0/Drivers/STM32F4xx_HAL_Driver/Src/stm32f4xx_hal_rtc_ex.c ****   */
 982:../STM32Cube_FW_F4_V1.4.0/Drivers/STM32F4xx_HAL_Driver/Src/stm32f4xx_hal_rtc_ex.c **** HAL_StatusTypeDef HAL_RTCEx_PollForWakeUpTimerEvent(RTC_HandleTypeDef *hrtc, uint32_t Timeout)
 983:../STM32Cube_FW_F4_V1.4.0/Drivers/STM32F4xx_HAL_Driver/Src/stm32f4xx_hal_rtc_ex.c **** {  
 1805              		.loc 1 983 0
 1806              		.cfi_startproc
 1807              		@ args = 0, pretend = 0, frame = 0
 1808              		@ frame_needed = 0, uses_anonymous_args = 0
 1809              	.LVL133:
 1810 0000 70B5     		push	{r4, r5, r6, lr}	@
 1811              		.cfi_def_cfa_offset 16
 1812              		.cfi_offset 4, -16
 1813              		.cfi_offset 5, -12
 1814              		.cfi_offset 6, -8
 1815              		.cfi_offset 14, -4
 1816              		.loc 1 983 0
 1817 0002 0446     		mov	r4, r0	@ hrtc, hrtc
 1818 0004 0D46     		mov	r5, r1	@ Timeout, Timeout
 984:../STM32Cube_FW_F4_V1.4.0/Drivers/STM32F4xx_HAL_Driver/Src/stm32f4xx_hal_rtc_ex.c ****   uint32_t tickstart = 0; 
 985:../STM32Cube_FW_F4_V1.4.0/Drivers/STM32F4xx_HAL_Driver/Src/stm32f4xx_hal_rtc_ex.c **** 
 986:../STM32Cube_FW_F4_V1.4.0/Drivers/STM32F4xx_HAL_Driver/Src/stm32f4xx_hal_rtc_ex.c ****   /* Get tick */
 987:../STM32Cube_FW_F4_V1.4.0/Drivers/STM32F4xx_HAL_Driver/Src/stm32f4xx_hal_rtc_ex.c ****   tickstart = HAL_GetTick();
 1819              		.loc 1 987 0
 1820 0006 FFF7FEFF 		bl	HAL_GetTick	@
 1821              	.LVL134:
 1822 000a 0646     		mov	r6, r0	@ tickstart,
 1823              	.LVL135:
 1824              	.L233:
 988:../STM32Cube_FW_F4_V1.4.0/Drivers/STM32F4xx_HAL_Driver/Src/stm32f4xx_hal_rtc_ex.c **** 
 989:../STM32Cube_FW_F4_V1.4.0/Drivers/STM32F4xx_HAL_Driver/Src/stm32f4xx_hal_rtc_ex.c ****   while(__HAL_RTC_WAKEUPTIMER_GET_FLAG(hrtc, RTC_FLAG_WUTF) == RESET)
 1825              		.loc 1 989 0
 1826 000c 2268     		ldr	r2, [r4]	@ D.8373, hrtc_8(D)->Instance
 1827              	.L234:
 1828 000e D368     		ldr	r3, [r2, #12]	@ D.8374, _9->ISR
 1829 0010 5B05     		lsls	r3, r3, #21	@, D.8374,
 1830 0012 0BD4     		bmi	.L241	@,
 990:../STM32Cube_FW_F4_V1.4.0/Drivers/STM32F4xx_HAL_Driver/Src/stm32f4xx_hal_rtc_ex.c ****   {
 991:../STM32Cube_FW_F4_V1.4.0/Drivers/STM32F4xx_HAL_Driver/Src/stm32f4xx_hal_rtc_ex.c ****     if(Timeout != HAL_MAX_DELAY)
 1831              		.loc 1 991 0
 1832 0014 691C     		adds	r1, r5, #1	@, Timeout,
 1833 0016 FAD0     		beq	.L234	@,
 992:../STM32Cube_FW_F4_V1.4.0/Drivers/STM32F4xx_HAL_Driver/Src/stm32f4xx_hal_rtc_ex.c ****     {
 993:../STM32Cube_FW_F4_V1.4.0/Drivers/STM32F4xx_HAL_Driver/Src/stm32f4xx_hal_rtc_ex.c ****       if((Timeout == 0)||((HAL_GetTick() - tickstart ) > Timeout))
 1834              		.loc 1 993 0
 1835 0018 15B9     		cbnz	r5, .L235	@ Timeout,
 1836              	.L237:
 994:../STM32Cube_FW_F4_V1.4.0/Drivers/STM32F4xx_HAL_Driver/Src/stm32f4xx_hal_rtc_ex.c ****       {
ARM GAS  C:\cygwin\tmp\ccim5MRL.s 			page 52


 995:../STM32Cube_FW_F4_V1.4.0/Drivers/STM32F4xx_HAL_Driver/Src/stm32f4xx_hal_rtc_ex.c ****         hrtc->State = HAL_RTC_STATE_TIMEOUT;
 1837              		.loc 1 995 0
 1838 001a 0320     		movs	r0, #3	@ tmp123,
 1839 001c 6077     		strb	r0, [r4, #29]	@ tmp123, hrtc_8(D)->State
 996:../STM32Cube_FW_F4_V1.4.0/Drivers/STM32F4xx_HAL_Driver/Src/stm32f4xx_hal_rtc_ex.c ****       
 997:../STM32Cube_FW_F4_V1.4.0/Drivers/STM32F4xx_HAL_Driver/Src/stm32f4xx_hal_rtc_ex.c ****         return HAL_TIMEOUT;
 1840              		.loc 1 997 0
 1841 001e 70BD     		pop	{r4, r5, r6, pc}	@
 1842              	.LVL136:
 1843              	.L235:
 993:../STM32Cube_FW_F4_V1.4.0/Drivers/STM32F4xx_HAL_Driver/Src/stm32f4xx_hal_rtc_ex.c ****       {
 1844              		.loc 1 993 0 discriminator 1
 1845 0020 FFF7FEFF 		bl	HAL_GetTick	@
 1846              	.LVL137:
 1847 0024 801B     		subs	r0, r0, r6	@ D.8374,, tickstart
 1848 0026 A842     		cmp	r0, r5	@ D.8374, Timeout
 1849 0028 F0D9     		bls	.L233	@,
 1850 002a F6E7     		b	.L237	@
 1851              	.L241:
 998:../STM32Cube_FW_F4_V1.4.0/Drivers/STM32F4xx_HAL_Driver/Src/stm32f4xx_hal_rtc_ex.c ****       }
 999:../STM32Cube_FW_F4_V1.4.0/Drivers/STM32F4xx_HAL_Driver/Src/stm32f4xx_hal_rtc_ex.c ****     }
1000:../STM32Cube_FW_F4_V1.4.0/Drivers/STM32F4xx_HAL_Driver/Src/stm32f4xx_hal_rtc_ex.c ****   }
1001:../STM32Cube_FW_F4_V1.4.0/Drivers/STM32F4xx_HAL_Driver/Src/stm32f4xx_hal_rtc_ex.c ****   
1002:../STM32Cube_FW_F4_V1.4.0/Drivers/STM32F4xx_HAL_Driver/Src/stm32f4xx_hal_rtc_ex.c ****   /* Clear the WAKEUPTIMER Flag */
1003:../STM32Cube_FW_F4_V1.4.0/Drivers/STM32F4xx_HAL_Driver/Src/stm32f4xx_hal_rtc_ex.c ****   __HAL_RTC_WAKEUPTIMER_CLEAR_FLAG(hrtc, RTC_FLAG_WUTF);
 1852              		.loc 1 1003 0
 1853 002c D368     		ldr	r3, [r2, #12]	@ D.8374, _3->ISR
 1854 002e DBB2     		uxtb	r3, r3	@ D.8374, D.8374
 1855 0030 63F49063 		orn	r3, r3, #1152	@ D.8374, D.8374,
 1856 0034 D360     		str	r3, [r2, #12]	@ D.8374, _3->ISR
1004:../STM32Cube_FW_F4_V1.4.0/Drivers/STM32F4xx_HAL_Driver/Src/stm32f4xx_hal_rtc_ex.c ****   
1005:../STM32Cube_FW_F4_V1.4.0/Drivers/STM32F4xx_HAL_Driver/Src/stm32f4xx_hal_rtc_ex.c ****   /* Change RTC state */
1006:../STM32Cube_FW_F4_V1.4.0/Drivers/STM32F4xx_HAL_Driver/Src/stm32f4xx_hal_rtc_ex.c ****   hrtc->State = HAL_RTC_STATE_READY;
 1857              		.loc 1 1006 0
 1858 0036 0123     		movs	r3, #1	@ tmp128,
 1859 0038 6377     		strb	r3, [r4, #29]	@ tmp128, hrtc_8(D)->State
1007:../STM32Cube_FW_F4_V1.4.0/Drivers/STM32F4xx_HAL_Driver/Src/stm32f4xx_hal_rtc_ex.c ****   
1008:../STM32Cube_FW_F4_V1.4.0/Drivers/STM32F4xx_HAL_Driver/Src/stm32f4xx_hal_rtc_ex.c ****   return HAL_OK; 
 1860              		.loc 1 1008 0
 1861 003a 0020     		movs	r0, #0	@ D.8372,
1009:../STM32Cube_FW_F4_V1.4.0/Drivers/STM32F4xx_HAL_Driver/Src/stm32f4xx_hal_rtc_ex.c **** }
 1862              		.loc 1 1009 0
 1863 003c 70BD     		pop	{r4, r5, r6, pc}	@
 1864              		.cfi_endproc
 1865              	.LFE143:
 1866              		.size	HAL_RTCEx_PollForWakeUpTimerEvent, .-HAL_RTCEx_PollForWakeUpTimerEvent
 1867              		.section	.text.HAL_RTCEx_BKUPWrite,"ax",%progbits
 1868              		.align	1
 1869              		.global	HAL_RTCEx_BKUPWrite
 1870              		.thumb
 1871              		.thumb_func
 1872              		.type	HAL_RTCEx_BKUPWrite, %function
 1873              	HAL_RTCEx_BKUPWrite:
 1874              	.LFB144:
1010:../STM32Cube_FW_F4_V1.4.0/Drivers/STM32F4xx_HAL_Driver/Src/stm32f4xx_hal_rtc_ex.c **** 
1011:../STM32Cube_FW_F4_V1.4.0/Drivers/STM32F4xx_HAL_Driver/Src/stm32f4xx_hal_rtc_ex.c **** /**
1012:../STM32Cube_FW_F4_V1.4.0/Drivers/STM32F4xx_HAL_Driver/Src/stm32f4xx_hal_rtc_ex.c ****   * @}
ARM GAS  C:\cygwin\tmp\ccim5MRL.s 			page 53


1013:../STM32Cube_FW_F4_V1.4.0/Drivers/STM32F4xx_HAL_Driver/Src/stm32f4xx_hal_rtc_ex.c ****   */
1014:../STM32Cube_FW_F4_V1.4.0/Drivers/STM32F4xx_HAL_Driver/Src/stm32f4xx_hal_rtc_ex.c **** 
1015:../STM32Cube_FW_F4_V1.4.0/Drivers/STM32F4xx_HAL_Driver/Src/stm32f4xx_hal_rtc_ex.c **** 
1016:../STM32Cube_FW_F4_V1.4.0/Drivers/STM32F4xx_HAL_Driver/Src/stm32f4xx_hal_rtc_ex.c **** /** @defgroup RTCEx_Exported_Functions_Group3 Extension Peripheral Control functions 
1017:../STM32Cube_FW_F4_V1.4.0/Drivers/STM32F4xx_HAL_Driver/Src/stm32f4xx_hal_rtc_ex.c ****  *  @brief   Extension Peripheral Control functions 
1018:../STM32Cube_FW_F4_V1.4.0/Drivers/STM32F4xx_HAL_Driver/Src/stm32f4xx_hal_rtc_ex.c ****  *
1019:../STM32Cube_FW_F4_V1.4.0/Drivers/STM32F4xx_HAL_Driver/Src/stm32f4xx_hal_rtc_ex.c **** @verbatim   
1020:../STM32Cube_FW_F4_V1.4.0/Drivers/STM32F4xx_HAL_Driver/Src/stm32f4xx_hal_rtc_ex.c ****  ===============================================================================
1021:../STM32Cube_FW_F4_V1.4.0/Drivers/STM32F4xx_HAL_Driver/Src/stm32f4xx_hal_rtc_ex.c ****               ##### Extension Peripheral Control functions #####
1022:../STM32Cube_FW_F4_V1.4.0/Drivers/STM32F4xx_HAL_Driver/Src/stm32f4xx_hal_rtc_ex.c ****  ===============================================================================  
1023:../STM32Cube_FW_F4_V1.4.0/Drivers/STM32F4xx_HAL_Driver/Src/stm32f4xx_hal_rtc_ex.c ****     [..]
1024:../STM32Cube_FW_F4_V1.4.0/Drivers/STM32F4xx_HAL_Driver/Src/stm32f4xx_hal_rtc_ex.c ****     This subsection provides functions allowing to
1025:../STM32Cube_FW_F4_V1.4.0/Drivers/STM32F4xx_HAL_Driver/Src/stm32f4xx_hal_rtc_ex.c ****       (+) Write a data in a specified RTC Backup data register
1026:../STM32Cube_FW_F4_V1.4.0/Drivers/STM32F4xx_HAL_Driver/Src/stm32f4xx_hal_rtc_ex.c ****       (+) Read a data in a specified RTC Backup data register
1027:../STM32Cube_FW_F4_V1.4.0/Drivers/STM32F4xx_HAL_Driver/Src/stm32f4xx_hal_rtc_ex.c ****       (+) Set the Coarse calibration parameters.
1028:../STM32Cube_FW_F4_V1.4.0/Drivers/STM32F4xx_HAL_Driver/Src/stm32f4xx_hal_rtc_ex.c ****       (+) Deactivate the Coarse calibration parameters
1029:../STM32Cube_FW_F4_V1.4.0/Drivers/STM32F4xx_HAL_Driver/Src/stm32f4xx_hal_rtc_ex.c ****       (+) Set the Smooth calibration parameters.
1030:../STM32Cube_FW_F4_V1.4.0/Drivers/STM32F4xx_HAL_Driver/Src/stm32f4xx_hal_rtc_ex.c ****       (+) Configure the Synchronization Shift Control Settings.
1031:../STM32Cube_FW_F4_V1.4.0/Drivers/STM32F4xx_HAL_Driver/Src/stm32f4xx_hal_rtc_ex.c ****       (+) Configure the Calibration Pinout (RTC_CALIB) Selection (1Hz or 512Hz).
1032:../STM32Cube_FW_F4_V1.4.0/Drivers/STM32F4xx_HAL_Driver/Src/stm32f4xx_hal_rtc_ex.c ****       (+) Deactivate the Calibration Pinout (RTC_CALIB) Selection (1Hz or 512Hz).
1033:../STM32Cube_FW_F4_V1.4.0/Drivers/STM32F4xx_HAL_Driver/Src/stm32f4xx_hal_rtc_ex.c ****       (+) Enable the RTC reference clock detection.
1034:../STM32Cube_FW_F4_V1.4.0/Drivers/STM32F4xx_HAL_Driver/Src/stm32f4xx_hal_rtc_ex.c ****       (+) Disable the RTC reference clock detection.
1035:../STM32Cube_FW_F4_V1.4.0/Drivers/STM32F4xx_HAL_Driver/Src/stm32f4xx_hal_rtc_ex.c ****       (+) Enable the Bypass Shadow feature.
1036:../STM32Cube_FW_F4_V1.4.0/Drivers/STM32F4xx_HAL_Driver/Src/stm32f4xx_hal_rtc_ex.c ****       (+) Disable the Bypass Shadow feature.
1037:../STM32Cube_FW_F4_V1.4.0/Drivers/STM32F4xx_HAL_Driver/Src/stm32f4xx_hal_rtc_ex.c **** 
1038:../STM32Cube_FW_F4_V1.4.0/Drivers/STM32F4xx_HAL_Driver/Src/stm32f4xx_hal_rtc_ex.c **** @endverbatim
1039:../STM32Cube_FW_F4_V1.4.0/Drivers/STM32F4xx_HAL_Driver/Src/stm32f4xx_hal_rtc_ex.c ****   * @{
1040:../STM32Cube_FW_F4_V1.4.0/Drivers/STM32F4xx_HAL_Driver/Src/stm32f4xx_hal_rtc_ex.c ****   */
1041:../STM32Cube_FW_F4_V1.4.0/Drivers/STM32F4xx_HAL_Driver/Src/stm32f4xx_hal_rtc_ex.c **** 
1042:../STM32Cube_FW_F4_V1.4.0/Drivers/STM32F4xx_HAL_Driver/Src/stm32f4xx_hal_rtc_ex.c **** /**
1043:../STM32Cube_FW_F4_V1.4.0/Drivers/STM32F4xx_HAL_Driver/Src/stm32f4xx_hal_rtc_ex.c ****   * @brief  Writes a data in a specified RTC Backup data register.
1044:../STM32Cube_FW_F4_V1.4.0/Drivers/STM32F4xx_HAL_Driver/Src/stm32f4xx_hal_rtc_ex.c ****   * @param  hrtc: pointer to a RTC_HandleTypeDef structure that contains
1045:../STM32Cube_FW_F4_V1.4.0/Drivers/STM32F4xx_HAL_Driver/Src/stm32f4xx_hal_rtc_ex.c ****   *                the configuration information for RTC. 
1046:../STM32Cube_FW_F4_V1.4.0/Drivers/STM32F4xx_HAL_Driver/Src/stm32f4xx_hal_rtc_ex.c ****   * @param  BackupRegister: RTC Backup data Register number.
1047:../STM32Cube_FW_F4_V1.4.0/Drivers/STM32F4xx_HAL_Driver/Src/stm32f4xx_hal_rtc_ex.c ****   *          This parameter can be: RTC_BKP_DRx where x can be from 0 to 19 to 
1048:../STM32Cube_FW_F4_V1.4.0/Drivers/STM32F4xx_HAL_Driver/Src/stm32f4xx_hal_rtc_ex.c ****   *                                 specify the register.
1049:../STM32Cube_FW_F4_V1.4.0/Drivers/STM32F4xx_HAL_Driver/Src/stm32f4xx_hal_rtc_ex.c ****   * @param  Data: Data to be written in the specified RTC Backup data register.                    
1050:../STM32Cube_FW_F4_V1.4.0/Drivers/STM32F4xx_HAL_Driver/Src/stm32f4xx_hal_rtc_ex.c ****   * @retval None
1051:../STM32Cube_FW_F4_V1.4.0/Drivers/STM32F4xx_HAL_Driver/Src/stm32f4xx_hal_rtc_ex.c ****   */
1052:../STM32Cube_FW_F4_V1.4.0/Drivers/STM32F4xx_HAL_Driver/Src/stm32f4xx_hal_rtc_ex.c **** void HAL_RTCEx_BKUPWrite(RTC_HandleTypeDef *hrtc, uint32_t BackupRegister, uint32_t Data)
1053:../STM32Cube_FW_F4_V1.4.0/Drivers/STM32F4xx_HAL_Driver/Src/stm32f4xx_hal_rtc_ex.c **** {
 1875              		.loc 1 1053 0
 1876              		.cfi_startproc
 1877              		@ args = 0, pretend = 0, frame = 0
 1878              		@ frame_needed = 0, uses_anonymous_args = 0
 1879              	.LVL138:
1054:../STM32Cube_FW_F4_V1.4.0/Drivers/STM32F4xx_HAL_Driver/Src/stm32f4xx_hal_rtc_ex.c ****   uint32_t tmp = 0;
1055:../STM32Cube_FW_F4_V1.4.0/Drivers/STM32F4xx_HAL_Driver/Src/stm32f4xx_hal_rtc_ex.c ****   
1056:../STM32Cube_FW_F4_V1.4.0/Drivers/STM32F4xx_HAL_Driver/Src/stm32f4xx_hal_rtc_ex.c ****   /* Check the parameters */
1057:../STM32Cube_FW_F4_V1.4.0/Drivers/STM32F4xx_HAL_Driver/Src/stm32f4xx_hal_rtc_ex.c ****   assert_param(IS_RTC_BKP(BackupRegister));
 1880              		.loc 1 1057 0
 1881 0000 1329     		cmp	r1, #19	@ BackupRegister,
1053:../STM32Cube_FW_F4_V1.4.0/Drivers/STM32F4xx_HAL_Driver/Src/stm32f4xx_hal_rtc_ex.c ****   uint32_t tmp = 0;
 1882              		.loc 1 1053 0
 1883 0002 70B5     		push	{r4, r5, r6, lr}	@
 1884              		.cfi_def_cfa_offset 16
 1885              		.cfi_offset 4, -16
ARM GAS  C:\cygwin\tmp\ccim5MRL.s 			page 54


 1886              		.cfi_offset 5, -12
 1887              		.cfi_offset 6, -8
 1888              		.cfi_offset 14, -4
1053:../STM32Cube_FW_F4_V1.4.0/Drivers/STM32F4xx_HAL_Driver/Src/stm32f4xx_hal_rtc_ex.c ****   uint32_t tmp = 0;
 1889              		.loc 1 1053 0
 1890 0004 0646     		mov	r6, r0	@ hrtc, hrtc
 1891 0006 0C46     		mov	r4, r1	@ BackupRegister, BackupRegister
 1892 0008 1546     		mov	r5, r2	@ Data, Data
 1893              		.loc 1 1057 0
 1894 000a 04D9     		bls	.L243	@,
 1895              		.loc 1 1057 0 is_stmt 0 discriminator 1
 1896 000c 0448     		ldr	r0, .L244	@,
 1897              	.LVL139:
 1898 000e 40F22141 		movw	r1, #1057	@,
 1899              	.LVL140:
 1900 0012 FFF7FEFF 		bl	assert_failed	@
 1901              	.LVL141:
 1902              	.L243:
1058:../STM32Cube_FW_F4_V1.4.0/Drivers/STM32F4xx_HAL_Driver/Src/stm32f4xx_hal_rtc_ex.c ****   
1059:../STM32Cube_FW_F4_V1.4.0/Drivers/STM32F4xx_HAL_Driver/Src/stm32f4xx_hal_rtc_ex.c ****   tmp = (uint32_t)&(hrtc->Instance->BKP0R);
 1903              		.loc 1 1059 0 is_stmt 1
 1904 0016 3368     		ldr	r3, [r6]	@ hrtc_5(D)->Instance, hrtc_5(D)->Instance
 1905 0018 5033     		adds	r3, r3, #80	@ tmp, hrtc_5(D)->Instance,
 1906              	.LVL142:
1060:../STM32Cube_FW_F4_V1.4.0/Drivers/STM32F4xx_HAL_Driver/Src/stm32f4xx_hal_rtc_ex.c ****   tmp += (BackupRegister * 4);
1061:../STM32Cube_FW_F4_V1.4.0/Drivers/STM32F4xx_HAL_Driver/Src/stm32f4xx_hal_rtc_ex.c ****   
1062:../STM32Cube_FW_F4_V1.4.0/Drivers/STM32F4xx_HAL_Driver/Src/stm32f4xx_hal_rtc_ex.c ****   /* Write the specified register */
1063:../STM32Cube_FW_F4_V1.4.0/Drivers/STM32F4xx_HAL_Driver/Src/stm32f4xx_hal_rtc_ex.c ****   *(__IO uint32_t *)tmp = (uint32_t)Data;
 1907              		.loc 1 1063 0
 1908 001a 43F82450 		str	r5, [r3, r4, lsl #2]	@ Data, *_11
 1909 001e 70BD     		pop	{r4, r5, r6, pc}	@
 1910              	.LVL143:
 1911              	.L245:
 1912              		.align	2
 1913              	.L244:
 1914 0020 00000000 		.word	.LC0
 1915              		.cfi_endproc
 1916              	.LFE144:
 1917              		.size	HAL_RTCEx_BKUPWrite, .-HAL_RTCEx_BKUPWrite
 1918              		.section	.text.HAL_RTCEx_BKUPRead,"ax",%progbits
 1919              		.align	1
 1920              		.global	HAL_RTCEx_BKUPRead
 1921              		.thumb
 1922              		.thumb_func
 1923              		.type	HAL_RTCEx_BKUPRead, %function
 1924              	HAL_RTCEx_BKUPRead:
 1925              	.LFB145:
1064:../STM32Cube_FW_F4_V1.4.0/Drivers/STM32F4xx_HAL_Driver/Src/stm32f4xx_hal_rtc_ex.c **** }
1065:../STM32Cube_FW_F4_V1.4.0/Drivers/STM32F4xx_HAL_Driver/Src/stm32f4xx_hal_rtc_ex.c **** 
1066:../STM32Cube_FW_F4_V1.4.0/Drivers/STM32F4xx_HAL_Driver/Src/stm32f4xx_hal_rtc_ex.c **** /**
1067:../STM32Cube_FW_F4_V1.4.0/Drivers/STM32F4xx_HAL_Driver/Src/stm32f4xx_hal_rtc_ex.c ****   * @brief  Reads data from the specified RTC Backup data Register.
1068:../STM32Cube_FW_F4_V1.4.0/Drivers/STM32F4xx_HAL_Driver/Src/stm32f4xx_hal_rtc_ex.c ****   * @param  hrtc: pointer to a RTC_HandleTypeDef structure that contains
1069:../STM32Cube_FW_F4_V1.4.0/Drivers/STM32F4xx_HAL_Driver/Src/stm32f4xx_hal_rtc_ex.c ****   *                the configuration information for RTC. 
1070:../STM32Cube_FW_F4_V1.4.0/Drivers/STM32F4xx_HAL_Driver/Src/stm32f4xx_hal_rtc_ex.c ****   * @param  BackupRegister: RTC Backup data Register number.
1071:../STM32Cube_FW_F4_V1.4.0/Drivers/STM32F4xx_HAL_Driver/Src/stm32f4xx_hal_rtc_ex.c ****   *          This parameter can be: RTC_BKP_DRx where x can be from 0 to 19 to 
1072:../STM32Cube_FW_F4_V1.4.0/Drivers/STM32F4xx_HAL_Driver/Src/stm32f4xx_hal_rtc_ex.c ****   *                                 specify the register.                   
1073:../STM32Cube_FW_F4_V1.4.0/Drivers/STM32F4xx_HAL_Driver/Src/stm32f4xx_hal_rtc_ex.c ****   * @retval Read value
ARM GAS  C:\cygwin\tmp\ccim5MRL.s 			page 55


1074:../STM32Cube_FW_F4_V1.4.0/Drivers/STM32F4xx_HAL_Driver/Src/stm32f4xx_hal_rtc_ex.c ****   */
1075:../STM32Cube_FW_F4_V1.4.0/Drivers/STM32F4xx_HAL_Driver/Src/stm32f4xx_hal_rtc_ex.c **** uint32_t HAL_RTCEx_BKUPRead(RTC_HandleTypeDef *hrtc, uint32_t BackupRegister)
1076:../STM32Cube_FW_F4_V1.4.0/Drivers/STM32F4xx_HAL_Driver/Src/stm32f4xx_hal_rtc_ex.c **** {
 1926              		.loc 1 1076 0
 1927              		.cfi_startproc
 1928              		@ args = 0, pretend = 0, frame = 0
 1929              		@ frame_needed = 0, uses_anonymous_args = 0
 1930              	.LVL144:
1077:../STM32Cube_FW_F4_V1.4.0/Drivers/STM32F4xx_HAL_Driver/Src/stm32f4xx_hal_rtc_ex.c ****   uint32_t tmp = 0;
1078:../STM32Cube_FW_F4_V1.4.0/Drivers/STM32F4xx_HAL_Driver/Src/stm32f4xx_hal_rtc_ex.c ****   
1079:../STM32Cube_FW_F4_V1.4.0/Drivers/STM32F4xx_HAL_Driver/Src/stm32f4xx_hal_rtc_ex.c ****   /* Check the parameters */
1080:../STM32Cube_FW_F4_V1.4.0/Drivers/STM32F4xx_HAL_Driver/Src/stm32f4xx_hal_rtc_ex.c ****   assert_param(IS_RTC_BKP(BackupRegister));
 1931              		.loc 1 1080 0
 1932 0000 1329     		cmp	r1, #19	@ BackupRegister,
1076:../STM32Cube_FW_F4_V1.4.0/Drivers/STM32F4xx_HAL_Driver/Src/stm32f4xx_hal_rtc_ex.c ****   uint32_t tmp = 0;
 1933              		.loc 1 1076 0
 1934 0002 38B5     		push	{r3, r4, r5, lr}	@
 1935              		.cfi_def_cfa_offset 16
 1936              		.cfi_offset 3, -16
 1937              		.cfi_offset 4, -12
 1938              		.cfi_offset 5, -8
 1939              		.cfi_offset 14, -4
1076:../STM32Cube_FW_F4_V1.4.0/Drivers/STM32F4xx_HAL_Driver/Src/stm32f4xx_hal_rtc_ex.c ****   uint32_t tmp = 0;
 1940              		.loc 1 1076 0
 1941 0004 0546     		mov	r5, r0	@ hrtc, hrtc
 1942 0006 0C46     		mov	r4, r1	@ BackupRegister, BackupRegister
 1943              		.loc 1 1080 0
 1944 0008 04D9     		bls	.L247	@,
 1945              		.loc 1 1080 0 is_stmt 0 discriminator 1
 1946 000a 0548     		ldr	r0, .L248	@,
 1947              	.LVL145:
 1948 000c 4FF48761 		mov	r1, #1080	@,
 1949              	.LVL146:
 1950 0010 FFF7FEFF 		bl	assert_failed	@
 1951              	.LVL147:
 1952              	.L247:
1081:../STM32Cube_FW_F4_V1.4.0/Drivers/STM32F4xx_HAL_Driver/Src/stm32f4xx_hal_rtc_ex.c **** 
1082:../STM32Cube_FW_F4_V1.4.0/Drivers/STM32F4xx_HAL_Driver/Src/stm32f4xx_hal_rtc_ex.c ****   tmp = (uint32_t)&(hrtc->Instance->BKP0R);
 1953              		.loc 1 1082 0 is_stmt 1
 1954 0014 2B68     		ldr	r3, [r5]	@ hrtc_5(D)->Instance, hrtc_5(D)->Instance
 1955 0016 5033     		adds	r3, r3, #80	@ tmp, hrtc_5(D)->Instance,
 1956              	.LVL148:
1083:../STM32Cube_FW_F4_V1.4.0/Drivers/STM32F4xx_HAL_Driver/Src/stm32f4xx_hal_rtc_ex.c ****   tmp += (BackupRegister * 4);
1084:../STM32Cube_FW_F4_V1.4.0/Drivers/STM32F4xx_HAL_Driver/Src/stm32f4xx_hal_rtc_ex.c ****   
1085:../STM32Cube_FW_F4_V1.4.0/Drivers/STM32F4xx_HAL_Driver/Src/stm32f4xx_hal_rtc_ex.c ****   /* Read the specified register */
1086:../STM32Cube_FW_F4_V1.4.0/Drivers/STM32F4xx_HAL_Driver/Src/stm32f4xx_hal_rtc_ex.c ****   return (*(__IO uint32_t *)tmp);
 1957              		.loc 1 1086 0
 1958 0018 53F82400 		ldr	r0, [r3, r4, lsl #2]	@ D.8385, *_11
1087:../STM32Cube_FW_F4_V1.4.0/Drivers/STM32F4xx_HAL_Driver/Src/stm32f4xx_hal_rtc_ex.c **** }
 1959              		.loc 1 1087 0
 1960 001c 38BD     		pop	{r3, r4, r5, pc}	@
 1961              	.LVL149:
 1962              	.L249:
 1963 001e 00BF     		.align	2
 1964              	.L248:
 1965 0020 00000000 		.word	.LC0
 1966              		.cfi_endproc
ARM GAS  C:\cygwin\tmp\ccim5MRL.s 			page 56


 1967              	.LFE145:
 1968              		.size	HAL_RTCEx_BKUPRead, .-HAL_RTCEx_BKUPRead
 1969              		.section	.text.HAL_RTCEx_SetCoarseCalib,"ax",%progbits
 1970              		.align	1
 1971              		.global	HAL_RTCEx_SetCoarseCalib
 1972              		.thumb
 1973              		.thumb_func
 1974              		.type	HAL_RTCEx_SetCoarseCalib, %function
 1975              	HAL_RTCEx_SetCoarseCalib:
 1976              	.LFB146:
1088:../STM32Cube_FW_F4_V1.4.0/Drivers/STM32F4xx_HAL_Driver/Src/stm32f4xx_hal_rtc_ex.c ****       
1089:../STM32Cube_FW_F4_V1.4.0/Drivers/STM32F4xx_HAL_Driver/Src/stm32f4xx_hal_rtc_ex.c **** /**
1090:../STM32Cube_FW_F4_V1.4.0/Drivers/STM32F4xx_HAL_Driver/Src/stm32f4xx_hal_rtc_ex.c ****   * @brief  Sets the Coarse calibration parameters.
1091:../STM32Cube_FW_F4_V1.4.0/Drivers/STM32F4xx_HAL_Driver/Src/stm32f4xx_hal_rtc_ex.c ****   * @param  hrtc: pointer to a RTC_HandleTypeDef structure that contains
1092:../STM32Cube_FW_F4_V1.4.0/Drivers/STM32F4xx_HAL_Driver/Src/stm32f4xx_hal_rtc_ex.c ****   *                the configuration information for RTC.  
1093:../STM32Cube_FW_F4_V1.4.0/Drivers/STM32F4xx_HAL_Driver/Src/stm32f4xx_hal_rtc_ex.c ****   * @param  CalibSign: Specifies the sign of the coarse calibration value.
1094:../STM32Cube_FW_F4_V1.4.0/Drivers/STM32F4xx_HAL_Driver/Src/stm32f4xx_hal_rtc_ex.c ****   *          This parameter can be  one of the following values :
1095:../STM32Cube_FW_F4_V1.4.0/Drivers/STM32F4xx_HAL_Driver/Src/stm32f4xx_hal_rtc_ex.c ****   *             @arg RTC_CALIBSIGN_POSITIVE: The value sign is positive 
1096:../STM32Cube_FW_F4_V1.4.0/Drivers/STM32F4xx_HAL_Driver/Src/stm32f4xx_hal_rtc_ex.c ****   *             @arg RTC_CALIBSIGN_NEGATIVE: The value sign is negative
1097:../STM32Cube_FW_F4_V1.4.0/Drivers/STM32F4xx_HAL_Driver/Src/stm32f4xx_hal_rtc_ex.c ****   * @param  Value: value of coarse calibration expressed in ppm (coded on 5 bits).
1098:../STM32Cube_FW_F4_V1.4.0/Drivers/STM32F4xx_HAL_Driver/Src/stm32f4xx_hal_rtc_ex.c ****   *    
1099:../STM32Cube_FW_F4_V1.4.0/Drivers/STM32F4xx_HAL_Driver/Src/stm32f4xx_hal_rtc_ex.c ****   * @note   This Calibration value should be between 0 and 63 when using negative
1100:../STM32Cube_FW_F4_V1.4.0/Drivers/STM32F4xx_HAL_Driver/Src/stm32f4xx_hal_rtc_ex.c ****   *         sign with a 2-ppm step.
1101:../STM32Cube_FW_F4_V1.4.0/Drivers/STM32F4xx_HAL_Driver/Src/stm32f4xx_hal_rtc_ex.c ****   *           
1102:../STM32Cube_FW_F4_V1.4.0/Drivers/STM32F4xx_HAL_Driver/Src/stm32f4xx_hal_rtc_ex.c ****   * @note   This Calibration value should be between 0 and 126 when using positive
1103:../STM32Cube_FW_F4_V1.4.0/Drivers/STM32F4xx_HAL_Driver/Src/stm32f4xx_hal_rtc_ex.c ****   *         sign with a 4-ppm step.
1104:../STM32Cube_FW_F4_V1.4.0/Drivers/STM32F4xx_HAL_Driver/Src/stm32f4xx_hal_rtc_ex.c ****   * @retval HAL status
1105:../STM32Cube_FW_F4_V1.4.0/Drivers/STM32F4xx_HAL_Driver/Src/stm32f4xx_hal_rtc_ex.c ****   */
1106:../STM32Cube_FW_F4_V1.4.0/Drivers/STM32F4xx_HAL_Driver/Src/stm32f4xx_hal_rtc_ex.c **** HAL_StatusTypeDef HAL_RTCEx_SetCoarseCalib(RTC_HandleTypeDef* hrtc, uint32_t CalibSign, uint32_t Va
1107:../STM32Cube_FW_F4_V1.4.0/Drivers/STM32F4xx_HAL_Driver/Src/stm32f4xx_hal_rtc_ex.c **** {
 1977              		.loc 1 1107 0
 1978              		.cfi_startproc
 1979              		@ args = 0, pretend = 0, frame = 0
 1980              		@ frame_needed = 0, uses_anonymous_args = 0
 1981              	.LVL150:
 1982 0000 F8B5     		push	{r3, r4, r5, r6, r7, lr}	@
 1983              		.cfi_def_cfa_offset 24
 1984              		.cfi_offset 3, -24
 1985              		.cfi_offset 4, -20
 1986              		.cfi_offset 5, -16
 1987              		.cfi_offset 6, -12
 1988              		.cfi_offset 7, -8
 1989              		.cfi_offset 14, -4
1108:../STM32Cube_FW_F4_V1.4.0/Drivers/STM32F4xx_HAL_Driver/Src/stm32f4xx_hal_rtc_ex.c ****   /* Check the parameters */
1109:../STM32Cube_FW_F4_V1.4.0/Drivers/STM32F4xx_HAL_Driver/Src/stm32f4xx_hal_rtc_ex.c ****   assert_param(IS_RTC_CALIB_SIGN(CalibSign));
 1990              		.loc 1 1109 0
 1991 0002 31F08003 		bics	r3, r1, #128	@ tmp149, CalibSign,
1107:../STM32Cube_FW_F4_V1.4.0/Drivers/STM32F4xx_HAL_Driver/Src/stm32f4xx_hal_rtc_ex.c ****   /* Check the parameters */
 1992              		.loc 1 1107 0
 1993 0006 0446     		mov	r4, r0	@ hrtc, hrtc
 1994 0008 0F46     		mov	r7, r1	@ CalibSign, CalibSign
 1995 000a 1546     		mov	r5, r2	@ Value, Value
 1996              		.loc 1 1109 0
 1997 000c 04D0     		beq	.L251	@,
 1998              		.loc 1 1109 0 is_stmt 0 discriminator 2
 1999 000e 1A48     		ldr	r0, .L259	@,
 2000              	.LVL151:
ARM GAS  C:\cygwin\tmp\ccim5MRL.s 			page 57


 2001 0010 40F25541 		movw	r1, #1109	@,
 2002              	.LVL152:
 2003 0014 FFF7FEFF 		bl	assert_failed	@
 2004              	.LVL153:
 2005              	.L251:
1110:../STM32Cube_FW_F4_V1.4.0/Drivers/STM32F4xx_HAL_Driver/Src/stm32f4xx_hal_rtc_ex.c ****   assert_param(IS_RTC_CALIB_VALUE(Value)); 
 2006              		.loc 1 1110 0 is_stmt 1
 2007 0018 1F2D     		cmp	r5, #31	@ Value,
 2008 001a 04D9     		bls	.L252	@,
 2009              		.loc 1 1110 0 is_stmt 0 discriminator 1
 2010 001c 1648     		ldr	r0, .L259	@,
 2011 001e 40F25641 		movw	r1, #1110	@,
 2012 0022 FFF7FEFF 		bl	assert_failed	@
 2013              	.LVL154:
 2014              	.L252:
1111:../STM32Cube_FW_F4_V1.4.0/Drivers/STM32F4xx_HAL_Driver/Src/stm32f4xx_hal_rtc_ex.c ****   
1112:../STM32Cube_FW_F4_V1.4.0/Drivers/STM32F4xx_HAL_Driver/Src/stm32f4xx_hal_rtc_ex.c ****   /* Process Locked */ 
1113:../STM32Cube_FW_F4_V1.4.0/Drivers/STM32F4xx_HAL_Driver/Src/stm32f4xx_hal_rtc_ex.c ****   __HAL_LOCK(hrtc);
 2015              		.loc 1 1113 0 is_stmt 1
 2016 0026 237F     		ldrb	r3, [r4, #28]	@ zero_extendqisi2	@ hrtc_10(D)->Lock, hrtc_10(D)->Lock
 2017 0028 012B     		cmp	r3, #1	@ hrtc_10(D)->Lock,
 2018 002a 4FF00200 		mov	r0, #2	@ D.8388,
 2019 002e 22D0     		beq	.L253	@,
1114:../STM32Cube_FW_F4_V1.4.0/Drivers/STM32F4xx_HAL_Driver/Src/stm32f4xx_hal_rtc_ex.c ****   
1115:../STM32Cube_FW_F4_V1.4.0/Drivers/STM32F4xx_HAL_Driver/Src/stm32f4xx_hal_rtc_ex.c ****   hrtc->State = HAL_RTC_STATE_BUSY;
1116:../STM32Cube_FW_F4_V1.4.0/Drivers/STM32F4xx_HAL_Driver/Src/stm32f4xx_hal_rtc_ex.c **** 
1117:../STM32Cube_FW_F4_V1.4.0/Drivers/STM32F4xx_HAL_Driver/Src/stm32f4xx_hal_rtc_ex.c ****   /* Disable the write protection for RTC registers */
1118:../STM32Cube_FW_F4_V1.4.0/Drivers/STM32F4xx_HAL_Driver/Src/stm32f4xx_hal_rtc_ex.c ****   __HAL_RTC_WRITEPROTECTION_DISABLE(hrtc);
 2020              		.loc 1 1118 0 discriminator 2
 2021 0030 2368     		ldr	r3, [r4]	@ D.8390, hrtc_10(D)->Instance
1115:../STM32Cube_FW_F4_V1.4.0/Drivers/STM32F4xx_HAL_Driver/Src/stm32f4xx_hal_rtc_ex.c **** 
 2022              		.loc 1 1115 0 discriminator 2
 2023 0032 6077     		strb	r0, [r4, #29]	@ D.8388, hrtc_10(D)->State
 2024              		.loc 1 1118 0 discriminator 2
 2025 0034 CA22     		movs	r2, #202	@ tmp133,
1113:../STM32Cube_FW_F4_V1.4.0/Drivers/STM32F4xx_HAL_Driver/Src/stm32f4xx_hal_rtc_ex.c ****   
 2026              		.loc 1 1113 0 discriminator 2
 2027 0036 0126     		movs	r6, #1	@ tmp129,
 2028 0038 2677     		strb	r6, [r4, #28]	@ tmp129, hrtc_10(D)->Lock
 2029              		.loc 1 1118 0 discriminator 2
 2030 003a 5A62     		str	r2, [r3, #36]	@ tmp133, _14->WPR
 2031 003c 5322     		movs	r2, #83	@ tmp134,
 2032 003e 5A62     		str	r2, [r3, #36]	@ tmp134, _14->WPR
1119:../STM32Cube_FW_F4_V1.4.0/Drivers/STM32F4xx_HAL_Driver/Src/stm32f4xx_hal_rtc_ex.c **** 
1120:../STM32Cube_FW_F4_V1.4.0/Drivers/STM32F4xx_HAL_Driver/Src/stm32f4xx_hal_rtc_ex.c ****   /* Set Initialization mode */
1121:../STM32Cube_FW_F4_V1.4.0/Drivers/STM32F4xx_HAL_Driver/Src/stm32f4xx_hal_rtc_ex.c ****   if(RTC_EnterInitMode(hrtc) != HAL_OK)
 2033              		.loc 1 1121 0 discriminator 2
 2034 0040 2046     		mov	r0, r4	@, hrtc
 2035 0042 FFF7FEFF 		bl	RTC_EnterInitMode	@
 2036              	.LVL155:
 2037 0046 2368     		ldr	r3, [r4]	@ D.8390, hrtc_10(D)->Instance
 2038 0048 38B1     		cbz	r0, .L254	@ D.8388,
1122:../STM32Cube_FW_F4_V1.4.0/Drivers/STM32F4xx_HAL_Driver/Src/stm32f4xx_hal_rtc_ex.c ****   {
1123:../STM32Cube_FW_F4_V1.4.0/Drivers/STM32F4xx_HAL_Driver/Src/stm32f4xx_hal_rtc_ex.c ****     /* Enable the write protection for RTC registers */
1124:../STM32Cube_FW_F4_V1.4.0/Drivers/STM32F4xx_HAL_Driver/Src/stm32f4xx_hal_rtc_ex.c ****     __HAL_RTC_WRITEPROTECTION_ENABLE(hrtc); 
 2039              		.loc 1 1124 0
