ARM GAS  C:\cygwin\tmp\ccblTS4I.s 			page 1


   1              		.syntax unified
   2              		.cpu cortex-m4
   3              		.fpu softvfp
   4              		.eabi_attribute 20, 1	@ Tag_ABI_FP_denormal
   5              		.eabi_attribute 21, 1	@ Tag_ABI_FP_exceptions
   6              		.eabi_attribute 23, 3	@ Tag_ABI_FP_number_model
   7              		.eabi_attribute 24, 1	@ Tag_ABI_align8_needed
   8              		.eabi_attribute 25, 1	@ Tag_ABI_align8_preserved
   9              		.eabi_attribute 26, 1	@ Tag_ABI_enum_size
  10              		.eabi_attribute 30, 4	@ Tag_ABI_optimization_goals
  11              		.eabi_attribute 34, 1	@ Tag_CPU_unaligned_access
  12              		.eabi_attribute 18, 4	@ Tag_ABI_PCS_wchar_t
  13              		.file	"stm32f4xx_hal_gpio.c"
  14              	@ GNU C (GNU Tools for ARM Embedded Processors) version 4.9.3 20141119 (release) [ARM/embedded-4_9-
  15              	@	compiled by GNU C version 4.7.4, GMP version 4.3.2, MPFR version 2.4.2, MPC version 0.8.1
  16              	@ GGC heuristics: --param ggc-min-expand=100 --param ggc-min-heapsize=131072
  17              	@ options passed:  -I . -I Inc
  18              	@ -I ../STM32Cube_FW_F4_V1.4.0/Drivers/CMSIS/Include
  19              	@ -I ../STM32Cube_FW_F4_V1.4.0/Drivers/CMSIS/Device/ST/STM32F4xx/Include
  20              	@ -I ../STM32Cube_FW_F4_V1.4.0/Drivers/STM32F4xx_HAL_Driver/Inc
  21              	@ -I ../STM32Cube_FW_F4_V1.4.0/Drivers/CMSIS/Include -imultilib armv7e-m
  22              	@ -iprefix c:\program files\gcc-arm-none-eabi-4_9-2014\bin\../lib/gcc/arm-none-eabi/4.9.3/
  23              	@ -isysroot c:\program files\gcc-arm-none-eabi-4_9-2014\bin\../arm-none-eabi
  24              	@ -MD out/stm32f4xx_hal_gpio.d -MF out/stm32f4xx_hal_gpio.d -MP
  25              	@ -MQ out/stm32f4xx_hal_gpio.o -D__USES_INITFINI__ -D USE_HAL_DRIVER
  26              	@ -D STM32F4XX -D HSE_VALUE=8000000 -D __STARTUP_CLEAR_BSS -D STM32F411RE
  27              	@ -D USE_FULL_ASSERT -D __FPU_USED
  28              	@ ../STM32Cube_FW_F4_V1.4.0/Drivers/STM32F4xx_HAL_Driver/Src/stm32f4xx_hal_gpio.c
  29              	@ -mcpu=cortex-m4 -mthumb -auxbase-strip out/stm32f4xx_hal_gpio.o -g -ggdb3
  30              	@ -Os -Os -Wall -Wstrict-prototypes -Wextra -std=gnu90 -ffunction-sections
  31              	@ -fdata-sections -fverbose-asm
  32              	@ options enabled:  -faggressive-loop-optimizations -fauto-inc-dec
  33              	@ -fbranch-count-reg -fcaller-saves -fcombine-stack-adjustments -fcommon
  34              	@ -fcompare-elim -fcprop-registers -fcrossjumping -fcse-follow-jumps
  35              	@ -fdata-sections -fdefer-pop -fdelete-null-pointer-checks -fdevirtualize
  36              	@ -fdevirtualize-speculatively -fdwarf2-cfi-asm -fearly-inlining
  37              	@ -feliminate-unused-debug-types -fexpensive-optimizations
  38              	@ -fforward-propagate -ffunction-cse -ffunction-sections -fgcse -fgcse-lm
  39              	@ -fgnu-runtime -fgnu-unique -fguess-branch-probability
  40              	@ -fhoist-adjacent-loads -fident -fif-conversion -fif-conversion2
  41              	@ -findirect-inlining -finline -finline-atomics -finline-functions
  42              	@ -finline-functions-called-once -finline-small-functions -fipa-cp
  43              	@ -fipa-profile -fipa-pure-const -fipa-reference -fipa-sra
  44              	@ -fira-hoist-pressure -fira-share-save-slots -fira-share-spill-slots
  45              	@ -fisolate-erroneous-paths-dereference -fivopts -fkeep-static-consts
  46              	@ -fleading-underscore -fmath-errno -fmerge-constants -fmerge-debug-strings
  47              	@ -fomit-frame-pointer -foptimize-sibling-calls -fpartial-inlining
  48              	@ -fpeephole -fpeephole2 -fprefetch-loop-arrays -freg-struct-return
  49              	@ -freorder-blocks -freorder-functions -frerun-cse-after-loop
  50              	@ -fsched-critical-path-heuristic -fsched-dep-count-heuristic
  51              	@ -fsched-group-heuristic -fsched-interblock -fsched-last-insn-heuristic
  52              	@ -fsched-pressure -fsched-rank-heuristic -fsched-spec
  53              	@ -fsched-spec-insn-heuristic -fsched-stalled-insns-dep -fschedule-insns2
  54              	@ -fsection-anchors -fshow-column -fsigned-zeros -fsplit-ivs-in-unroller
  55              	@ -fsplit-wide-types -fstrict-aliasing -fstrict-overflow
  56              	@ -fstrict-volatile-bitfields -fsync-libcalls -fthread-jumps
  57              	@ -ftoplevel-reorder -ftrapping-math -ftree-bit-ccp -ftree-builtin-call-dce
ARM GAS  C:\cygwin\tmp\ccblTS4I.s 			page 2


  58              	@ -ftree-ccp -ftree-ch -ftree-coalesce-vars -ftree-copy-prop
  59              	@ -ftree-copyrename -ftree-cselim -ftree-dce -ftree-dominator-opts
  60              	@ -ftree-dse -ftree-forwprop -ftree-fre -ftree-loop-if-convert
  61              	@ -ftree-loop-im -ftree-loop-ivcanon -ftree-loop-optimize
  62              	@ -ftree-parallelize-loops= -ftree-phiprop -ftree-pre -ftree-pta
  63              	@ -ftree-reassoc -ftree-scev-cprop -ftree-sink -ftree-slsr -ftree-sra
  64              	@ -ftree-switch-conversion -ftree-tail-merge -ftree-ter -ftree-vrp
  65              	@ -funit-at-a-time -fvar-tracking -fvar-tracking-assignments -fverbose-asm
  66              	@ -fzero-initialized-in-bss -mlittle-endian -mlra
  67              	@ -mpic-data-is-text-relative -msched-prolog -mthumb -munaligned-access
  68              	@ -mvectorize-with-neon-quad
  69              	
  70              		.text
  71              	.Ltext0:
  72              		.cfi_sections	.debug_frame
  73              		.section	.text.HAL_GPIO_Init,"ax",%progbits
  74              		.align	1
  75              		.global	HAL_GPIO_Init
  76              		.thumb
  77              		.thumb_func
  78              		.type	HAL_GPIO_Init, %function
  79              	HAL_GPIO_Init:
  80              	.LFB123:
  81              		.file 1 "../STM32Cube_FW_F4_V1.4.0/Drivers/STM32F4xx_HAL_Driver/Src/stm32f4xx_hal_gpio.c"
   1:../STM32Cube_FW_F4_V1.4.0/Drivers/STM32F4xx_HAL_Driver/Src/stm32f4xx_hal_gpio.c **** /**
   2:../STM32Cube_FW_F4_V1.4.0/Drivers/STM32F4xx_HAL_Driver/Src/stm32f4xx_hal_gpio.c ****   ******************************************************************************
   3:../STM32Cube_FW_F4_V1.4.0/Drivers/STM32F4xx_HAL_Driver/Src/stm32f4xx_hal_gpio.c ****   * @file    stm32f4xx_hal_gpio.c
   4:../STM32Cube_FW_F4_V1.4.0/Drivers/STM32F4xx_HAL_Driver/Src/stm32f4xx_hal_gpio.c ****   * @author  MCD Application Team
   5:../STM32Cube_FW_F4_V1.4.0/Drivers/STM32F4xx_HAL_Driver/Src/stm32f4xx_hal_gpio.c ****   * @version V1.2.0
   6:../STM32Cube_FW_F4_V1.4.0/Drivers/STM32F4xx_HAL_Driver/Src/stm32f4xx_hal_gpio.c ****   * @date    26-December-2014
   7:../STM32Cube_FW_F4_V1.4.0/Drivers/STM32F4xx_HAL_Driver/Src/stm32f4xx_hal_gpio.c ****   * @brief   GPIO HAL module driver.
   8:../STM32Cube_FW_F4_V1.4.0/Drivers/STM32F4xx_HAL_Driver/Src/stm32f4xx_hal_gpio.c ****   *          This file provides firmware functions to manage the following 
   9:../STM32Cube_FW_F4_V1.4.0/Drivers/STM32F4xx_HAL_Driver/Src/stm32f4xx_hal_gpio.c ****   *          functionalities of the General Purpose Input/Output (GPIO) peripheral:
  10:../STM32Cube_FW_F4_V1.4.0/Drivers/STM32F4xx_HAL_Driver/Src/stm32f4xx_hal_gpio.c ****   *           + Initialization and de-initialization functions
  11:../STM32Cube_FW_F4_V1.4.0/Drivers/STM32F4xx_HAL_Driver/Src/stm32f4xx_hal_gpio.c ****   *           + IO operation functions
  12:../STM32Cube_FW_F4_V1.4.0/Drivers/STM32F4xx_HAL_Driver/Src/stm32f4xx_hal_gpio.c ****   *
  13:../STM32Cube_FW_F4_V1.4.0/Drivers/STM32F4xx_HAL_Driver/Src/stm32f4xx_hal_gpio.c ****   @verbatim
  14:../STM32Cube_FW_F4_V1.4.0/Drivers/STM32F4xx_HAL_Driver/Src/stm32f4xx_hal_gpio.c ****   ==============================================================================
  15:../STM32Cube_FW_F4_V1.4.0/Drivers/STM32F4xx_HAL_Driver/Src/stm32f4xx_hal_gpio.c ****                     ##### GPIO Peripheral features #####
  16:../STM32Cube_FW_F4_V1.4.0/Drivers/STM32F4xx_HAL_Driver/Src/stm32f4xx_hal_gpio.c ****   ==============================================================================
  17:../STM32Cube_FW_F4_V1.4.0/Drivers/STM32F4xx_HAL_Driver/Src/stm32f4xx_hal_gpio.c ****   [..] 
  18:../STM32Cube_FW_F4_V1.4.0/Drivers/STM32F4xx_HAL_Driver/Src/stm32f4xx_hal_gpio.c ****   Subject to the specific hardware characteristics of each I/O port listed in the datasheet, each
  19:../STM32Cube_FW_F4_V1.4.0/Drivers/STM32F4xx_HAL_Driver/Src/stm32f4xx_hal_gpio.c ****   port bit of the General Purpose IO (GPIO) Ports, can be individually configured by software
  20:../STM32Cube_FW_F4_V1.4.0/Drivers/STM32F4xx_HAL_Driver/Src/stm32f4xx_hal_gpio.c ****   in several modes:
  21:../STM32Cube_FW_F4_V1.4.0/Drivers/STM32F4xx_HAL_Driver/Src/stm32f4xx_hal_gpio.c ****   (+) Input mode 
  22:../STM32Cube_FW_F4_V1.4.0/Drivers/STM32F4xx_HAL_Driver/Src/stm32f4xx_hal_gpio.c ****   (+) Analog mode
  23:../STM32Cube_FW_F4_V1.4.0/Drivers/STM32F4xx_HAL_Driver/Src/stm32f4xx_hal_gpio.c ****   (+) Output mode
  24:../STM32Cube_FW_F4_V1.4.0/Drivers/STM32F4xx_HAL_Driver/Src/stm32f4xx_hal_gpio.c ****   (+) Alternate function mode
  25:../STM32Cube_FW_F4_V1.4.0/Drivers/STM32F4xx_HAL_Driver/Src/stm32f4xx_hal_gpio.c ****   (+) External interrupt/event lines
  26:../STM32Cube_FW_F4_V1.4.0/Drivers/STM32F4xx_HAL_Driver/Src/stm32f4xx_hal_gpio.c **** 
  27:../STM32Cube_FW_F4_V1.4.0/Drivers/STM32F4xx_HAL_Driver/Src/stm32f4xx_hal_gpio.c ****   [..]  
  28:../STM32Cube_FW_F4_V1.4.0/Drivers/STM32F4xx_HAL_Driver/Src/stm32f4xx_hal_gpio.c ****   During and just after reset, the alternate functions and external interrupt  
  29:../STM32Cube_FW_F4_V1.4.0/Drivers/STM32F4xx_HAL_Driver/Src/stm32f4xx_hal_gpio.c ****   lines are not active and the I/O ports are configured in input floating mode.
  30:../STM32Cube_FW_F4_V1.4.0/Drivers/STM32F4xx_HAL_Driver/Src/stm32f4xx_hal_gpio.c ****   
  31:../STM32Cube_FW_F4_V1.4.0/Drivers/STM32F4xx_HAL_Driver/Src/stm32f4xx_hal_gpio.c ****   [..]   
  32:../STM32Cube_FW_F4_V1.4.0/Drivers/STM32F4xx_HAL_Driver/Src/stm32f4xx_hal_gpio.c ****   All GPIO pins have weak internal pull-up and pull-down resistors, which can be 
  33:../STM32Cube_FW_F4_V1.4.0/Drivers/STM32F4xx_HAL_Driver/Src/stm32f4xx_hal_gpio.c ****   activated or not.
ARM GAS  C:\cygwin\tmp\ccblTS4I.s 			page 3


  34:../STM32Cube_FW_F4_V1.4.0/Drivers/STM32F4xx_HAL_Driver/Src/stm32f4xx_hal_gpio.c **** 
  35:../STM32Cube_FW_F4_V1.4.0/Drivers/STM32F4xx_HAL_Driver/Src/stm32f4xx_hal_gpio.c ****   [..]
  36:../STM32Cube_FW_F4_V1.4.0/Drivers/STM32F4xx_HAL_Driver/Src/stm32f4xx_hal_gpio.c ****   In Output or Alternate mode, each IO can be configured on open-drain or push-pull
  37:../STM32Cube_FW_F4_V1.4.0/Drivers/STM32F4xx_HAL_Driver/Src/stm32f4xx_hal_gpio.c ****   type and the IO speed can be selected depending on the VDD value.
  38:../STM32Cube_FW_F4_V1.4.0/Drivers/STM32F4xx_HAL_Driver/Src/stm32f4xx_hal_gpio.c **** 
  39:../STM32Cube_FW_F4_V1.4.0/Drivers/STM32F4xx_HAL_Driver/Src/stm32f4xx_hal_gpio.c ****   [..]  
  40:../STM32Cube_FW_F4_V1.4.0/Drivers/STM32F4xx_HAL_Driver/Src/stm32f4xx_hal_gpio.c ****   All ports have external interrupt/event capability. To use external interrupt 
  41:../STM32Cube_FW_F4_V1.4.0/Drivers/STM32F4xx_HAL_Driver/Src/stm32f4xx_hal_gpio.c ****   lines, the port must be configured in input mode. All available GPIO pins are 
  42:../STM32Cube_FW_F4_V1.4.0/Drivers/STM32F4xx_HAL_Driver/Src/stm32f4xx_hal_gpio.c ****   connected to the 16 external interrupt/event lines from EXTI0 to EXTI15.
  43:../STM32Cube_FW_F4_V1.4.0/Drivers/STM32F4xx_HAL_Driver/Src/stm32f4xx_hal_gpio.c ****   
  44:../STM32Cube_FW_F4_V1.4.0/Drivers/STM32F4xx_HAL_Driver/Src/stm32f4xx_hal_gpio.c ****   [..]
  45:../STM32Cube_FW_F4_V1.4.0/Drivers/STM32F4xx_HAL_Driver/Src/stm32f4xx_hal_gpio.c ****   The external interrupt/event controller consists of up to 23 edge detectors 
  46:../STM32Cube_FW_F4_V1.4.0/Drivers/STM32F4xx_HAL_Driver/Src/stm32f4xx_hal_gpio.c ****   (16 lines are connected to GPIO) for generating event/interrupt requests (each 
  47:../STM32Cube_FW_F4_V1.4.0/Drivers/STM32F4xx_HAL_Driver/Src/stm32f4xx_hal_gpio.c ****   input line can be independently configured to select the type (interrupt or event) 
  48:../STM32Cube_FW_F4_V1.4.0/Drivers/STM32F4xx_HAL_Driver/Src/stm32f4xx_hal_gpio.c ****   and the corresponding trigger event (rising or falling or both). Each line can 
  49:../STM32Cube_FW_F4_V1.4.0/Drivers/STM32F4xx_HAL_Driver/Src/stm32f4xx_hal_gpio.c ****   also be masked independently. 
  50:../STM32Cube_FW_F4_V1.4.0/Drivers/STM32F4xx_HAL_Driver/Src/stm32f4xx_hal_gpio.c **** 
  51:../STM32Cube_FW_F4_V1.4.0/Drivers/STM32F4xx_HAL_Driver/Src/stm32f4xx_hal_gpio.c ****                      ##### How to use this driver #####
  52:../STM32Cube_FW_F4_V1.4.0/Drivers/STM32F4xx_HAL_Driver/Src/stm32f4xx_hal_gpio.c ****   ==============================================================================  
  53:../STM32Cube_FW_F4_V1.4.0/Drivers/STM32F4xx_HAL_Driver/Src/stm32f4xx_hal_gpio.c ****   [..]
  54:../STM32Cube_FW_F4_V1.4.0/Drivers/STM32F4xx_HAL_Driver/Src/stm32f4xx_hal_gpio.c ****     (#) Enable the GPIO AHB clock using the following function: __HAL_RCC_GPIOx_CLK_ENABLE(). 
  55:../STM32Cube_FW_F4_V1.4.0/Drivers/STM32F4xx_HAL_Driver/Src/stm32f4xx_hal_gpio.c **** 
  56:../STM32Cube_FW_F4_V1.4.0/Drivers/STM32F4xx_HAL_Driver/Src/stm32f4xx_hal_gpio.c ****     (#) Configure the GPIO pin(s) using HAL_GPIO_Init().
  57:../STM32Cube_FW_F4_V1.4.0/Drivers/STM32F4xx_HAL_Driver/Src/stm32f4xx_hal_gpio.c ****         (++) Configure the IO mode using "Mode" member from GPIO_InitTypeDef structure
  58:../STM32Cube_FW_F4_V1.4.0/Drivers/STM32F4xx_HAL_Driver/Src/stm32f4xx_hal_gpio.c ****         (++) Activate Pull-up, Pull-down resistor using "Pull" member from GPIO_InitTypeDef 
  59:../STM32Cube_FW_F4_V1.4.0/Drivers/STM32F4xx_HAL_Driver/Src/stm32f4xx_hal_gpio.c ****              structure.
  60:../STM32Cube_FW_F4_V1.4.0/Drivers/STM32F4xx_HAL_Driver/Src/stm32f4xx_hal_gpio.c ****         (++) In case of Output or alternate function mode selection: the speed is 
  61:../STM32Cube_FW_F4_V1.4.0/Drivers/STM32F4xx_HAL_Driver/Src/stm32f4xx_hal_gpio.c ****              configured through "Speed" member from GPIO_InitTypeDef structure.
  62:../STM32Cube_FW_F4_V1.4.0/Drivers/STM32F4xx_HAL_Driver/Src/stm32f4xx_hal_gpio.c ****         (++) In alternate mode is selection, the alternate function connected to the IO
  63:../STM32Cube_FW_F4_V1.4.0/Drivers/STM32F4xx_HAL_Driver/Src/stm32f4xx_hal_gpio.c ****              is configured through "Alternate" member from GPIO_InitTypeDef structure.
  64:../STM32Cube_FW_F4_V1.4.0/Drivers/STM32F4xx_HAL_Driver/Src/stm32f4xx_hal_gpio.c ****         (++) Analog mode is required when a pin is to be used as ADC channel 
  65:../STM32Cube_FW_F4_V1.4.0/Drivers/STM32F4xx_HAL_Driver/Src/stm32f4xx_hal_gpio.c ****              or DAC output.
  66:../STM32Cube_FW_F4_V1.4.0/Drivers/STM32F4xx_HAL_Driver/Src/stm32f4xx_hal_gpio.c ****         (++) In case of external interrupt/event selection the "Mode" member from 
  67:../STM32Cube_FW_F4_V1.4.0/Drivers/STM32F4xx_HAL_Driver/Src/stm32f4xx_hal_gpio.c ****              GPIO_InitTypeDef structure select the type (interrupt or event) and 
  68:../STM32Cube_FW_F4_V1.4.0/Drivers/STM32F4xx_HAL_Driver/Src/stm32f4xx_hal_gpio.c ****              the corresponding trigger event (rising or falling or both).
  69:../STM32Cube_FW_F4_V1.4.0/Drivers/STM32F4xx_HAL_Driver/Src/stm32f4xx_hal_gpio.c **** 
  70:../STM32Cube_FW_F4_V1.4.0/Drivers/STM32F4xx_HAL_Driver/Src/stm32f4xx_hal_gpio.c ****     (#) In case of external interrupt/event mode selection, configure NVIC IRQ priority 
  71:../STM32Cube_FW_F4_V1.4.0/Drivers/STM32F4xx_HAL_Driver/Src/stm32f4xx_hal_gpio.c ****         mapped to the EXTI line using HAL_NVIC_SetPriority() and enable it using
  72:../STM32Cube_FW_F4_V1.4.0/Drivers/STM32F4xx_HAL_Driver/Src/stm32f4xx_hal_gpio.c ****         HAL_NVIC_EnableIRQ().
  73:../STM32Cube_FW_F4_V1.4.0/Drivers/STM32F4xx_HAL_Driver/Src/stm32f4xx_hal_gpio.c ****          
  74:../STM32Cube_FW_F4_V1.4.0/Drivers/STM32F4xx_HAL_Driver/Src/stm32f4xx_hal_gpio.c ****     (#) To get the level of a pin configured in input mode use HAL_GPIO_ReadPin().
  75:../STM32Cube_FW_F4_V1.4.0/Drivers/STM32F4xx_HAL_Driver/Src/stm32f4xx_hal_gpio.c ****             
  76:../STM32Cube_FW_F4_V1.4.0/Drivers/STM32F4xx_HAL_Driver/Src/stm32f4xx_hal_gpio.c ****     (#) To set/reset the level of a pin configured in output mode use 
  77:../STM32Cube_FW_F4_V1.4.0/Drivers/STM32F4xx_HAL_Driver/Src/stm32f4xx_hal_gpio.c ****         HAL_GPIO_WritePin()/HAL_GPIO_TogglePin().
  78:../STM32Cube_FW_F4_V1.4.0/Drivers/STM32F4xx_HAL_Driver/Src/stm32f4xx_hal_gpio.c ****     
  79:../STM32Cube_FW_F4_V1.4.0/Drivers/STM32F4xx_HAL_Driver/Src/stm32f4xx_hal_gpio.c ****     (#) To lock pin configuration until next reset use HAL_GPIO_LockPin().
  80:../STM32Cube_FW_F4_V1.4.0/Drivers/STM32F4xx_HAL_Driver/Src/stm32f4xx_hal_gpio.c **** 
  81:../STM32Cube_FW_F4_V1.4.0/Drivers/STM32F4xx_HAL_Driver/Src/stm32f4xx_hal_gpio.c ****                  
  82:../STM32Cube_FW_F4_V1.4.0/Drivers/STM32F4xx_HAL_Driver/Src/stm32f4xx_hal_gpio.c ****     (#) During and just after reset, the alternate functions are not 
  83:../STM32Cube_FW_F4_V1.4.0/Drivers/STM32F4xx_HAL_Driver/Src/stm32f4xx_hal_gpio.c ****         active and the GPIO pins are configured in input floating mode (except JTAG
  84:../STM32Cube_FW_F4_V1.4.0/Drivers/STM32F4xx_HAL_Driver/Src/stm32f4xx_hal_gpio.c ****         pins).
  85:../STM32Cube_FW_F4_V1.4.0/Drivers/STM32F4xx_HAL_Driver/Src/stm32f4xx_hal_gpio.c ****   
  86:../STM32Cube_FW_F4_V1.4.0/Drivers/STM32F4xx_HAL_Driver/Src/stm32f4xx_hal_gpio.c ****     (#) The LSE oscillator pins OSC32_IN and OSC32_OUT can be used as general purpose 
  87:../STM32Cube_FW_F4_V1.4.0/Drivers/STM32F4xx_HAL_Driver/Src/stm32f4xx_hal_gpio.c ****         (PC14 and PC15, respectively) when the LSE oscillator is off. The LSE has 
  88:../STM32Cube_FW_F4_V1.4.0/Drivers/STM32F4xx_HAL_Driver/Src/stm32f4xx_hal_gpio.c ****         priority over the GPIO function.
  89:../STM32Cube_FW_F4_V1.4.0/Drivers/STM32F4xx_HAL_Driver/Src/stm32f4xx_hal_gpio.c ****   
  90:../STM32Cube_FW_F4_V1.4.0/Drivers/STM32F4xx_HAL_Driver/Src/stm32f4xx_hal_gpio.c ****     (#) The HSE oscillator pins OSC_IN/OSC_OUT can be used as 
ARM GAS  C:\cygwin\tmp\ccblTS4I.s 			page 4


  91:../STM32Cube_FW_F4_V1.4.0/Drivers/STM32F4xx_HAL_Driver/Src/stm32f4xx_hal_gpio.c ****         general purpose PH0 and PH1, respectively, when the HSE oscillator is off. 
  92:../STM32Cube_FW_F4_V1.4.0/Drivers/STM32F4xx_HAL_Driver/Src/stm32f4xx_hal_gpio.c ****         The HSE has priority over the GPIO function.
  93:../STM32Cube_FW_F4_V1.4.0/Drivers/STM32F4xx_HAL_Driver/Src/stm32f4xx_hal_gpio.c ****   
  94:../STM32Cube_FW_F4_V1.4.0/Drivers/STM32F4xx_HAL_Driver/Src/stm32f4xx_hal_gpio.c ****   @endverbatim
  95:../STM32Cube_FW_F4_V1.4.0/Drivers/STM32F4xx_HAL_Driver/Src/stm32f4xx_hal_gpio.c ****   ******************************************************************************
  96:../STM32Cube_FW_F4_V1.4.0/Drivers/STM32F4xx_HAL_Driver/Src/stm32f4xx_hal_gpio.c ****   * @attention
  97:../STM32Cube_FW_F4_V1.4.0/Drivers/STM32F4xx_HAL_Driver/Src/stm32f4xx_hal_gpio.c ****   *
  98:../STM32Cube_FW_F4_V1.4.0/Drivers/STM32F4xx_HAL_Driver/Src/stm32f4xx_hal_gpio.c ****   * <h2><center>&copy; COPYRIGHT(c) 2014 STMicroelectronics</center></h2>
  99:../STM32Cube_FW_F4_V1.4.0/Drivers/STM32F4xx_HAL_Driver/Src/stm32f4xx_hal_gpio.c ****   *
 100:../STM32Cube_FW_F4_V1.4.0/Drivers/STM32F4xx_HAL_Driver/Src/stm32f4xx_hal_gpio.c ****   * Redistribution and use in source and binary forms, with or without modification,
 101:../STM32Cube_FW_F4_V1.4.0/Drivers/STM32F4xx_HAL_Driver/Src/stm32f4xx_hal_gpio.c ****   * are permitted provided that the following conditions are met:
 102:../STM32Cube_FW_F4_V1.4.0/Drivers/STM32F4xx_HAL_Driver/Src/stm32f4xx_hal_gpio.c ****   *   1. Redistributions of source code must retain the above copyright notice,
 103:../STM32Cube_FW_F4_V1.4.0/Drivers/STM32F4xx_HAL_Driver/Src/stm32f4xx_hal_gpio.c ****   *      this list of conditions and the following disclaimer.
 104:../STM32Cube_FW_F4_V1.4.0/Drivers/STM32F4xx_HAL_Driver/Src/stm32f4xx_hal_gpio.c ****   *   2. Redistributions in binary form must reproduce the above copyright notice,
 105:../STM32Cube_FW_F4_V1.4.0/Drivers/STM32F4xx_HAL_Driver/Src/stm32f4xx_hal_gpio.c ****   *      this list of conditions and the following disclaimer in the documentation
 106:../STM32Cube_FW_F4_V1.4.0/Drivers/STM32F4xx_HAL_Driver/Src/stm32f4xx_hal_gpio.c ****   *      and/or other materials provided with the distribution.
 107:../STM32Cube_FW_F4_V1.4.0/Drivers/STM32F4xx_HAL_Driver/Src/stm32f4xx_hal_gpio.c ****   *   3. Neither the name of STMicroelectronics nor the names of its contributors
 108:../STM32Cube_FW_F4_V1.4.0/Drivers/STM32F4xx_HAL_Driver/Src/stm32f4xx_hal_gpio.c ****   *      may be used to endorse or promote products derived from this software
 109:../STM32Cube_FW_F4_V1.4.0/Drivers/STM32F4xx_HAL_Driver/Src/stm32f4xx_hal_gpio.c ****   *      without specific prior written permission.
 110:../STM32Cube_FW_F4_V1.4.0/Drivers/STM32F4xx_HAL_Driver/Src/stm32f4xx_hal_gpio.c ****   *
 111:../STM32Cube_FW_F4_V1.4.0/Drivers/STM32F4xx_HAL_Driver/Src/stm32f4xx_hal_gpio.c ****   * THIS SOFTWARE IS PROVIDED BY THE COPYRIGHT HOLDERS AND CONTRIBUTORS "AS IS"
 112:../STM32Cube_FW_F4_V1.4.0/Drivers/STM32F4xx_HAL_Driver/Src/stm32f4xx_hal_gpio.c ****   * AND ANY EXPRESS OR IMPLIED WARRANTIES, INCLUDING, BUT NOT LIMITED TO, THE
 113:../STM32Cube_FW_F4_V1.4.0/Drivers/STM32F4xx_HAL_Driver/Src/stm32f4xx_hal_gpio.c ****   * IMPLIED WARRANTIES OF MERCHANTABILITY AND FITNESS FOR A PARTICULAR PURPOSE ARE
 114:../STM32Cube_FW_F4_V1.4.0/Drivers/STM32F4xx_HAL_Driver/Src/stm32f4xx_hal_gpio.c ****   * DISCLAIMED. IN NO EVENT SHALL THE COPYRIGHT HOLDER OR CONTRIBUTORS BE LIABLE
 115:../STM32Cube_FW_F4_V1.4.0/Drivers/STM32F4xx_HAL_Driver/Src/stm32f4xx_hal_gpio.c ****   * FOR ANY DIRECT, INDIRECT, INCIDENTAL, SPECIAL, EXEMPLARY, OR CONSEQUENTIAL
 116:../STM32Cube_FW_F4_V1.4.0/Drivers/STM32F4xx_HAL_Driver/Src/stm32f4xx_hal_gpio.c ****   * DAMAGES (INCLUDING, BUT NOT LIMITED TO, PROCUREMENT OF SUBSTITUTE GOODS OR
 117:../STM32Cube_FW_F4_V1.4.0/Drivers/STM32F4xx_HAL_Driver/Src/stm32f4xx_hal_gpio.c ****   * SERVICES; LOSS OF USE, DATA, OR PROFITS; OR BUSINESS INTERRUPTION) HOWEVER
 118:../STM32Cube_FW_F4_V1.4.0/Drivers/STM32F4xx_HAL_Driver/Src/stm32f4xx_hal_gpio.c ****   * CAUSED AND ON ANY THEORY OF LIABILITY, WHETHER IN CONTRACT, STRICT LIABILITY,
 119:../STM32Cube_FW_F4_V1.4.0/Drivers/STM32F4xx_HAL_Driver/Src/stm32f4xx_hal_gpio.c ****   * OR TORT (INCLUDING NEGLIGENCE OR OTHERWISE) ARISING IN ANY WAY OUT OF THE USE
 120:../STM32Cube_FW_F4_V1.4.0/Drivers/STM32F4xx_HAL_Driver/Src/stm32f4xx_hal_gpio.c ****   * OF THIS SOFTWARE, EVEN IF ADVISED OF THE POSSIBILITY OF SUCH DAMAGE.
 121:../STM32Cube_FW_F4_V1.4.0/Drivers/STM32F4xx_HAL_Driver/Src/stm32f4xx_hal_gpio.c ****   *
 122:../STM32Cube_FW_F4_V1.4.0/Drivers/STM32F4xx_HAL_Driver/Src/stm32f4xx_hal_gpio.c ****   ******************************************************************************
 123:../STM32Cube_FW_F4_V1.4.0/Drivers/STM32F4xx_HAL_Driver/Src/stm32f4xx_hal_gpio.c ****   */ 
 124:../STM32Cube_FW_F4_V1.4.0/Drivers/STM32F4xx_HAL_Driver/Src/stm32f4xx_hal_gpio.c **** 
 125:../STM32Cube_FW_F4_V1.4.0/Drivers/STM32F4xx_HAL_Driver/Src/stm32f4xx_hal_gpio.c **** /* Includes ------------------------------------------------------------------*/
 126:../STM32Cube_FW_F4_V1.4.0/Drivers/STM32F4xx_HAL_Driver/Src/stm32f4xx_hal_gpio.c **** #include "stm32f4xx_hal.h"
 127:../STM32Cube_FW_F4_V1.4.0/Drivers/STM32F4xx_HAL_Driver/Src/stm32f4xx_hal_gpio.c **** 
 128:../STM32Cube_FW_F4_V1.4.0/Drivers/STM32F4xx_HAL_Driver/Src/stm32f4xx_hal_gpio.c **** /** @addtogroup STM32F4xx_HAL_Driver
 129:../STM32Cube_FW_F4_V1.4.0/Drivers/STM32F4xx_HAL_Driver/Src/stm32f4xx_hal_gpio.c ****   * @{
 130:../STM32Cube_FW_F4_V1.4.0/Drivers/STM32F4xx_HAL_Driver/Src/stm32f4xx_hal_gpio.c ****   */
 131:../STM32Cube_FW_F4_V1.4.0/Drivers/STM32F4xx_HAL_Driver/Src/stm32f4xx_hal_gpio.c **** 
 132:../STM32Cube_FW_F4_V1.4.0/Drivers/STM32F4xx_HAL_Driver/Src/stm32f4xx_hal_gpio.c **** /** @defgroup GPIO GPIO
 133:../STM32Cube_FW_F4_V1.4.0/Drivers/STM32F4xx_HAL_Driver/Src/stm32f4xx_hal_gpio.c ****   * @brief GPIO HAL module driver
 134:../STM32Cube_FW_F4_V1.4.0/Drivers/STM32F4xx_HAL_Driver/Src/stm32f4xx_hal_gpio.c ****   * @{
 135:../STM32Cube_FW_F4_V1.4.0/Drivers/STM32F4xx_HAL_Driver/Src/stm32f4xx_hal_gpio.c ****   */
 136:../STM32Cube_FW_F4_V1.4.0/Drivers/STM32F4xx_HAL_Driver/Src/stm32f4xx_hal_gpio.c **** 
 137:../STM32Cube_FW_F4_V1.4.0/Drivers/STM32F4xx_HAL_Driver/Src/stm32f4xx_hal_gpio.c **** #ifdef HAL_GPIO_MODULE_ENABLED
 138:../STM32Cube_FW_F4_V1.4.0/Drivers/STM32F4xx_HAL_Driver/Src/stm32f4xx_hal_gpio.c **** 
 139:../STM32Cube_FW_F4_V1.4.0/Drivers/STM32F4xx_HAL_Driver/Src/stm32f4xx_hal_gpio.c **** /* Private typedef -----------------------------------------------------------*/
 140:../STM32Cube_FW_F4_V1.4.0/Drivers/STM32F4xx_HAL_Driver/Src/stm32f4xx_hal_gpio.c **** /* Private define ------------------------------------------------------------*/
 141:../STM32Cube_FW_F4_V1.4.0/Drivers/STM32F4xx_HAL_Driver/Src/stm32f4xx_hal_gpio.c **** /** @addtogroup GPIO_Private_Constants GPIO Private Constants
 142:../STM32Cube_FW_F4_V1.4.0/Drivers/STM32F4xx_HAL_Driver/Src/stm32f4xx_hal_gpio.c ****   * @{
 143:../STM32Cube_FW_F4_V1.4.0/Drivers/STM32F4xx_HAL_Driver/Src/stm32f4xx_hal_gpio.c ****   */
 144:../STM32Cube_FW_F4_V1.4.0/Drivers/STM32F4xx_HAL_Driver/Src/stm32f4xx_hal_gpio.c **** #define GPIO_MODE             ((uint32_t)0x00000003)
 145:../STM32Cube_FW_F4_V1.4.0/Drivers/STM32F4xx_HAL_Driver/Src/stm32f4xx_hal_gpio.c **** #define EXTI_MODE             ((uint32_t)0x10000000)
 146:../STM32Cube_FW_F4_V1.4.0/Drivers/STM32F4xx_HAL_Driver/Src/stm32f4xx_hal_gpio.c **** #define GPIO_MODE_IT          ((uint32_t)0x00010000)
 147:../STM32Cube_FW_F4_V1.4.0/Drivers/STM32F4xx_HAL_Driver/Src/stm32f4xx_hal_gpio.c **** #define GPIO_MODE_EVT         ((uint32_t)0x00020000)
ARM GAS  C:\cygwin\tmp\ccblTS4I.s 			page 5


 148:../STM32Cube_FW_F4_V1.4.0/Drivers/STM32F4xx_HAL_Driver/Src/stm32f4xx_hal_gpio.c **** #define RISING_EDGE           ((uint32_t)0x00100000)
 149:../STM32Cube_FW_F4_V1.4.0/Drivers/STM32F4xx_HAL_Driver/Src/stm32f4xx_hal_gpio.c **** #define FALLING_EDGE          ((uint32_t)0x00200000)
 150:../STM32Cube_FW_F4_V1.4.0/Drivers/STM32F4xx_HAL_Driver/Src/stm32f4xx_hal_gpio.c **** #define GPIO_OUTPUT_TYPE      ((uint32_t)0x00000010)
 151:../STM32Cube_FW_F4_V1.4.0/Drivers/STM32F4xx_HAL_Driver/Src/stm32f4xx_hal_gpio.c **** 
 152:../STM32Cube_FW_F4_V1.4.0/Drivers/STM32F4xx_HAL_Driver/Src/stm32f4xx_hal_gpio.c **** #define GPIO_NUMBER           ((uint32_t)16)
 153:../STM32Cube_FW_F4_V1.4.0/Drivers/STM32F4xx_HAL_Driver/Src/stm32f4xx_hal_gpio.c **** /**
 154:../STM32Cube_FW_F4_V1.4.0/Drivers/STM32F4xx_HAL_Driver/Src/stm32f4xx_hal_gpio.c ****   * @}
 155:../STM32Cube_FW_F4_V1.4.0/Drivers/STM32F4xx_HAL_Driver/Src/stm32f4xx_hal_gpio.c ****   */
 156:../STM32Cube_FW_F4_V1.4.0/Drivers/STM32F4xx_HAL_Driver/Src/stm32f4xx_hal_gpio.c **** /* Private macro -------------------------------------------------------------*/
 157:../STM32Cube_FW_F4_V1.4.0/Drivers/STM32F4xx_HAL_Driver/Src/stm32f4xx_hal_gpio.c **** /* Private variables ---------------------------------------------------------*/
 158:../STM32Cube_FW_F4_V1.4.0/Drivers/STM32F4xx_HAL_Driver/Src/stm32f4xx_hal_gpio.c **** /* Private function prototypes -----------------------------------------------*/
 159:../STM32Cube_FW_F4_V1.4.0/Drivers/STM32F4xx_HAL_Driver/Src/stm32f4xx_hal_gpio.c **** /* Private functions ---------------------------------------------------------*/
 160:../STM32Cube_FW_F4_V1.4.0/Drivers/STM32F4xx_HAL_Driver/Src/stm32f4xx_hal_gpio.c **** /* Exported functions --------------------------------------------------------*/
 161:../STM32Cube_FW_F4_V1.4.0/Drivers/STM32F4xx_HAL_Driver/Src/stm32f4xx_hal_gpio.c **** /** @defgroup GPIO_Exported_Functions GPIO Exported Functions
 162:../STM32Cube_FW_F4_V1.4.0/Drivers/STM32F4xx_HAL_Driver/Src/stm32f4xx_hal_gpio.c ****   * @{
 163:../STM32Cube_FW_F4_V1.4.0/Drivers/STM32F4xx_HAL_Driver/Src/stm32f4xx_hal_gpio.c ****   */
 164:../STM32Cube_FW_F4_V1.4.0/Drivers/STM32F4xx_HAL_Driver/Src/stm32f4xx_hal_gpio.c **** 
 165:../STM32Cube_FW_F4_V1.4.0/Drivers/STM32F4xx_HAL_Driver/Src/stm32f4xx_hal_gpio.c **** /** @defgroup GPIO_Exported_Functions_Group1 Initialization and de-initialization functions
 166:../STM32Cube_FW_F4_V1.4.0/Drivers/STM32F4xx_HAL_Driver/Src/stm32f4xx_hal_gpio.c ****  *  @brief    Initialization and Configuration functions
 167:../STM32Cube_FW_F4_V1.4.0/Drivers/STM32F4xx_HAL_Driver/Src/stm32f4xx_hal_gpio.c ****  *
 168:../STM32Cube_FW_F4_V1.4.0/Drivers/STM32F4xx_HAL_Driver/Src/stm32f4xx_hal_gpio.c **** @verbatim    
 169:../STM32Cube_FW_F4_V1.4.0/Drivers/STM32F4xx_HAL_Driver/Src/stm32f4xx_hal_gpio.c ****  ===============================================================================
 170:../STM32Cube_FW_F4_V1.4.0/Drivers/STM32F4xx_HAL_Driver/Src/stm32f4xx_hal_gpio.c ****               ##### Initialization and de-initialization functions #####
 171:../STM32Cube_FW_F4_V1.4.0/Drivers/STM32F4xx_HAL_Driver/Src/stm32f4xx_hal_gpio.c ****  ===============================================================================
 172:../STM32Cube_FW_F4_V1.4.0/Drivers/STM32F4xx_HAL_Driver/Src/stm32f4xx_hal_gpio.c ****   [..]
 173:../STM32Cube_FW_F4_V1.4.0/Drivers/STM32F4xx_HAL_Driver/Src/stm32f4xx_hal_gpio.c ****     This section provides functions allowing to initialize and de-initialize the GPIOs
 174:../STM32Cube_FW_F4_V1.4.0/Drivers/STM32F4xx_HAL_Driver/Src/stm32f4xx_hal_gpio.c ****     to be ready for use.
 175:../STM32Cube_FW_F4_V1.4.0/Drivers/STM32F4xx_HAL_Driver/Src/stm32f4xx_hal_gpio.c ****  
 176:../STM32Cube_FW_F4_V1.4.0/Drivers/STM32F4xx_HAL_Driver/Src/stm32f4xx_hal_gpio.c **** @endverbatim
 177:../STM32Cube_FW_F4_V1.4.0/Drivers/STM32F4xx_HAL_Driver/Src/stm32f4xx_hal_gpio.c ****   * @{
 178:../STM32Cube_FW_F4_V1.4.0/Drivers/STM32F4xx_HAL_Driver/Src/stm32f4xx_hal_gpio.c ****   */
 179:../STM32Cube_FW_F4_V1.4.0/Drivers/STM32F4xx_HAL_Driver/Src/stm32f4xx_hal_gpio.c **** 
 180:../STM32Cube_FW_F4_V1.4.0/Drivers/STM32F4xx_HAL_Driver/Src/stm32f4xx_hal_gpio.c **** 
 181:../STM32Cube_FW_F4_V1.4.0/Drivers/STM32F4xx_HAL_Driver/Src/stm32f4xx_hal_gpio.c **** /**
 182:../STM32Cube_FW_F4_V1.4.0/Drivers/STM32F4xx_HAL_Driver/Src/stm32f4xx_hal_gpio.c ****   * @brief  Initializes the GPIOx peripheral according to the specified parameters in the GPIO_Init
 183:../STM32Cube_FW_F4_V1.4.0/Drivers/STM32F4xx_HAL_Driver/Src/stm32f4xx_hal_gpio.c ****   * @param  GPIOx: where x can be (A..K) to select the GPIO peripheral for STM32F429X device or
 184:../STM32Cube_FW_F4_V1.4.0/Drivers/STM32F4xx_HAL_Driver/Src/stm32f4xx_hal_gpio.c ****   *                      x can be (A..I) to select the GPIO peripheral for STM32F40XX and STM32F427
 185:../STM32Cube_FW_F4_V1.4.0/Drivers/STM32F4xx_HAL_Driver/Src/stm32f4xx_hal_gpio.c ****   * @param  GPIO_Init: pointer to a GPIO_InitTypeDef structure that contains
 186:../STM32Cube_FW_F4_V1.4.0/Drivers/STM32F4xx_HAL_Driver/Src/stm32f4xx_hal_gpio.c ****   *         the configuration information for the specified GPIO peripheral.
 187:../STM32Cube_FW_F4_V1.4.0/Drivers/STM32F4xx_HAL_Driver/Src/stm32f4xx_hal_gpio.c ****   * @retval None
 188:../STM32Cube_FW_F4_V1.4.0/Drivers/STM32F4xx_HAL_Driver/Src/stm32f4xx_hal_gpio.c ****   */
 189:../STM32Cube_FW_F4_V1.4.0/Drivers/STM32F4xx_HAL_Driver/Src/stm32f4xx_hal_gpio.c **** void HAL_GPIO_Init(GPIO_TypeDef  *GPIOx, GPIO_InitTypeDef *GPIO_Init)
 190:../STM32Cube_FW_F4_V1.4.0/Drivers/STM32F4xx_HAL_Driver/Src/stm32f4xx_hal_gpio.c **** {
  82              		.loc 1 190 0
  83              		.cfi_startproc
  84              		@ args = 0, pretend = 0, frame = 0
  85              		@ frame_needed = 0, uses_anonymous_args = 0
  86              	.LVL0:
  87 0000 2DE9F843 		push	{r3, r4, r5, r6, r7, r8, r9, lr}	@
  88              		.cfi_def_cfa_offset 32
  89              		.cfi_offset 3, -32
  90              		.cfi_offset 4, -28
  91              		.cfi_offset 5, -24
  92              		.cfi_offset 6, -20
  93              		.cfi_offset 7, -16
  94              		.cfi_offset 8, -12
  95              		.cfi_offset 9, -8
ARM GAS  C:\cygwin\tmp\ccblTS4I.s 			page 6


  96              		.cfi_offset 14, -4
 191:../STM32Cube_FW_F4_V1.4.0/Drivers/STM32F4xx_HAL_Driver/Src/stm32f4xx_hal_gpio.c ****   uint32_t position;
 192:../STM32Cube_FW_F4_V1.4.0/Drivers/STM32F4xx_HAL_Driver/Src/stm32f4xx_hal_gpio.c ****   uint32_t ioposition = 0x00;
 193:../STM32Cube_FW_F4_V1.4.0/Drivers/STM32F4xx_HAL_Driver/Src/stm32f4xx_hal_gpio.c ****   uint32_t iocurrent = 0x00;
 194:../STM32Cube_FW_F4_V1.4.0/Drivers/STM32F4xx_HAL_Driver/Src/stm32f4xx_hal_gpio.c ****   uint32_t temp = 0x00;
 195:../STM32Cube_FW_F4_V1.4.0/Drivers/STM32F4xx_HAL_Driver/Src/stm32f4xx_hal_gpio.c **** 
 196:../STM32Cube_FW_F4_V1.4.0/Drivers/STM32F4xx_HAL_Driver/Src/stm32f4xx_hal_gpio.c ****   /* Check the parameters */
 197:../STM32Cube_FW_F4_V1.4.0/Drivers/STM32F4xx_HAL_Driver/Src/stm32f4xx_hal_gpio.c ****   assert_param(IS_GPIO_ALL_INSTANCE(GPIOx));
  97              		.loc 1 197 0
  98 0004 914B     		ldr	r3, .L40	@ tmp200,
  99 0006 9842     		cmp	r0, r3	@ GPIOx, tmp200
 190:../STM32Cube_FW_F4_V1.4.0/Drivers/STM32F4xx_HAL_Driver/Src/stm32f4xx_hal_gpio.c ****   uint32_t position;
 100              		.loc 1 190 0
 101 0008 0446     		mov	r4, r0	@ GPIOx, GPIOx
 102 000a 0D46     		mov	r5, r1	@ GPIO_Init, GPIO_Init
 103              		.loc 1 197 0
 104 000c 23D0     		beq	.L2	@,
 105              		.loc 1 197 0 is_stmt 0 discriminator 1
 106 000e 03F58063 		add	r3, r3, #1024	@ tmp201, tmp201,
 107 0012 9842     		cmp	r0, r3	@ GPIOx, tmp201
 108 0014 1FD0     		beq	.L2	@,
 109              		.loc 1 197 0 discriminator 2
 110 0016 03F58063 		add	r3, r3, #1024	@ tmp202, tmp202,
 111 001a 9842     		cmp	r0, r3	@ GPIOx, tmp202
 112 001c 1BD0     		beq	.L2	@,
 113              		.loc 1 197 0 discriminator 3
 114 001e 03F58063 		add	r3, r3, #1024	@ tmp203, tmp203,
 115 0022 9842     		cmp	r0, r3	@ GPIOx, tmp203
 116 0024 17D0     		beq	.L2	@,
 117              		.loc 1 197 0 discriminator 4
 118 0026 03F58063 		add	r3, r3, #1024	@ tmp204, tmp204,
 119 002a 9842     		cmp	r0, r3	@ GPIOx, tmp204
 120 002c 13D0     		beq	.L2	@,
 121              		.loc 1 197 0 discriminator 5
 122 002e 03F58063 		add	r3, r3, #1024	@ tmp205, tmp205,
 123 0032 9842     		cmp	r0, r3	@ GPIOx, tmp205
 124 0034 0FD0     		beq	.L2	@,
 125              		.loc 1 197 0 discriminator 6
 126 0036 03F58063 		add	r3, r3, #1024	@ tmp206, tmp206,
 127 003a 9842     		cmp	r0, r3	@ GPIOx, tmp206
 128 003c 0BD0     		beq	.L2	@,
 129              		.loc 1 197 0 discriminator 7
 130 003e 03F58063 		add	r3, r3, #1024	@ tmp207, tmp207,
 131 0042 9842     		cmp	r0, r3	@ GPIOx, tmp207
 132 0044 07D0     		beq	.L2	@,
 133              		.loc 1 197 0 discriminator 8
 134 0046 03F58063 		add	r3, r3, #1024	@ tmp208, tmp208,
 135 004a 9842     		cmp	r0, r3	@ GPIOx, tmp208
 136 004c 03D0     		beq	.L2	@,
 137              		.loc 1 197 0 discriminator 9
 138 004e 8048     		ldr	r0, .L40+4	@,
 139              	.LVL1:
 140 0050 C521     		movs	r1, #197	@,
 141              	.LVL2:
 142 0052 FFF7FEFF 		bl	assert_failed	@
 143              	.LVL3:
 144              	.L2:
ARM GAS  C:\cygwin\tmp\ccblTS4I.s 			page 7


 198:../STM32Cube_FW_F4_V1.4.0/Drivers/STM32F4xx_HAL_Driver/Src/stm32f4xx_hal_gpio.c ****   assert_param(IS_GPIO_PIN(GPIO_Init->Pin));
 145              		.loc 1 198 0 is_stmt 1
 146 0056 2B88     		ldrh	r3, [r5]	@ D.7724, GPIO_Init_28(D)->Pin
 147 0058 1BB9     		cbnz	r3, .L3	@ D.7724,
 148              		.loc 1 198 0 is_stmt 0 discriminator 1
 149 005a 7D48     		ldr	r0, .L40+4	@,
 150 005c C621     		movs	r1, #198	@,
 151 005e FFF7FEFF 		bl	assert_failed	@
 152              	.LVL4:
 153              	.L3:
 199:../STM32Cube_FW_F4_V1.4.0/Drivers/STM32F4xx_HAL_Driver/Src/stm32f4xx_hal_gpio.c ****   assert_param(IS_GPIO_MODE(GPIO_Init->Mode));
 154              		.loc 1 199 0 is_stmt 1
 155 0062 6B68     		ldr	r3, [r5, #4]	@ D.7724, GPIO_Init_28(D)->Mode
 156 0064 032B     		cmp	r3, #3	@ D.7724,
 157 0066 17D9     		bls	.L4	@,
 158              		.loc 1 199 0 is_stmt 0 discriminator 1
 159 0068 A3F11102 		sub	r2, r3, #17	@ D.7724, D.7724,
 160 006c 012A     		cmp	r2, #1	@ D.7724,
 161 006e 13D9     		bls	.L4	@,
 162              		.loc 1 199 0 discriminator 4
 163 0070 7849     		ldr	r1, .L40+8	@ tmp214,
 164 0072 23F40012 		bic	r2, r3, #2097152	@ D.7724, D.7724,
 165 0076 8A42     		cmp	r2, r1	@ D.7724, tmp214
 166 0078 0ED0     		beq	.L4	@,
 167              		.loc 1 199 0 discriminator 5
 168 007a 01F58011 		add	r1, r1, #1048576	@ tmp215, tmp215,
 169 007e 8B42     		cmp	r3, r1	@ D.7724, tmp215
 170 0080 0AD0     		beq	.L4	@,
 171              		.loc 1 199 0 discriminator 7
 172 0082 A1F57021 		sub	r1, r1, #983040	@ tmp216, tmp216,
 173 0086 8A42     		cmp	r2, r1	@ D.7724, tmp216
 174 0088 06D0     		beq	.L4	@,
 175              		.loc 1 199 0 discriminator 8
 176 008a 734A     		ldr	r2, .L40+12	@ tmp217,
 177 008c 9342     		cmp	r3, r2	@ D.7724, tmp217
 178 008e 03D0     		beq	.L4	@,
 179              		.loc 1 199 0 discriminator 11
 180 0090 6F48     		ldr	r0, .L40+4	@,
 181 0092 C721     		movs	r1, #199	@,
 182 0094 FFF7FEFF 		bl	assert_failed	@
 183              	.LVL5:
 184              	.L4:
 200:../STM32Cube_FW_F4_V1.4.0/Drivers/STM32F4xx_HAL_Driver/Src/stm32f4xx_hal_gpio.c ****   assert_param(IS_GPIO_PULL(GPIO_Init->Pull));
 185              		.loc 1 200 0 is_stmt 1
 186 0098 AB68     		ldr	r3, [r5, #8]	@ GPIO_Init_28(D)->Pull, GPIO_Init_28(D)->Pull
 187 009a 022B     		cmp	r3, #2	@ GPIO_Init_28(D)->Pull,
 188 009c 03D9     		bls	.L5	@,
 189              		.loc 1 200 0 is_stmt 0 discriminator 1
 190 009e 6C48     		ldr	r0, .L40+4	@,
 191 00a0 C821     		movs	r1, #200	@,
 192 00a2 FFF7FEFF 		bl	assert_failed	@
 193              	.LVL6:
 194              	.L5:
 190:../STM32Cube_FW_F4_V1.4.0/Drivers/STM32F4xx_HAL_Driver/Src/stm32f4xx_hal_gpio.c ****   uint32_t position;
 195              		.loc 1 190 0 is_stmt 1 discriminator 1
 196 00a6 0026     		movs	r6, #0	@ position,
 197              	.LVL7:
ARM GAS  C:\cygwin\tmp\ccblTS4I.s 			page 8


 198              	.L22:
 201:../STM32Cube_FW_F4_V1.4.0/Drivers/STM32F4xx_HAL_Driver/Src/stm32f4xx_hal_gpio.c **** 
 202:../STM32Cube_FW_F4_V1.4.0/Drivers/STM32F4xx_HAL_Driver/Src/stm32f4xx_hal_gpio.c ****   /* Configure the port pins */
 203:../STM32Cube_FW_F4_V1.4.0/Drivers/STM32F4xx_HAL_Driver/Src/stm32f4xx_hal_gpio.c ****   for(position = 0; position < GPIO_NUMBER; position++)
 204:../STM32Cube_FW_F4_V1.4.0/Drivers/STM32F4xx_HAL_Driver/Src/stm32f4xx_hal_gpio.c ****   {
 205:../STM32Cube_FW_F4_V1.4.0/Drivers/STM32F4xx_HAL_Driver/Src/stm32f4xx_hal_gpio.c ****     /* Get the IO position */
 206:../STM32Cube_FW_F4_V1.4.0/Drivers/STM32F4xx_HAL_Driver/Src/stm32f4xx_hal_gpio.c ****     ioposition = ((uint32_t)0x01) << position;
 199              		.loc 1 206 0
 200 00a8 0123     		movs	r3, #1	@ tmp221,
 207:../STM32Cube_FW_F4_V1.4.0/Drivers/STM32F4xx_HAL_Driver/Src/stm32f4xx_hal_gpio.c ****     /* Get the current IO position */
 208:../STM32Cube_FW_F4_V1.4.0/Drivers/STM32F4xx_HAL_Driver/Src/stm32f4xx_hal_gpio.c ****     iocurrent = (uint32_t)(GPIO_Init->Pin) & ioposition;
 201              		.loc 1 208 0
 202 00aa 2F68     		ldr	r7, [r5]	@ GPIO_Init_28(D)->Pin, GPIO_Init_28(D)->Pin
 206:../STM32Cube_FW_F4_V1.4.0/Drivers/STM32F4xx_HAL_Driver/Src/stm32f4xx_hal_gpio.c ****     /* Get the current IO position */
 203              		.loc 1 206 0
 204 00ac B340     		lsls	r3, r3, r6	@ ioposition, tmp221, position
 205              	.LVL8:
 206              		.loc 1 208 0
 207 00ae 1F40     		ands	r7, r7, r3	@, iocurrent, GPIO_Init_28(D)->Pin, ioposition
 208              	.LVL9:
 209:../STM32Cube_FW_F4_V1.4.0/Drivers/STM32F4xx_HAL_Driver/Src/stm32f4xx_hal_gpio.c **** 
 210:../STM32Cube_FW_F4_V1.4.0/Drivers/STM32F4xx_HAL_Driver/Src/stm32f4xx_hal_gpio.c ****     if(iocurrent == ioposition)
 209              		.loc 1 210 0
 210 00b0 9F42     		cmp	r7, r3	@ iocurrent, ioposition
 211 00b2 40F0C580 		bne	.L7	@,
 211:../STM32Cube_FW_F4_V1.4.0/Drivers/STM32F4xx_HAL_Driver/Src/stm32f4xx_hal_gpio.c ****     {
 212:../STM32Cube_FW_F4_V1.4.0/Drivers/STM32F4xx_HAL_Driver/Src/stm32f4xx_hal_gpio.c ****       /*--------------------- GPIO Mode Configuration ------------------------*/
 213:../STM32Cube_FW_F4_V1.4.0/Drivers/STM32F4xx_HAL_Driver/Src/stm32f4xx_hal_gpio.c ****       /* In case of Alternate function mode selection */
 214:../STM32Cube_FW_F4_V1.4.0/Drivers/STM32F4xx_HAL_Driver/Src/stm32f4xx_hal_gpio.c ****       if((GPIO_Init->Mode == GPIO_MODE_AF_PP) || (GPIO_Init->Mode == GPIO_MODE_AF_OD))
 212              		.loc 1 214 0
 213 00b6 6B68     		ldr	r3, [r5, #4]	@ GPIO_Init_28(D)->Mode, GPIO_Init_28(D)->Mode
 214              	.LVL10:
 215 00b8 23F01003 		bic	r3, r3, #16	@ D.7724, GPIO_Init_28(D)->Mode,
 216 00bc 022B     		cmp	r3, #2	@ D.7724,
 217 00be 17D1     		bne	.L8	@,
 215:../STM32Cube_FW_F4_V1.4.0/Drivers/STM32F4xx_HAL_Driver/Src/stm32f4xx_hal_gpio.c ****       {
 216:../STM32Cube_FW_F4_V1.4.0/Drivers/STM32F4xx_HAL_Driver/Src/stm32f4xx_hal_gpio.c ****         /* Check the Alternate function parameter */
 217:../STM32Cube_FW_F4_V1.4.0/Drivers/STM32F4xx_HAL_Driver/Src/stm32f4xx_hal_gpio.c ****         assert_param(IS_GPIO_AF(GPIO_Init->Alternate));
 218              		.loc 1 217 0
 219 00c0 2B69     		ldr	r3, [r5, #16]	@ D.7724, GPIO_Init_28(D)->Alternate
 220 00c2 0D2B     		cmp	r3, #13	@ D.7724,
 221 00c4 05D9     		bls	.L9	@,
 222              		.loc 1 217 0 is_stmt 0 discriminator 35
 223 00c6 0F2B     		cmp	r3, #15	@ D.7724,
 224 00c8 03D0     		beq	.L9	@,
 225              		.loc 1 217 0 discriminator 36
 226 00ca 6148     		ldr	r0, .L40+4	@,
 227 00cc D921     		movs	r1, #217	@,
 228 00ce FFF7FEFF 		bl	assert_failed	@
 229              	.LVL11:
 230              	.L9:
 218:../STM32Cube_FW_F4_V1.4.0/Drivers/STM32F4xx_HAL_Driver/Src/stm32f4xx_hal_gpio.c ****         /* Configure Alternate function mapped with the current IO */
 219:../STM32Cube_FW_F4_V1.4.0/Drivers/STM32F4xx_HAL_Driver/Src/stm32f4xx_hal_gpio.c ****         temp = GPIOx->AFR[position >> 3];
 231              		.loc 1 219 0 is_stmt 1
 232 00d2 F208     		lsrs	r2, r6, #3	@ D.7724, position,
 233 00d4 04EB8202 		add	r2, r4, r2, lsl #2	@, D.7729, GPIOx, D.7724,
 220:../STM32Cube_FW_F4_V1.4.0/Drivers/STM32F4xx_HAL_Driver/Src/stm32f4xx_hal_gpio.c ****         temp &= ~((uint32_t)0xF << ((uint32_t)(position & (uint32_t)0x07) * 4)) ;
ARM GAS  C:\cygwin\tmp\ccblTS4I.s 			page 9


 234              		.loc 1 220 0
 235 00d8 06F00701 		and	r1, r6, #7	@ D.7724, position,
 219:../STM32Cube_FW_F4_V1.4.0/Drivers/STM32F4xx_HAL_Driver/Src/stm32f4xx_hal_gpio.c ****         temp &= ~((uint32_t)0xF << ((uint32_t)(position & (uint32_t)0x07) * 4)) ;
 236              		.loc 1 219 0
 237 00dc 106A     		ldr	r0, [r2, #32]	@ temp, MEM[(struct GPIO_TypeDef *)_191 + 32B]
 238              	.LVL12:
 239              		.loc 1 220 0
 240 00de 8900     		lsls	r1, r1, #2	@ D.7726, D.7724,
 241 00e0 0F23     		movs	r3, #15	@ tmp230,
 242 00e2 8B40     		lsls	r3, r3, r1	@ D.7724, tmp230, D.7726
 243 00e4 20EA0300 		bic	r0, r0, r3	@ temp, temp, D.7724
 244              	.LVL13:
 221:../STM32Cube_FW_F4_V1.4.0/Drivers/STM32F4xx_HAL_Driver/Src/stm32f4xx_hal_gpio.c ****         temp |= ((uint32_t)(GPIO_Init->Alternate) << (((uint32_t)position & (uint32_t)0x07) * 4));
 245              		.loc 1 221 0
 246 00e8 2B69     		ldr	r3, [r5, #16]	@ GPIO_Init_28(D)->Alternate, GPIO_Init_28(D)->Alternate
 247 00ea 8B40     		lsls	r3, r3, r1	@ D.7724, GPIO_Init_28(D)->Alternate, D.7726
 248 00ec 0343     		orrs	r3, r3, r0	@, temp, D.7724, temp
 249              	.LVL14:
 222:../STM32Cube_FW_F4_V1.4.0/Drivers/STM32F4xx_HAL_Driver/Src/stm32f4xx_hal_gpio.c ****         GPIOx->AFR[position >> 3] = temp;
 250              		.loc 1 222 0
 251 00ee 1362     		str	r3, [r2, #32]	@ temp, MEM[(struct GPIO_TypeDef *)_191 + 32B]
 252              	.LVL15:
 253              	.L8:
 254 00f0 4FEA4609 		lsl	r9, r6, #1	@ D.7726, position,
 223:../STM32Cube_FW_F4_V1.4.0/Drivers/STM32F4xx_HAL_Driver/Src/stm32f4xx_hal_gpio.c ****       }
 224:../STM32Cube_FW_F4_V1.4.0/Drivers/STM32F4xx_HAL_Driver/Src/stm32f4xx_hal_gpio.c **** 
 225:../STM32Cube_FW_F4_V1.4.0/Drivers/STM32F4xx_HAL_Driver/Src/stm32f4xx_hal_gpio.c ****       /* Configure IO Direction mode (Input, Output, Alternate or Analog) */
 226:../STM32Cube_FW_F4_V1.4.0/Drivers/STM32F4xx_HAL_Driver/Src/stm32f4xx_hal_gpio.c ****       temp = GPIOx->MODER;
 227:../STM32Cube_FW_F4_V1.4.0/Drivers/STM32F4xx_HAL_Driver/Src/stm32f4xx_hal_gpio.c ****       temp &= ~(GPIO_MODER_MODER0 << (position * 2));
 255              		.loc 1 227 0
 256 00f4 4FF00308 		mov	r8, #3	@ tmp235,
 226:../STM32Cube_FW_F4_V1.4.0/Drivers/STM32F4xx_HAL_Driver/Src/stm32f4xx_hal_gpio.c ****       temp &= ~(GPIO_MODER_MODER0 << (position * 2));
 257              		.loc 1 226 0
 258 00f8 2268     		ldr	r2, [r4]	@ temp, GPIOx_25(D)->MODER
 259              	.LVL16:
 228:../STM32Cube_FW_F4_V1.4.0/Drivers/STM32F4xx_HAL_Driver/Src/stm32f4xx_hal_gpio.c ****       temp |= ((GPIO_Init->Mode & GPIO_MODE) << (position * 2));
 260              		.loc 1 228 0
 261 00fa 6B68     		ldr	r3, [r5, #4]	@ D.7724, GPIO_Init_28(D)->Mode
 227:../STM32Cube_FW_F4_V1.4.0/Drivers/STM32F4xx_HAL_Driver/Src/stm32f4xx_hal_gpio.c ****       temp |= ((GPIO_Init->Mode & GPIO_MODE) << (position * 2));
 262              		.loc 1 227 0
 263 00fc 08FA09F8 		lsl	r8, r8, r9	@ D.7724, tmp235, D.7726
 264 0100 6FEA0808 		mvn	r8, r8	@ D.7724, D.7724
 265 0104 08EA0201 		and	r1, r8, r2	@ temp, D.7724, temp
 266              	.LVL17:
 267              		.loc 1 228 0
 268 0108 03F00302 		and	r2, r3, #3	@ D.7724, D.7724,
 229:../STM32Cube_FW_F4_V1.4.0/Drivers/STM32F4xx_HAL_Driver/Src/stm32f4xx_hal_gpio.c ****       GPIOx->MODER = temp;
 230:../STM32Cube_FW_F4_V1.4.0/Drivers/STM32F4xx_HAL_Driver/Src/stm32f4xx_hal_gpio.c **** 
 231:../STM32Cube_FW_F4_V1.4.0/Drivers/STM32F4xx_HAL_Driver/Src/stm32f4xx_hal_gpio.c ****       /* In case of Output or Alternate function mode selection */
 232:../STM32Cube_FW_F4_V1.4.0/Drivers/STM32F4xx_HAL_Driver/Src/stm32f4xx_hal_gpio.c ****       if((GPIO_Init->Mode == GPIO_MODE_OUTPUT_PP) || (GPIO_Init->Mode == GPIO_MODE_AF_PP) ||
 269              		.loc 1 232 0
 270 010c 23F01003 		bic	r3, r3, #16	@ D.7724, D.7724,
 228:../STM32Cube_FW_F4_V1.4.0/Drivers/STM32F4xx_HAL_Driver/Src/stm32f4xx_hal_gpio.c ****       GPIOx->MODER = temp;
 271              		.loc 1 228 0
 272 0110 02FA09F2 		lsl	r2, r2, r9	@ D.7724, D.7724, D.7726
 273              		.loc 1 232 0
 274 0114 013B     		subs	r3, r3, #1	@ D.7724, D.7724,
ARM GAS  C:\cygwin\tmp\ccblTS4I.s 			page 10


 228:../STM32Cube_FW_F4_V1.4.0/Drivers/STM32F4xx_HAL_Driver/Src/stm32f4xx_hal_gpio.c ****       GPIOx->MODER = temp;
 275              		.loc 1 228 0
 276 0116 0A43     		orrs	r2, r2, r1	@, temp, D.7724, temp
 277              	.LVL18:
 278              		.loc 1 232 0
 279 0118 012B     		cmp	r3, #1	@ D.7724,
 229:../STM32Cube_FW_F4_V1.4.0/Drivers/STM32F4xx_HAL_Driver/Src/stm32f4xx_hal_gpio.c ****       GPIOx->MODER = temp;
 280              		.loc 1 229 0
 281 011a 2260     		str	r2, [r4]	@ temp, GPIOx_25(D)->MODER
 282              		.loc 1 232 0
 283 011c 17D8     		bhi	.L10	@,
 233:../STM32Cube_FW_F4_V1.4.0/Drivers/STM32F4xx_HAL_Driver/Src/stm32f4xx_hal_gpio.c ****          (GPIO_Init->Mode == GPIO_MODE_OUTPUT_OD) || (GPIO_Init->Mode == GPIO_MODE_AF_OD))
 234:../STM32Cube_FW_F4_V1.4.0/Drivers/STM32F4xx_HAL_Driver/Src/stm32f4xx_hal_gpio.c ****       {
 235:../STM32Cube_FW_F4_V1.4.0/Drivers/STM32F4xx_HAL_Driver/Src/stm32f4xx_hal_gpio.c ****         /* Check the Speed parameter */
 236:../STM32Cube_FW_F4_V1.4.0/Drivers/STM32F4xx_HAL_Driver/Src/stm32f4xx_hal_gpio.c ****         assert_param(IS_GPIO_SPEED(GPIO_Init->Speed));
 284              		.loc 1 236 0
 285 011e EB68     		ldr	r3, [r5, #12]	@ GPIO_Init_28(D)->Speed, GPIO_Init_28(D)->Speed
 286 0120 032B     		cmp	r3, #3	@ GPIO_Init_28(D)->Speed,
 287 0122 03D9     		bls	.L11	@,
 288              		.loc 1 236 0 is_stmt 0 discriminator 1
 289 0124 4A48     		ldr	r0, .L40+4	@,
 290 0126 EC21     		movs	r1, #236	@,
 291 0128 FFF7FEFF 		bl	assert_failed	@
 292              	.LVL19:
 293              	.L11:
 237:../STM32Cube_FW_F4_V1.4.0/Drivers/STM32F4xx_HAL_Driver/Src/stm32f4xx_hal_gpio.c ****         /* Configure the IO Speed */
 238:../STM32Cube_FW_F4_V1.4.0/Drivers/STM32F4xx_HAL_Driver/Src/stm32f4xx_hal_gpio.c ****         temp = GPIOx->OSPEEDR; 
 294              		.loc 1 238 0 is_stmt 1
 295 012c A368     		ldr	r3, [r4, #8]	@ temp, GPIOx_25(D)->OSPEEDR
 296              	.LVL20:
 239:../STM32Cube_FW_F4_V1.4.0/Drivers/STM32F4xx_HAL_Driver/Src/stm32f4xx_hal_gpio.c ****         temp &= ~(GPIO_OSPEEDER_OSPEEDR0 << (position * 2));
 297              		.loc 1 239 0
 298 012e 08EA0302 		and	r2, r8, r3	@ temp, D.7724, temp
 299              	.LVL21:
 240:../STM32Cube_FW_F4_V1.4.0/Drivers/STM32F4xx_HAL_Driver/Src/stm32f4xx_hal_gpio.c ****         temp |= (GPIO_Init->Speed << (position * 2));
 300              		.loc 1 240 0
 301 0132 EB68     		ldr	r3, [r5, #12]	@ GPIO_Init_28(D)->Speed, GPIO_Init_28(D)->Speed
 302 0134 03FA09F3 		lsl	r3, r3, r9	@ D.7724, GPIO_Init_28(D)->Speed, D.7726
 303 0138 1343     		orrs	r3, r3, r2	@, temp, D.7724, temp
 304              	.LVL22:
 241:../STM32Cube_FW_F4_V1.4.0/Drivers/STM32F4xx_HAL_Driver/Src/stm32f4xx_hal_gpio.c ****         GPIOx->OSPEEDR = temp;
 305              		.loc 1 241 0
 306 013a A360     		str	r3, [r4, #8]	@ temp, GPIOx_25(D)->OSPEEDR
 242:../STM32Cube_FW_F4_V1.4.0/Drivers/STM32F4xx_HAL_Driver/Src/stm32f4xx_hal_gpio.c **** 
 243:../STM32Cube_FW_F4_V1.4.0/Drivers/STM32F4xx_HAL_Driver/Src/stm32f4xx_hal_gpio.c ****         /* Configure the IO Output Type */
 244:../STM32Cube_FW_F4_V1.4.0/Drivers/STM32F4xx_HAL_Driver/Src/stm32f4xx_hal_gpio.c ****         temp = GPIOx->OTYPER;
 307              		.loc 1 244 0
 308 013c 6368     		ldr	r3, [r4, #4]	@ temp, GPIOx_25(D)->OTYPER
 309              	.LVL23:
 245:../STM32Cube_FW_F4_V1.4.0/Drivers/STM32F4xx_HAL_Driver/Src/stm32f4xx_hal_gpio.c ****         temp &= ~(GPIO_OTYPER_OT_0 << position) ;
 310              		.loc 1 245 0
 311 013e 23EA0702 		bic	r2, r3, r7	@ temp, temp, iocurrent
 312              	.LVL24:
 246:../STM32Cube_FW_F4_V1.4.0/Drivers/STM32F4xx_HAL_Driver/Src/stm32f4xx_hal_gpio.c ****         temp |= (((GPIO_Init->Mode & GPIO_OUTPUT_TYPE) >> 4) << position);
 313              		.loc 1 246 0
 314 0142 6B68     		ldr	r3, [r5, #4]	@ GPIO_Init_28(D)->Mode, GPIO_Init_28(D)->Mode
 315 0144 C3F30013 		ubfx	r3, r3, #4, #1	@ D.7724, GPIO_Init_28(D)->Mode,,
ARM GAS  C:\cygwin\tmp\ccblTS4I.s 			page 11


 316 0148 B340     		lsls	r3, r3, r6	@ D.7724, D.7724, position
 317 014a 1343     		orrs	r3, r3, r2	@, temp, D.7724, temp
 318              	.LVL25:
 247:../STM32Cube_FW_F4_V1.4.0/Drivers/STM32F4xx_HAL_Driver/Src/stm32f4xx_hal_gpio.c ****         GPIOx->OTYPER = temp;
 319              		.loc 1 247 0
 320 014c 6360     		str	r3, [r4, #4]	@ temp, GPIOx_25(D)->OTYPER
 321              	.LVL26:
 322              	.L10:
 248:../STM32Cube_FW_F4_V1.4.0/Drivers/STM32F4xx_HAL_Driver/Src/stm32f4xx_hal_gpio.c ****       }
 249:../STM32Cube_FW_F4_V1.4.0/Drivers/STM32F4xx_HAL_Driver/Src/stm32f4xx_hal_gpio.c **** 
 250:../STM32Cube_FW_F4_V1.4.0/Drivers/STM32F4xx_HAL_Driver/Src/stm32f4xx_hal_gpio.c ****       /* Activate the Pull-up or Pull down resistor for the current IO */
 251:../STM32Cube_FW_F4_V1.4.0/Drivers/STM32F4xx_HAL_Driver/Src/stm32f4xx_hal_gpio.c ****       temp = GPIOx->PUPDR;
 323              		.loc 1 251 0
 324 014e E368     		ldr	r3, [r4, #12]	@ temp, GPIOx_25(D)->PUPDR
 325              	.LVL27:
 252:../STM32Cube_FW_F4_V1.4.0/Drivers/STM32F4xx_HAL_Driver/Src/stm32f4xx_hal_gpio.c ****       temp &= ~(GPIO_PUPDR_PUPDR0 << (position * 2));
 253:../STM32Cube_FW_F4_V1.4.0/Drivers/STM32F4xx_HAL_Driver/Src/stm32f4xx_hal_gpio.c ****       temp |= ((GPIO_Init->Pull) << (position * 2));
 254:../STM32Cube_FW_F4_V1.4.0/Drivers/STM32F4xx_HAL_Driver/Src/stm32f4xx_hal_gpio.c ****       GPIOx->PUPDR = temp;
 255:../STM32Cube_FW_F4_V1.4.0/Drivers/STM32F4xx_HAL_Driver/Src/stm32f4xx_hal_gpio.c **** 
 256:../STM32Cube_FW_F4_V1.4.0/Drivers/STM32F4xx_HAL_Driver/Src/stm32f4xx_hal_gpio.c ****       /*--------------------- EXTI Mode Configuration ------------------------*/
 257:../STM32Cube_FW_F4_V1.4.0/Drivers/STM32F4xx_HAL_Driver/Src/stm32f4xx_hal_gpio.c ****       /* Configure the External Interrupt or event for the current IO */
 258:../STM32Cube_FW_F4_V1.4.0/Drivers/STM32F4xx_HAL_Driver/Src/stm32f4xx_hal_gpio.c ****       if((GPIO_Init->Mode & EXTI_MODE) == EXTI_MODE)
 326              		.loc 1 258 0
 327 0150 6968     		ldr	r1, [r5, #4]	@ D.7724, GPIO_Init_28(D)->Mode
 252:../STM32Cube_FW_F4_V1.4.0/Drivers/STM32F4xx_HAL_Driver/Src/stm32f4xx_hal_gpio.c ****       temp &= ~(GPIO_PUPDR_PUPDR0 << (position * 2));
 328              		.loc 1 252 0
 329 0152 08EA0308 		and	r8, r8, r3	@ temp, D.7724, temp
 330              	.LVL28:
 253:../STM32Cube_FW_F4_V1.4.0/Drivers/STM32F4xx_HAL_Driver/Src/stm32f4xx_hal_gpio.c ****       GPIOx->PUPDR = temp;
 331              		.loc 1 253 0
 332 0156 AB68     		ldr	r3, [r5, #8]	@ GPIO_Init_28(D)->Pull, GPIO_Init_28(D)->Pull
 333 0158 03FA09F3 		lsl	r3, r3, r9	@ D.7724, GPIO_Init_28(D)->Pull, D.7726
 334 015c 48EA0303 		orr	r3, r8, r3	@ temp, temp, D.7724
 335              	.LVL29:
 254:../STM32Cube_FW_F4_V1.4.0/Drivers/STM32F4xx_HAL_Driver/Src/stm32f4xx_hal_gpio.c **** 
 336              		.loc 1 254 0
 337 0160 E360     		str	r3, [r4, #12]	@ temp, GPIOx_25(D)->PUPDR
 338              		.loc 1 258 0
 339 0162 CB00     		lsls	r3, r1, #3	@, D.7724,
 340              	.LVL30:
 341 0164 6CD5     		bpl	.L7	@,
 259:../STM32Cube_FW_F4_V1.4.0/Drivers/STM32F4xx_HAL_Driver/Src/stm32f4xx_hal_gpio.c ****       {
 260:../STM32Cube_FW_F4_V1.4.0/Drivers/STM32F4xx_HAL_Driver/Src/stm32f4xx_hal_gpio.c ****         /* Enable SYSCFG Clock */
 261:../STM32Cube_FW_F4_V1.4.0/Drivers/STM32F4xx_HAL_Driver/Src/stm32f4xx_hal_gpio.c ****         __HAL_RCC_SYSCFG_CLK_ENABLE();
 342              		.loc 1 261 0
 343 0166 3D4A     		ldr	r2, .L40+16	@ tmp252,
 344 0168 536C     		ldr	r3, [r2, #68]	@ D.7724, MEM[(struct RCC_TypeDef *)1073887232B].APB2ENR
 345 016a 43F48043 		orr	r3, r3, #16384	@ D.7724, D.7724,
 346 016e 5364     		str	r3, [r2, #68]	@ D.7724, MEM[(struct RCC_TypeDef *)1073887232B].APB2ENR
 347              	.LVL31:
 348 0170 26F00302 		bic	r2, r6, #3	@ D.7725, position,
 349 0174 02F18042 		add	r2, r2, #1073741824	@ D.7727, D.7725,
 350 0178 02F59C32 		add	r2, r2, #79872	@ D.7727, D.7727,
 262:../STM32Cube_FW_F4_V1.4.0/Drivers/STM32F4xx_HAL_Driver/Src/stm32f4xx_hal_gpio.c **** 
 263:../STM32Cube_FW_F4_V1.4.0/Drivers/STM32F4xx_HAL_Driver/Src/stm32f4xx_hal_gpio.c ****         temp = SYSCFG->EXTICR[position >> 2];
 264:../STM32Cube_FW_F4_V1.4.0/Drivers/STM32F4xx_HAL_Driver/Src/stm32f4xx_hal_gpio.c ****         temp &= ~(((uint32_t)0x0F) << (4 * (position & 0x03)));
 351              		.loc 1 264 0
ARM GAS  C:\cygwin\tmp\ccblTS4I.s 			page 12


 352 017c 06F0030E 		and	lr, r6, #3	@ D.7724, position,
 263:../STM32Cube_FW_F4_V1.4.0/Drivers/STM32F4xx_HAL_Driver/Src/stm32f4xx_hal_gpio.c ****         temp &= ~(((uint32_t)0x0F) << (4 * (position & 0x03)));
 353              		.loc 1 263 0
 354 0180 9068     		ldr	r0, [r2, #8]	@ temp, MEM[(struct SYSCFG_TypeDef *)_182 + 8B]
 355              	.LVL32:
 356              		.loc 1 264 0
 357 0182 4FEA8E0E 		lsl	lr, lr, #2	@ D.7726, D.7724,
 358 0186 0F23     		movs	r3, #15	@ tmp259,
 359 0188 03FA0EF3 		lsl	r3, r3, lr	@ D.7724, tmp259, D.7726
 360 018c 20EA0300 		bic	r0, r0, r3	@ temp, temp, D.7724
 361              	.LVL33:
 265:../STM32Cube_FW_F4_V1.4.0/Drivers/STM32F4xx_HAL_Driver/Src/stm32f4xx_hal_gpio.c ****         temp |= ((uint32_t)(GPIO_GET_INDEX(GPIOx)) << (4 * (position & 0x03)));
 362              		.loc 1 265 0
 363 0190 2E4B     		ldr	r3, .L40	@ tmp261,
 364 0192 9C42     		cmp	r4, r3	@ GPIOx, tmp261
 365 0194 22D0     		beq	.L23	@,
 366              		.loc 1 265 0 is_stmt 0 discriminator 1
 367 0196 03F58063 		add	r3, r3, #1024	@ tmp262, tmp262,
 368 019a 9C42     		cmp	r4, r3	@ GPIOx, tmp262
 369 019c 20D0     		beq	.L24	@,
 370              		.loc 1 265 0 discriminator 3
 371 019e 03F58063 		add	r3, r3, #1024	@ tmp263, tmp263,
 372 01a2 9C42     		cmp	r4, r3	@ GPIOx, tmp263
 373 01a4 1ED0     		beq	.L25	@,
 374              		.loc 1 265 0 discriminator 5
 375 01a6 03F58063 		add	r3, r3, #1024	@ tmp264, tmp264,
 376 01aa 9C42     		cmp	r4, r3	@ GPIOx, tmp264
 377 01ac 1CD0     		beq	.L26	@,
 378              		.loc 1 265 0 discriminator 7
 379 01ae 03F58063 		add	r3, r3, #1024	@ tmp265, tmp265,
 380 01b2 9C42     		cmp	r4, r3	@ GPIOx, tmp265
 381 01b4 1AD0     		beq	.L27	@,
 382              		.loc 1 265 0 discriminator 9
 383 01b6 03F58063 		add	r3, r3, #1024	@ tmp266, tmp266,
 384 01ba 9C42     		cmp	r4, r3	@ GPIOx, tmp266
 385 01bc 18D0     		beq	.L28	@,
 386              		.loc 1 265 0 discriminator 11
 387 01be 03F58063 		add	r3, r3, #1024	@ tmp267, tmp267,
 388 01c2 9C42     		cmp	r4, r3	@ GPIOx, tmp267
 389 01c4 16D0     		beq	.L29	@,
 390              		.loc 1 265 0 discriminator 13
 391 01c6 03F58063 		add	r3, r3, #1024	@ tmp268, tmp268,
 392 01ca 9C42     		cmp	r4, r3	@ GPIOx, tmp268
 393 01cc 14D0     		beq	.L30	@,
 394              		.loc 1 265 0 discriminator 15
 395 01ce 03F58063 		add	r3, r3, #1024	@ tmp269, tmp269,
 396 01d2 9C42     		cmp	r4, r3	@ GPIOx, tmp269
 397 01d4 0CBF     		ite	eq	@
 398 01d6 0823     		moveq	r3, #8	@, D.7724,
 399 01d8 0923     		movne	r3, #9	@, D.7724,
 400 01da 0EE0     		b	.L13	@
 401              	.L23:
 402              		.loc 1 265 0
 403 01dc 0023     		movs	r3, #0	@ D.7724,
 404 01de 0CE0     		b	.L13	@
 405              	.L24:
 406 01e0 0123     		movs	r3, #1	@ D.7724,
ARM GAS  C:\cygwin\tmp\ccblTS4I.s 			page 13


 407              	.LVL34:
 408 01e2 0AE0     		b	.L13	@
 409              	.LVL35:
 410              	.L25:
 411 01e4 0223     		movs	r3, #2	@ D.7724,
 412 01e6 08E0     		b	.L13	@
 413              	.L26:
 414 01e8 0323     		movs	r3, #3	@ D.7724,
 415 01ea 06E0     		b	.L13	@
 416              	.L27:
 417 01ec 0423     		movs	r3, #4	@ D.7724,
 418 01ee 04E0     		b	.L13	@
 419              	.L28:
 420 01f0 0523     		movs	r3, #5	@ D.7724,
 421 01f2 02E0     		b	.L13	@
 422              	.L29:
 423 01f4 0623     		movs	r3, #6	@ D.7724,
 424 01f6 00E0     		b	.L13	@
 425              	.L30:
 426 01f8 0723     		movs	r3, #7	@ D.7724,
 427              	.L13:
 428              		.loc 1 265 0 discriminator 36
 429 01fa 03FA0EF3 		lsl	r3, r3, lr	@ D.7724, D.7724, D.7726
 430 01fe 0343     		orrs	r3, r3, r0	@, temp, D.7724, temp
 431              	.LVL36:
 266:../STM32Cube_FW_F4_V1.4.0/Drivers/STM32F4xx_HAL_Driver/Src/stm32f4xx_hal_gpio.c ****         SYSCFG->EXTICR[position >> 2] = temp;
 267:../STM32Cube_FW_F4_V1.4.0/Drivers/STM32F4xx_HAL_Driver/Src/stm32f4xx_hal_gpio.c **** 
 268:../STM32Cube_FW_F4_V1.4.0/Drivers/STM32F4xx_HAL_Driver/Src/stm32f4xx_hal_gpio.c ****         /* Clear EXTI line configuration */
 269:../STM32Cube_FW_F4_V1.4.0/Drivers/STM32F4xx_HAL_Driver/Src/stm32f4xx_hal_gpio.c ****         temp = EXTI->IMR;
 432              		.loc 1 269 0 is_stmt 1 discriminator 36
 433 0200 1748     		ldr	r0, .L40+20	@ tmp271,
 266:../STM32Cube_FW_F4_V1.4.0/Drivers/STM32F4xx_HAL_Driver/Src/stm32f4xx_hal_gpio.c ****         SYSCFG->EXTICR[position >> 2] = temp;
 434              		.loc 1 266 0 discriminator 36
 435 0202 9360     		str	r3, [r2, #8]	@ temp, MEM[(struct SYSCFG_TypeDef *)_182 + 8B]
 436              		.loc 1 269 0 discriminator 36
 437 0204 0368     		ldr	r3, [r0]	@ temp, MEM[(struct EXTI_TypeDef *)1073822720B].IMR
 438              	.LVL37:
 270:../STM32Cube_FW_F4_V1.4.0/Drivers/STM32F4xx_HAL_Driver/Src/stm32f4xx_hal_gpio.c ****         temp &= ~((uint32_t)iocurrent);
 439              		.loc 1 270 0 discriminator 36
 440 0206 FA43     		mvns	r2, r7	@ D.7724, iocurrent
 441              	.LVL38:
 271:../STM32Cube_FW_F4_V1.4.0/Drivers/STM32F4xx_HAL_Driver/Src/stm32f4xx_hal_gpio.c ****         if((GPIO_Init->Mode & GPIO_MODE_IT) == GPIO_MODE_IT)
 442              		.loc 1 271 0 discriminator 36
 443 0208 11F4803F 		tst	r1, #65536	@ D.7724,
 272:../STM32Cube_FW_F4_V1.4.0/Drivers/STM32F4xx_HAL_Driver/Src/stm32f4xx_hal_gpio.c ****         {
 273:../STM32Cube_FW_F4_V1.4.0/Drivers/STM32F4xx_HAL_Driver/Src/stm32f4xx_hal_gpio.c ****           temp |= iocurrent;
 444              		.loc 1 273 0 discriminator 36
 445 020c 14BF     		ite	ne
 446 020e 3B43     		orrne	r3, r3, r7	@ temp, temp, iocurrent
 447              	.LVL39:
 270:../STM32Cube_FW_F4_V1.4.0/Drivers/STM32F4xx_HAL_Driver/Src/stm32f4xx_hal_gpio.c ****         if((GPIO_Init->Mode & GPIO_MODE_IT) == GPIO_MODE_IT)
 448              		.loc 1 270 0 discriminator 36
 449 0210 1340     		andeq	r3, r3, r2	@ temp, temp, D.7724
 450              	.LVL40:
 274:../STM32Cube_FW_F4_V1.4.0/Drivers/STM32F4xx_HAL_Driver/Src/stm32f4xx_hal_gpio.c ****         }
 275:../STM32Cube_FW_F4_V1.4.0/Drivers/STM32F4xx_HAL_Driver/Src/stm32f4xx_hal_gpio.c ****         EXTI->IMR = temp;
 451              		.loc 1 275 0 discriminator 36
ARM GAS  C:\cygwin\tmp\ccblTS4I.s 			page 14


 452 0212 0360     		str	r3, [r0]	@ temp, MEM[(struct EXTI_TypeDef *)1073822720B].IMR
 276:../STM32Cube_FW_F4_V1.4.0/Drivers/STM32F4xx_HAL_Driver/Src/stm32f4xx_hal_gpio.c **** 
 277:../STM32Cube_FW_F4_V1.4.0/Drivers/STM32F4xx_HAL_Driver/Src/stm32f4xx_hal_gpio.c ****         temp = EXTI->EMR;
 453              		.loc 1 277 0 discriminator 36
 454 0214 4368     		ldr	r3, [r0, #4]	@ temp, MEM[(struct EXTI_TypeDef *)1073822720B].EMR
 455              	.LVL41:
 278:../STM32Cube_FW_F4_V1.4.0/Drivers/STM32F4xx_HAL_Driver/Src/stm32f4xx_hal_gpio.c ****         temp &= ~((uint32_t)iocurrent);
 279:../STM32Cube_FW_F4_V1.4.0/Drivers/STM32F4xx_HAL_Driver/Src/stm32f4xx_hal_gpio.c ****         if((GPIO_Init->Mode & GPIO_MODE_EVT) == GPIO_MODE_EVT)
 456              		.loc 1 279 0 discriminator 36
 457 0216 8803     		lsls	r0, r1, #14	@, D.7724,
 280:../STM32Cube_FW_F4_V1.4.0/Drivers/STM32F4xx_HAL_Driver/Src/stm32f4xx_hal_gpio.c ****         {
 281:../STM32Cube_FW_F4_V1.4.0/Drivers/STM32F4xx_HAL_Driver/Src/stm32f4xx_hal_gpio.c ****           temp |= iocurrent;
 282:../STM32Cube_FW_F4_V1.4.0/Drivers/STM32F4xx_HAL_Driver/Src/stm32f4xx_hal_gpio.c ****         }
 283:../STM32Cube_FW_F4_V1.4.0/Drivers/STM32F4xx_HAL_Driver/Src/stm32f4xx_hal_gpio.c ****         EXTI->EMR = temp;
 458              		.loc 1 283 0 discriminator 36
 459 0218 1148     		ldr	r0, .L40+20	@ tmp276,
 281:../STM32Cube_FW_F4_V1.4.0/Drivers/STM32F4xx_HAL_Driver/Src/stm32f4xx_hal_gpio.c ****         }
 460              		.loc 1 281 0 discriminator 36
 461 021a 4CBF     		ite	mi
 462 021c 3B43     		orrmi	r3, r3, r7	@ temp, temp, iocurrent
 463              	.LVL42:
 278:../STM32Cube_FW_F4_V1.4.0/Drivers/STM32F4xx_HAL_Driver/Src/stm32f4xx_hal_gpio.c ****         temp &= ~((uint32_t)iocurrent);
 464              		.loc 1 278 0 discriminator 36
 465 021e 1340     		andpl	r3, r3, r2	@ temp, temp, D.7724
 466              	.LVL43:
 467              		.loc 1 283 0 discriminator 36
 468 0220 4360     		str	r3, [r0, #4]	@ temp, MEM[(struct EXTI_TypeDef *)1073822720B].EMR
 284:../STM32Cube_FW_F4_V1.4.0/Drivers/STM32F4xx_HAL_Driver/Src/stm32f4xx_hal_gpio.c **** 
 285:../STM32Cube_FW_F4_V1.4.0/Drivers/STM32F4xx_HAL_Driver/Src/stm32f4xx_hal_gpio.c ****         /* Clear Rising Falling edge configuration */
 286:../STM32Cube_FW_F4_V1.4.0/Drivers/STM32F4xx_HAL_Driver/Src/stm32f4xx_hal_gpio.c ****         temp = EXTI->RTSR;
 469              		.loc 1 286 0 discriminator 36
 470 0222 8368     		ldr	r3, [r0, #8]	@ temp, MEM[(struct EXTI_TypeDef *)1073822720B].RTSR
 471              	.LVL44:
 287:../STM32Cube_FW_F4_V1.4.0/Drivers/STM32F4xx_HAL_Driver/Src/stm32f4xx_hal_gpio.c ****         temp &= ~((uint32_t)iocurrent);
 288:../STM32Cube_FW_F4_V1.4.0/Drivers/STM32F4xx_HAL_Driver/Src/stm32f4xx_hal_gpio.c ****         if((GPIO_Init->Mode & RISING_EDGE) == RISING_EDGE)
 472              		.loc 1 288 0 discriminator 36
 473 0224 11F4801F 		tst	r1, #1048576	@ D.7724,
 289:../STM32Cube_FW_F4_V1.4.0/Drivers/STM32F4xx_HAL_Driver/Src/stm32f4xx_hal_gpio.c ****         {
 290:../STM32Cube_FW_F4_V1.4.0/Drivers/STM32F4xx_HAL_Driver/Src/stm32f4xx_hal_gpio.c ****           temp |= iocurrent;
 474              		.loc 1 290 0 discriminator 36
 475 0228 14BF     		ite	ne
 476 022a 3B43     		orrne	r3, r3, r7	@ temp, temp, iocurrent
 477              	.LVL45:
 287:../STM32Cube_FW_F4_V1.4.0/Drivers/STM32F4xx_HAL_Driver/Src/stm32f4xx_hal_gpio.c ****         temp &= ~((uint32_t)iocurrent);
 478              		.loc 1 287 0 discriminator 36
 479 022c 1340     		andeq	r3, r3, r2	@ temp, temp, D.7724
 480              	.LVL46:
 291:../STM32Cube_FW_F4_V1.4.0/Drivers/STM32F4xx_HAL_Driver/Src/stm32f4xx_hal_gpio.c ****         }
 292:../STM32Cube_FW_F4_V1.4.0/Drivers/STM32F4xx_HAL_Driver/Src/stm32f4xx_hal_gpio.c ****         EXTI->RTSR = temp;
 481              		.loc 1 292 0 discriminator 36
 482 022e 8360     		str	r3, [r0, #8]	@ temp, MEM[(struct EXTI_TypeDef *)1073822720B].RTSR
 293:../STM32Cube_FW_F4_V1.4.0/Drivers/STM32F4xx_HAL_Driver/Src/stm32f4xx_hal_gpio.c **** 
 294:../STM32Cube_FW_F4_V1.4.0/Drivers/STM32F4xx_HAL_Driver/Src/stm32f4xx_hal_gpio.c ****         temp = EXTI->FTSR;
 483              		.loc 1 294 0 discriminator 36
 484 0230 C368     		ldr	r3, [r0, #12]	@ temp, MEM[(struct EXTI_TypeDef *)1073822720B].FTSR
 485              	.LVL47:
 295:../STM32Cube_FW_F4_V1.4.0/Drivers/STM32F4xx_HAL_Driver/Src/stm32f4xx_hal_gpio.c ****         temp &= ~((uint32_t)iocurrent);
ARM GAS  C:\cygwin\tmp\ccblTS4I.s 			page 15


 296:../STM32Cube_FW_F4_V1.4.0/Drivers/STM32F4xx_HAL_Driver/Src/stm32f4xx_hal_gpio.c ****         if((GPIO_Init->Mode & FALLING_EDGE) == FALLING_EDGE)
 486              		.loc 1 296 0 discriminator 36
 487 0232 8902     		lsls	r1, r1, #10	@, D.7724,
 295:../STM32Cube_FW_F4_V1.4.0/Drivers/STM32F4xx_HAL_Driver/Src/stm32f4xx_hal_gpio.c ****         temp &= ~((uint32_t)iocurrent);
 488              		.loc 1 295 0 discriminator 36
 489 0234 54BF     		ite	pl
 490 0236 02EA0307 		andpl	r7, r2, r3	@ temp, D.7724, temp
 491              	.LVL48:
 297:../STM32Cube_FW_F4_V1.4.0/Drivers/STM32F4xx_HAL_Driver/Src/stm32f4xx_hal_gpio.c ****         {
 298:../STM32Cube_FW_F4_V1.4.0/Drivers/STM32F4xx_HAL_Driver/Src/stm32f4xx_hal_gpio.c ****           temp |= iocurrent;
 492              		.loc 1 298 0 discriminator 36
 493 023a 1F43     		orrmi	r7, r7, r3	@ temp, iocurrent, temp
 494              	.LVL49:
 299:../STM32Cube_FW_F4_V1.4.0/Drivers/STM32F4xx_HAL_Driver/Src/stm32f4xx_hal_gpio.c ****         }
 300:../STM32Cube_FW_F4_V1.4.0/Drivers/STM32F4xx_HAL_Driver/Src/stm32f4xx_hal_gpio.c ****         EXTI->FTSR = temp;
 495              		.loc 1 300 0 discriminator 36
 496 023c 084B     		ldr	r3, .L40+20	@ tmp282,
 497 023e DF60     		str	r7, [r3, #12]	@ temp, MEM[(struct EXTI_TypeDef *)1073822720B].FTSR
 498              	.LVL50:
 499              	.L7:
 203:../STM32Cube_FW_F4_V1.4.0/Drivers/STM32F4xx_HAL_Driver/Src/stm32f4xx_hal_gpio.c ****   {
 500              		.loc 1 203 0 discriminator 2
 501 0240 0136     		adds	r6, r6, #1	@ position, position,
 502              	.LVL51:
 503 0242 102E     		cmp	r6, #16	@ position,
 504 0244 7FF430AF 		bne	.L22	@,
 301:../STM32Cube_FW_F4_V1.4.0/Drivers/STM32F4xx_HAL_Driver/Src/stm32f4xx_hal_gpio.c ****       }
 302:../STM32Cube_FW_F4_V1.4.0/Drivers/STM32F4xx_HAL_Driver/Src/stm32f4xx_hal_gpio.c ****     }
 303:../STM32Cube_FW_F4_V1.4.0/Drivers/STM32F4xx_HAL_Driver/Src/stm32f4xx_hal_gpio.c ****   }
 304:../STM32Cube_FW_F4_V1.4.0/Drivers/STM32F4xx_HAL_Driver/Src/stm32f4xx_hal_gpio.c **** }
 505              		.loc 1 304 0
 506 0248 BDE8F883 		pop	{r3, r4, r5, r6, r7, r8, r9, pc}	@
 507              	.LVL52:
 508              	.L41:
 509              		.align	2
 510              	.L40:
 511 024c 00000240 		.word	1073872896
 512 0250 00000000 		.word	.LC0
 513 0254 00001110 		.word	269549568
 514 0258 00002210 		.word	270663680
 515 025c 00380240 		.word	1073887232
 516 0260 003C0140 		.word	1073822720
 517              		.cfi_endproc
 518              	.LFE123:
 519              		.size	HAL_GPIO_Init, .-HAL_GPIO_Init
 520              		.section	.text.HAL_GPIO_DeInit,"ax",%progbits
 521              		.align	1
 522              		.global	HAL_GPIO_DeInit
 523              		.thumb
 524              		.thumb_func
 525              		.type	HAL_GPIO_DeInit, %function
 526              	HAL_GPIO_DeInit:
 527              	.LFB124:
 305:../STM32Cube_FW_F4_V1.4.0/Drivers/STM32F4xx_HAL_Driver/Src/stm32f4xx_hal_gpio.c **** 
 306:../STM32Cube_FW_F4_V1.4.0/Drivers/STM32F4xx_HAL_Driver/Src/stm32f4xx_hal_gpio.c **** /**
 307:../STM32Cube_FW_F4_V1.4.0/Drivers/STM32F4xx_HAL_Driver/Src/stm32f4xx_hal_gpio.c ****   * @brief  De-initializes the GPIOx peripheral registers to their default reset values.
 308:../STM32Cube_FW_F4_V1.4.0/Drivers/STM32F4xx_HAL_Driver/Src/stm32f4xx_hal_gpio.c ****   * @param  GPIOx: where x can be (A..K) to select the GPIO peripheral for STM32F429X device or
ARM GAS  C:\cygwin\tmp\ccblTS4I.s 			page 16


 309:../STM32Cube_FW_F4_V1.4.0/Drivers/STM32F4xx_HAL_Driver/Src/stm32f4xx_hal_gpio.c ****   *                      x can be (A..I) to select the GPIO peripheral for STM32F40XX and STM32F427
 310:../STM32Cube_FW_F4_V1.4.0/Drivers/STM32F4xx_HAL_Driver/Src/stm32f4xx_hal_gpio.c ****   * @param  GPIO_Pin: specifies the port bit to be written.
 311:../STM32Cube_FW_F4_V1.4.0/Drivers/STM32F4xx_HAL_Driver/Src/stm32f4xx_hal_gpio.c ****   *          This parameter can be one of GPIO_PIN_x where x can be (0..15).
 312:../STM32Cube_FW_F4_V1.4.0/Drivers/STM32F4xx_HAL_Driver/Src/stm32f4xx_hal_gpio.c ****   * @retval None
 313:../STM32Cube_FW_F4_V1.4.0/Drivers/STM32F4xx_HAL_Driver/Src/stm32f4xx_hal_gpio.c ****   */
 314:../STM32Cube_FW_F4_V1.4.0/Drivers/STM32F4xx_HAL_Driver/Src/stm32f4xx_hal_gpio.c **** void HAL_GPIO_DeInit(GPIO_TypeDef  *GPIOx, uint32_t GPIO_Pin)
 315:../STM32Cube_FW_F4_V1.4.0/Drivers/STM32F4xx_HAL_Driver/Src/stm32f4xx_hal_gpio.c **** {
 528              		.loc 1 315 0
 529              		.cfi_startproc
 530              		@ args = 0, pretend = 0, frame = 0
 531              		@ frame_needed = 0, uses_anonymous_args = 0
 532              	.LVL53:
 533 0000 F8B5     		push	{r3, r4, r5, r6, r7, lr}	@
 534              		.cfi_def_cfa_offset 24
 535              		.cfi_offset 3, -24
 536              		.cfi_offset 4, -20
 537              		.cfi_offset 5, -16
 538              		.cfi_offset 6, -12
 539              		.cfi_offset 7, -8
 540              		.cfi_offset 14, -4
 316:../STM32Cube_FW_F4_V1.4.0/Drivers/STM32F4xx_HAL_Driver/Src/stm32f4xx_hal_gpio.c ****   uint32_t position;
 317:../STM32Cube_FW_F4_V1.4.0/Drivers/STM32F4xx_HAL_Driver/Src/stm32f4xx_hal_gpio.c ****   uint32_t ioposition = 0x00;
 318:../STM32Cube_FW_F4_V1.4.0/Drivers/STM32F4xx_HAL_Driver/Src/stm32f4xx_hal_gpio.c ****   uint32_t iocurrent = 0x00;
 319:../STM32Cube_FW_F4_V1.4.0/Drivers/STM32F4xx_HAL_Driver/Src/stm32f4xx_hal_gpio.c ****   uint32_t tmp = 0x00;
 320:../STM32Cube_FW_F4_V1.4.0/Drivers/STM32F4xx_HAL_Driver/Src/stm32f4xx_hal_gpio.c **** 
 321:../STM32Cube_FW_F4_V1.4.0/Drivers/STM32F4xx_HAL_Driver/Src/stm32f4xx_hal_gpio.c ****   /* Check the parameters */
 322:../STM32Cube_FW_F4_V1.4.0/Drivers/STM32F4xx_HAL_Driver/Src/stm32f4xx_hal_gpio.c ****   assert_param(IS_GPIO_ALL_INSTANCE(GPIOx));
 541              		.loc 1 322 0
 542 0002 374B     		ldr	r3, .L47	@ tmp157,
 543 0004 9842     		cmp	r0, r3	@ GPIOx, tmp157
 315:../STM32Cube_FW_F4_V1.4.0/Drivers/STM32F4xx_HAL_Driver/Src/stm32f4xx_hal_gpio.c ****   uint32_t position;
 544              		.loc 1 315 0
 545 0006 0446     		mov	r4, r0	@ GPIOx, GPIOx
 546 0008 0E46     		mov	r6, r1	@ GPIO_Pin, GPIO_Pin
 547              		.loc 1 322 0
 548 000a 24D0     		beq	.L43	@,
 549              		.loc 1 322 0 is_stmt 0 discriminator 1
 550 000c 03F58063 		add	r3, r3, #1024	@ tmp158, tmp158,
 551 0010 9842     		cmp	r0, r3	@ GPIOx, tmp158
 552 0012 20D0     		beq	.L43	@,
 553              		.loc 1 322 0 discriminator 2
 554 0014 03F58063 		add	r3, r3, #1024	@ tmp159, tmp159,
 555 0018 9842     		cmp	r0, r3	@ GPIOx, tmp159
 556 001a 1CD0     		beq	.L43	@,
 557              		.loc 1 322 0 discriminator 3
 558 001c 03F58063 		add	r3, r3, #1024	@ tmp160, tmp160,
 559 0020 9842     		cmp	r0, r3	@ GPIOx, tmp160
 560 0022 18D0     		beq	.L43	@,
 561              		.loc 1 322 0 discriminator 4
 562 0024 03F58063 		add	r3, r3, #1024	@ tmp161, tmp161,
 563 0028 9842     		cmp	r0, r3	@ GPIOx, tmp161
 564 002a 14D0     		beq	.L43	@,
 565              		.loc 1 322 0 discriminator 5
 566 002c 03F58063 		add	r3, r3, #1024	@ tmp162, tmp162,
 567 0030 9842     		cmp	r0, r3	@ GPIOx, tmp162
 568 0032 10D0     		beq	.L43	@,
 569              		.loc 1 322 0 discriminator 6
ARM GAS  C:\cygwin\tmp\ccblTS4I.s 			page 17


 570 0034 03F58063 		add	r3, r3, #1024	@ tmp163, tmp163,
 571 0038 9842     		cmp	r0, r3	@ GPIOx, tmp163
 572 003a 0CD0     		beq	.L43	@,
 573              		.loc 1 322 0 discriminator 7
 574 003c 03F58063 		add	r3, r3, #1024	@ tmp164, tmp164,
 575 0040 9842     		cmp	r0, r3	@ GPIOx, tmp164
 576 0042 08D0     		beq	.L43	@,
 577              		.loc 1 322 0 discriminator 8
 578 0044 03F58063 		add	r3, r3, #1024	@ tmp165, tmp165,
 579 0048 9842     		cmp	r0, r3	@ GPIOx, tmp165
 580 004a 04D0     		beq	.L43	@,
 581              		.loc 1 322 0 discriminator 9
 582 004c 2548     		ldr	r0, .L47+4	@,
 583              	.LVL54:
 584 004e 4FF4A171 		mov	r1, #322	@,
 585              	.LVL55:
 586 0052 FFF7FEFF 		bl	assert_failed	@
 587              	.LVL56:
 588              	.L43:
 315:../STM32Cube_FW_F4_V1.4.0/Drivers/STM32F4xx_HAL_Driver/Src/stm32f4xx_hal_gpio.c ****   uint32_t position;
 589              		.loc 1 315 0 is_stmt 1 discriminator 1
 590 0056 0023     		movs	r3, #0	@ position,
 591              	.LVL57:
 592              	.L45:
 323:../STM32Cube_FW_F4_V1.4.0/Drivers/STM32F4xx_HAL_Driver/Src/stm32f4xx_hal_gpio.c ****   
 324:../STM32Cube_FW_F4_V1.4.0/Drivers/STM32F4xx_HAL_Driver/Src/stm32f4xx_hal_gpio.c ****   /* Configure the port pins */
 325:../STM32Cube_FW_F4_V1.4.0/Drivers/STM32F4xx_HAL_Driver/Src/stm32f4xx_hal_gpio.c ****   for(position = 0; position < GPIO_NUMBER; position++)
 326:../STM32Cube_FW_F4_V1.4.0/Drivers/STM32F4xx_HAL_Driver/Src/stm32f4xx_hal_gpio.c ****   {
 327:../STM32Cube_FW_F4_V1.4.0/Drivers/STM32F4xx_HAL_Driver/Src/stm32f4xx_hal_gpio.c ****     /* Get the IO position */
 328:../STM32Cube_FW_F4_V1.4.0/Drivers/STM32F4xx_HAL_Driver/Src/stm32f4xx_hal_gpio.c ****     ioposition = ((uint32_t)0x01) << position;
 593              		.loc 1 328 0
 594 0058 0122     		movs	r2, #1	@ tmp167,
 595 005a 9A40     		lsls	r2, r2, r3	@ ioposition, tmp167, position
 596              	.LVL58:
 329:../STM32Cube_FW_F4_V1.4.0/Drivers/STM32F4xx_HAL_Driver/Src/stm32f4xx_hal_gpio.c ****     /* Get the current IO position */
 330:../STM32Cube_FW_F4_V1.4.0/Drivers/STM32F4xx_HAL_Driver/Src/stm32f4xx_hal_gpio.c ****     iocurrent = (GPIO_Pin) & ioposition;
 597              		.loc 1 330 0
 598 005c 02EA0601 		and	r1, r2, r6	@ iocurrent, ioposition, GPIO_Pin
 599              	.LVL59:
 331:../STM32Cube_FW_F4_V1.4.0/Drivers/STM32F4xx_HAL_Driver/Src/stm32f4xx_hal_gpio.c **** 
 332:../STM32Cube_FW_F4_V1.4.0/Drivers/STM32F4xx_HAL_Driver/Src/stm32f4xx_hal_gpio.c ****     if(iocurrent == ioposition)
 600              		.loc 1 332 0
 601 0060 9142     		cmp	r1, r2	@ iocurrent, ioposition
 602 0062 39D1     		bne	.L44	@,
 603 0064 5D00     		lsls	r5, r3, #1	@ D.7743, position,
 333:../STM32Cube_FW_F4_V1.4.0/Drivers/STM32F4xx_HAL_Driver/Src/stm32f4xx_hal_gpio.c ****     {
 334:../STM32Cube_FW_F4_V1.4.0/Drivers/STM32F4xx_HAL_Driver/Src/stm32f4xx_hal_gpio.c ****       /*------------------------- GPIO Mode Configuration --------------------*/
 335:../STM32Cube_FW_F4_V1.4.0/Drivers/STM32F4xx_HAL_Driver/Src/stm32f4xx_hal_gpio.c ****       /* Configure IO Direction in Input Floating Mode */
 336:../STM32Cube_FW_F4_V1.4.0/Drivers/STM32F4xx_HAL_Driver/Src/stm32f4xx_hal_gpio.c ****       GPIOx->MODER &= ~(GPIO_MODER_MODER0 << (position * 2));
 604              		.loc 1 336 0
 605 0066 0322     		movs	r2, #3	@ tmp170,
 606              	.LVL60:
 607 0068 2068     		ldr	r0, [r4]	@ D.7740, GPIOx_5(D)->MODER
 608 006a AA40     		lsls	r2, r2, r5	@ D.7740, tmp170, D.7743
 609 006c D243     		mvns	r2, r2	@ D.7740, D.7740
 337:../STM32Cube_FW_F4_V1.4.0/Drivers/STM32F4xx_HAL_Driver/Src/stm32f4xx_hal_gpio.c **** 
 338:../STM32Cube_FW_F4_V1.4.0/Drivers/STM32F4xx_HAL_Driver/Src/stm32f4xx_hal_gpio.c ****       /* Configure the default Alternate Function in current IO */
ARM GAS  C:\cygwin\tmp\ccblTS4I.s 			page 18


 339:../STM32Cube_FW_F4_V1.4.0/Drivers/STM32F4xx_HAL_Driver/Src/stm32f4xx_hal_gpio.c ****       GPIOx->AFR[position >> 3] &= ~((uint32_t)0xF << ((uint32_t)(position & (uint32_t)0x07) * 4)) 
 610              		.loc 1 339 0
 611 006e DD08     		lsrs	r5, r3, #3	@ D.7740, position,
 336:../STM32Cube_FW_F4_V1.4.0/Drivers/STM32F4xx_HAL_Driver/Src/stm32f4xx_hal_gpio.c **** 
 612              		.loc 1 336 0
 613 0070 1040     		ands	r0, r0, r2	@, D.7740, D.7740, D.7740
 614 0072 04EB8505 		add	r5, r4, r5, lsl #2	@, D.7741, GPIOx, D.7740,
 615 0076 2060     		str	r0, [r4]	@ D.7740, GPIOx_5(D)->MODER
 616              		.loc 1 339 0
 617 0078 03F0070E 		and	lr, r3, #7	@ D.7740, position,
 618 007c 2F6A     		ldr	r7, [r5, #32]	@ D.7740, MEM[(struct GPIO_TypeDef *)_13 + 32B]
 619 007e 0F20     		movs	r0, #15	@ tmp176,
 620 0080 4FEA8E0E 		lsl	lr, lr, #2	@ D.7740, D.7740,
 621 0084 00FA0EFE 		lsl	lr, r0, lr	@ D.7740, tmp176, D.7740
 622 0088 27EA0E07 		bic	r7, r7, lr	@ D.7740, D.7740, D.7740
 623 008c 2F62     		str	r7, [r5, #32]	@ D.7740, MEM[(struct GPIO_TypeDef *)_13 + 32B]
 340:../STM32Cube_FW_F4_V1.4.0/Drivers/STM32F4xx_HAL_Driver/Src/stm32f4xx_hal_gpio.c **** 
 341:../STM32Cube_FW_F4_V1.4.0/Drivers/STM32F4xx_HAL_Driver/Src/stm32f4xx_hal_gpio.c ****       /* Configure the default value for IO Speed */
 342:../STM32Cube_FW_F4_V1.4.0/Drivers/STM32F4xx_HAL_Driver/Src/stm32f4xx_hal_gpio.c ****       GPIOx->OSPEEDR &= ~(GPIO_OSPEEDER_OSPEEDR0 << (position * 2));
 624              		.loc 1 342 0
 625 008e A568     		ldr	r5, [r4, #8]	@ D.7740, GPIOx_5(D)->OSPEEDR
 626 0090 1540     		ands	r5, r5, r2	@, D.7740, D.7740, D.7740
 627 0092 A560     		str	r5, [r4, #8]	@ D.7740, GPIOx_5(D)->OSPEEDR
 343:../STM32Cube_FW_F4_V1.4.0/Drivers/STM32F4xx_HAL_Driver/Src/stm32f4xx_hal_gpio.c **** 
 344:../STM32Cube_FW_F4_V1.4.0/Drivers/STM32F4xx_HAL_Driver/Src/stm32f4xx_hal_gpio.c ****       /* Configure the default value IO Output Type */
 345:../STM32Cube_FW_F4_V1.4.0/Drivers/STM32F4xx_HAL_Driver/Src/stm32f4xx_hal_gpio.c ****       GPIOx->OTYPER  &= ~(GPIO_OTYPER_OT_0 << position) ;
 628              		.loc 1 345 0
 629 0094 6568     		ldr	r5, [r4, #4]	@ D.7740, GPIOx_5(D)->OTYPER
 630 0096 C943     		mvns	r1, r1	@ D.7740, iocurrent
 631              	.LVL61:
 632 0098 0D40     		ands	r5, r5, r1	@, D.7740, D.7740, D.7740
 633 009a 6560     		str	r5, [r4, #4]	@ D.7740, GPIOx_5(D)->OTYPER
 346:../STM32Cube_FW_F4_V1.4.0/Drivers/STM32F4xx_HAL_Driver/Src/stm32f4xx_hal_gpio.c **** 
 347:../STM32Cube_FW_F4_V1.4.0/Drivers/STM32F4xx_HAL_Driver/Src/stm32f4xx_hal_gpio.c ****       /* Deactivate the Pull-up and Pull-down resistor for the current IO */
 348:../STM32Cube_FW_F4_V1.4.0/Drivers/STM32F4xx_HAL_Driver/Src/stm32f4xx_hal_gpio.c ****       GPIOx->PUPDR &= ~(GPIO_PUPDR_PUPDR0 << (position * 2));
 634              		.loc 1 348 0
 635 009c E568     		ldr	r5, [r4, #12]	@ D.7740, GPIOx_5(D)->PUPDR
 636 009e 2A40     		ands	r2, r2, r5	@, D.7740, D.7740, D.7740
 637 00a0 E260     		str	r2, [r4, #12]	@ D.7740, GPIOx_5(D)->PUPDR
 638              	.LVL62:
 639 00a2 23F00302 		bic	r2, r3, #3	@ D.7742, position,
 640 00a6 02F18042 		add	r2, r2, #1073741824	@ D.7744, D.7742,
 641 00aa 02F59C32 		add	r2, r2, #79872	@ D.7744, D.7744,
 349:../STM32Cube_FW_F4_V1.4.0/Drivers/STM32F4xx_HAL_Driver/Src/stm32f4xx_hal_gpio.c **** 
 350:../STM32Cube_FW_F4_V1.4.0/Drivers/STM32F4xx_HAL_Driver/Src/stm32f4xx_hal_gpio.c ****       /*------------------------- EXTI Mode Configuration --------------------*/
 351:../STM32Cube_FW_F4_V1.4.0/Drivers/STM32F4xx_HAL_Driver/Src/stm32f4xx_hal_gpio.c ****       /* Configure the External Interrupt or event for the current IO */
 352:../STM32Cube_FW_F4_V1.4.0/Drivers/STM32F4xx_HAL_Driver/Src/stm32f4xx_hal_gpio.c ****       tmp = ((uint32_t)0x0F) << (4 * (position & 0x03));
 642              		.loc 1 352 0
 643 00ae 03F00307 		and	r7, r3, #3	@ D.7740, position,
 353:../STM32Cube_FW_F4_V1.4.0/Drivers/STM32F4xx_HAL_Driver/Src/stm32f4xx_hal_gpio.c ****       SYSCFG->EXTICR[position >> 2] &= ~tmp;
 644              		.loc 1 353 0
 645 00b2 9568     		ldr	r5, [r2, #8]	@ D.7740, MEM[(struct SYSCFG_TypeDef *)_64 + 8B]
 352:../STM32Cube_FW_F4_V1.4.0/Drivers/STM32F4xx_HAL_Driver/Src/stm32f4xx_hal_gpio.c ****       SYSCFG->EXTICR[position >> 2] &= ~tmp;
 646              		.loc 1 352 0
 647 00b4 BF00     		lsls	r7, r7, #2	@ D.7740, D.7740,
 648 00b6 B840     		lsls	r0, r0, r7	@ tmp, tmp176, D.7740
 649              	.LVL63:
ARM GAS  C:\cygwin\tmp\ccblTS4I.s 			page 19


 650              		.loc 1 353 0
 651 00b8 25EA0000 		bic	r0, r5, r0	@ D.7740, D.7740, tmp
 652              	.LVL64:
 653 00bc 9060     		str	r0, [r2, #8]	@ D.7740, MEM[(struct SYSCFG_TypeDef *)_64 + 8B]
 354:../STM32Cube_FW_F4_V1.4.0/Drivers/STM32F4xx_HAL_Driver/Src/stm32f4xx_hal_gpio.c **** 
 355:../STM32Cube_FW_F4_V1.4.0/Drivers/STM32F4xx_HAL_Driver/Src/stm32f4xx_hal_gpio.c ****       /* Clear EXTI line configuration */
 356:../STM32Cube_FW_F4_V1.4.0/Drivers/STM32F4xx_HAL_Driver/Src/stm32f4xx_hal_gpio.c ****       EXTI->IMR &= ~((uint32_t)iocurrent);
 654              		.loc 1 356 0
 655 00be 0A4A     		ldr	r2, .L47+8	@ tmp186,
 656 00c0 1068     		ldr	r0, [r2]	@ D.7740, MEM[(struct EXTI_TypeDef *)1073822720B].IMR
 657 00c2 0840     		ands	r0, r0, r1	@, D.7740, D.7740, D.7740
 658 00c4 1060     		str	r0, [r2]	@ D.7740, MEM[(struct EXTI_TypeDef *)1073822720B].IMR
 357:../STM32Cube_FW_F4_V1.4.0/Drivers/STM32F4xx_HAL_Driver/Src/stm32f4xx_hal_gpio.c ****       EXTI->EMR &= ~((uint32_t)iocurrent);
 659              		.loc 1 357 0
 660 00c6 5068     		ldr	r0, [r2, #4]	@ D.7740, MEM[(struct EXTI_TypeDef *)1073822720B].EMR
 661 00c8 0840     		ands	r0, r0, r1	@, D.7740, D.7740, D.7740
 662 00ca 5060     		str	r0, [r2, #4]	@ D.7740, MEM[(struct EXTI_TypeDef *)1073822720B].EMR
 358:../STM32Cube_FW_F4_V1.4.0/Drivers/STM32F4xx_HAL_Driver/Src/stm32f4xx_hal_gpio.c **** 
 359:../STM32Cube_FW_F4_V1.4.0/Drivers/STM32F4xx_HAL_Driver/Src/stm32f4xx_hal_gpio.c ****       /* Clear Rising Falling edge configuration */
 360:../STM32Cube_FW_F4_V1.4.0/Drivers/STM32F4xx_HAL_Driver/Src/stm32f4xx_hal_gpio.c ****       EXTI->RTSR &= ~((uint32_t)iocurrent);
 663              		.loc 1 360 0
 664 00cc 9068     		ldr	r0, [r2, #8]	@ D.7740, MEM[(struct EXTI_TypeDef *)1073822720B].RTSR
 665 00ce 0840     		ands	r0, r0, r1	@, D.7740, D.7740, D.7740
 666 00d0 9060     		str	r0, [r2, #8]	@ D.7740, MEM[(struct EXTI_TypeDef *)1073822720B].RTSR
 361:../STM32Cube_FW_F4_V1.4.0/Drivers/STM32F4xx_HAL_Driver/Src/stm32f4xx_hal_gpio.c ****       EXTI->FTSR &= ~((uint32_t)iocurrent);
 667              		.loc 1 361 0
 668 00d2 D068     		ldr	r0, [r2, #12]	@ D.7740, MEM[(struct EXTI_TypeDef *)1073822720B].FTSR
 669 00d4 0140     		ands	r1, r1, r0	@, D.7740, D.7740, D.7740
 670              	.LVL65:
 671 00d6 D160     		str	r1, [r2, #12]	@ D.7740, MEM[(struct EXTI_TypeDef *)1073822720B].FTSR
 672              	.LVL66:
 673              	.L44:
 325:../STM32Cube_FW_F4_V1.4.0/Drivers/STM32F4xx_HAL_Driver/Src/stm32f4xx_hal_gpio.c ****   {
 674              		.loc 1 325 0 discriminator 2
 675 00d8 0133     		adds	r3, r3, #1	@ position, position,
 676              	.LVL67:
 677 00da 102B     		cmp	r3, #16	@ position,
 678 00dc BCD1     		bne	.L45	@,
 362:../STM32Cube_FW_F4_V1.4.0/Drivers/STM32F4xx_HAL_Driver/Src/stm32f4xx_hal_gpio.c ****     }
 363:../STM32Cube_FW_F4_V1.4.0/Drivers/STM32F4xx_HAL_Driver/Src/stm32f4xx_hal_gpio.c ****   }
 364:../STM32Cube_FW_F4_V1.4.0/Drivers/STM32F4xx_HAL_Driver/Src/stm32f4xx_hal_gpio.c **** }
 679              		.loc 1 364 0
 680 00de F8BD     		pop	{r3, r4, r5, r6, r7, pc}	@
 681              	.LVL68:
 682              	.L48:
 683              		.align	2
 684              	.L47:
 685 00e0 00000240 		.word	1073872896
 686 00e4 00000000 		.word	.LC0
 687 00e8 003C0140 		.word	1073822720
 688              		.cfi_endproc
 689              	.LFE124:
 690              		.size	HAL_GPIO_DeInit, .-HAL_GPIO_DeInit
 691              		.section	.text.HAL_GPIO_ReadPin,"ax",%progbits
 692              		.align	1
 693              		.global	HAL_GPIO_ReadPin
 694              		.thumb
ARM GAS  C:\cygwin\tmp\ccblTS4I.s 			page 20


 695              		.thumb_func
 696              		.type	HAL_GPIO_ReadPin, %function
 697              	HAL_GPIO_ReadPin:
 698              	.LFB125:
 365:../STM32Cube_FW_F4_V1.4.0/Drivers/STM32F4xx_HAL_Driver/Src/stm32f4xx_hal_gpio.c **** 
 366:../STM32Cube_FW_F4_V1.4.0/Drivers/STM32F4xx_HAL_Driver/Src/stm32f4xx_hal_gpio.c **** /**
 367:../STM32Cube_FW_F4_V1.4.0/Drivers/STM32F4xx_HAL_Driver/Src/stm32f4xx_hal_gpio.c ****   * @}
 368:../STM32Cube_FW_F4_V1.4.0/Drivers/STM32F4xx_HAL_Driver/Src/stm32f4xx_hal_gpio.c ****   */
 369:../STM32Cube_FW_F4_V1.4.0/Drivers/STM32F4xx_HAL_Driver/Src/stm32f4xx_hal_gpio.c **** 
 370:../STM32Cube_FW_F4_V1.4.0/Drivers/STM32F4xx_HAL_Driver/Src/stm32f4xx_hal_gpio.c **** /** @defgroup GPIO_Exported_Functions_Group2 IO operation functions 
 371:../STM32Cube_FW_F4_V1.4.0/Drivers/STM32F4xx_HAL_Driver/Src/stm32f4xx_hal_gpio.c ****  *  @brief   GPIO Read and Write
 372:../STM32Cube_FW_F4_V1.4.0/Drivers/STM32F4xx_HAL_Driver/Src/stm32f4xx_hal_gpio.c ****  *
 373:../STM32Cube_FW_F4_V1.4.0/Drivers/STM32F4xx_HAL_Driver/Src/stm32f4xx_hal_gpio.c **** @verbatim
 374:../STM32Cube_FW_F4_V1.4.0/Drivers/STM32F4xx_HAL_Driver/Src/stm32f4xx_hal_gpio.c ****  ===============================================================================
 375:../STM32Cube_FW_F4_V1.4.0/Drivers/STM32F4xx_HAL_Driver/Src/stm32f4xx_hal_gpio.c ****                        ##### IO operation functions #####
 376:../STM32Cube_FW_F4_V1.4.0/Drivers/STM32F4xx_HAL_Driver/Src/stm32f4xx_hal_gpio.c ****  ===============================================================================
 377:../STM32Cube_FW_F4_V1.4.0/Drivers/STM32F4xx_HAL_Driver/Src/stm32f4xx_hal_gpio.c **** 
 378:../STM32Cube_FW_F4_V1.4.0/Drivers/STM32F4xx_HAL_Driver/Src/stm32f4xx_hal_gpio.c **** @endverbatim
 379:../STM32Cube_FW_F4_V1.4.0/Drivers/STM32F4xx_HAL_Driver/Src/stm32f4xx_hal_gpio.c ****   * @{
 380:../STM32Cube_FW_F4_V1.4.0/Drivers/STM32F4xx_HAL_Driver/Src/stm32f4xx_hal_gpio.c ****   */
 381:../STM32Cube_FW_F4_V1.4.0/Drivers/STM32F4xx_HAL_Driver/Src/stm32f4xx_hal_gpio.c **** 
 382:../STM32Cube_FW_F4_V1.4.0/Drivers/STM32F4xx_HAL_Driver/Src/stm32f4xx_hal_gpio.c **** /**
 383:../STM32Cube_FW_F4_V1.4.0/Drivers/STM32F4xx_HAL_Driver/Src/stm32f4xx_hal_gpio.c ****   * @brief  Reads the specified input port pin.
 384:../STM32Cube_FW_F4_V1.4.0/Drivers/STM32F4xx_HAL_Driver/Src/stm32f4xx_hal_gpio.c ****   * @param  GPIOx: where x can be (A..K) to select the GPIO peripheral for STM32F429X device or
 385:../STM32Cube_FW_F4_V1.4.0/Drivers/STM32F4xx_HAL_Driver/Src/stm32f4xx_hal_gpio.c ****   *                      x can be (A..I) to select the GPIO peripheral for STM32F40XX and STM32F427
 386:../STM32Cube_FW_F4_V1.4.0/Drivers/STM32F4xx_HAL_Driver/Src/stm32f4xx_hal_gpio.c ****   * @param  GPIO_Pin: specifies the port bit to read.
 387:../STM32Cube_FW_F4_V1.4.0/Drivers/STM32F4xx_HAL_Driver/Src/stm32f4xx_hal_gpio.c ****   *         This parameter can be GPIO_PIN_x where x can be (0..15).
 388:../STM32Cube_FW_F4_V1.4.0/Drivers/STM32F4xx_HAL_Driver/Src/stm32f4xx_hal_gpio.c ****   * @retval The input port pin value.
 389:../STM32Cube_FW_F4_V1.4.0/Drivers/STM32F4xx_HAL_Driver/Src/stm32f4xx_hal_gpio.c ****   */
 390:../STM32Cube_FW_F4_V1.4.0/Drivers/STM32F4xx_HAL_Driver/Src/stm32f4xx_hal_gpio.c **** GPIO_PinState HAL_GPIO_ReadPin(GPIO_TypeDef* GPIOx, uint16_t GPIO_Pin)
 391:../STM32Cube_FW_F4_V1.4.0/Drivers/STM32F4xx_HAL_Driver/Src/stm32f4xx_hal_gpio.c **** {
 699              		.loc 1 391 0
 700              		.cfi_startproc
 701              		@ args = 0, pretend = 0, frame = 0
 702              		@ frame_needed = 0, uses_anonymous_args = 0
 703              	.LVL69:
 704 0000 38B5     		push	{r3, r4, r5, lr}	@
 705              		.cfi_def_cfa_offset 16
 706              		.cfi_offset 3, -16
 707              		.cfi_offset 4, -12
 708              		.cfi_offset 5, -8
 709              		.cfi_offset 14, -4
 710              		.loc 1 391 0
 711 0002 0546     		mov	r5, r0	@ GPIOx, GPIOx
 392:../STM32Cube_FW_F4_V1.4.0/Drivers/STM32F4xx_HAL_Driver/Src/stm32f4xx_hal_gpio.c ****   GPIO_PinState bitstatus;
 393:../STM32Cube_FW_F4_V1.4.0/Drivers/STM32F4xx_HAL_Driver/Src/stm32f4xx_hal_gpio.c **** 
 394:../STM32Cube_FW_F4_V1.4.0/Drivers/STM32F4xx_HAL_Driver/Src/stm32f4xx_hal_gpio.c ****   /* Check the parameters */
 395:../STM32Cube_FW_F4_V1.4.0/Drivers/STM32F4xx_HAL_Driver/Src/stm32f4xx_hal_gpio.c ****   assert_param(IS_GPIO_PIN(GPIO_Pin));
 712              		.loc 1 395 0
 713 0004 0C46     		mov	r4, r1	@ GPIO_Pin, GPIO_Pin
 714 0006 21B9     		cbnz	r1, .L50	@ GPIO_Pin,
 715              		.loc 1 395 0 is_stmt 0 discriminator 1
 716 0008 0548     		ldr	r0, .L51	@,
 717              	.LVL70:
 718 000a 40F28B11 		movw	r1, #395	@,
 719              	.LVL71:
 720 000e FFF7FEFF 		bl	assert_failed	@
ARM GAS  C:\cygwin\tmp\ccblTS4I.s 			page 21


 721              	.LVL72:
 722              	.L50:
 396:../STM32Cube_FW_F4_V1.4.0/Drivers/STM32F4xx_HAL_Driver/Src/stm32f4xx_hal_gpio.c **** 
 397:../STM32Cube_FW_F4_V1.4.0/Drivers/STM32F4xx_HAL_Driver/Src/stm32f4xx_hal_gpio.c ****   if((GPIOx->IDR & GPIO_Pin) != (uint32_t)GPIO_PIN_RESET)
 723              		.loc 1 397 0 is_stmt 1
 724 0012 2B69     		ldr	r3, [r5, #16]	@ D.7747, GPIOx_6(D)->IDR
 725              	.LVL73:
 726 0014 1C42     		tst	r4, r3	@ GPIO_Pin, D.7747
 398:../STM32Cube_FW_F4_V1.4.0/Drivers/STM32F4xx_HAL_Driver/Src/stm32f4xx_hal_gpio.c ****   {
 399:../STM32Cube_FW_F4_V1.4.0/Drivers/STM32F4xx_HAL_Driver/Src/stm32f4xx_hal_gpio.c ****     bitstatus = GPIO_PIN_SET;
 400:../STM32Cube_FW_F4_V1.4.0/Drivers/STM32F4xx_HAL_Driver/Src/stm32f4xx_hal_gpio.c ****   }
 401:../STM32Cube_FW_F4_V1.4.0/Drivers/STM32F4xx_HAL_Driver/Src/stm32f4xx_hal_gpio.c ****   else
 402:../STM32Cube_FW_F4_V1.4.0/Drivers/STM32F4xx_HAL_Driver/Src/stm32f4xx_hal_gpio.c ****   {
 403:../STM32Cube_FW_F4_V1.4.0/Drivers/STM32F4xx_HAL_Driver/Src/stm32f4xx_hal_gpio.c ****     bitstatus = GPIO_PIN_RESET;
 404:../STM32Cube_FW_F4_V1.4.0/Drivers/STM32F4xx_HAL_Driver/Src/stm32f4xx_hal_gpio.c ****   }
 405:../STM32Cube_FW_F4_V1.4.0/Drivers/STM32F4xx_HAL_Driver/Src/stm32f4xx_hal_gpio.c ****   return bitstatus;
 406:../STM32Cube_FW_F4_V1.4.0/Drivers/STM32F4xx_HAL_Driver/Src/stm32f4xx_hal_gpio.c **** }
 727              		.loc 1 406 0
 728 0016 14BF     		ite	ne
 729 0018 0120     		movne	r0, #1	@,
 730 001a 0020     		moveq	r0, #0	@,
 731 001c 38BD     		pop	{r3, r4, r5, pc}	@
 732              	.LVL74:
 733              	.L52:
 734 001e 00BF     		.align	2
 735              	.L51:
 736 0020 00000000 		.word	.LC0
 737              		.cfi_endproc
 738              	.LFE125:
 739              		.size	HAL_GPIO_ReadPin, .-HAL_GPIO_ReadPin
 740              		.section	.text.HAL_GPIO_WritePin,"ax",%progbits
 741              		.align	1
 742              		.global	HAL_GPIO_WritePin
 743              		.thumb
 744              		.thumb_func
 745              		.type	HAL_GPIO_WritePin, %function
 746              	HAL_GPIO_WritePin:
 747              	.LFB126:
 407:../STM32Cube_FW_F4_V1.4.0/Drivers/STM32F4xx_HAL_Driver/Src/stm32f4xx_hal_gpio.c **** 
 408:../STM32Cube_FW_F4_V1.4.0/Drivers/STM32F4xx_HAL_Driver/Src/stm32f4xx_hal_gpio.c **** /**
 409:../STM32Cube_FW_F4_V1.4.0/Drivers/STM32F4xx_HAL_Driver/Src/stm32f4xx_hal_gpio.c ****   * @brief  Sets or clears the selected data port bit.
 410:../STM32Cube_FW_F4_V1.4.0/Drivers/STM32F4xx_HAL_Driver/Src/stm32f4xx_hal_gpio.c ****   *
 411:../STM32Cube_FW_F4_V1.4.0/Drivers/STM32F4xx_HAL_Driver/Src/stm32f4xx_hal_gpio.c ****   * @note   This function uses GPIOx_BSRR register to allow atomic read/modify
 412:../STM32Cube_FW_F4_V1.4.0/Drivers/STM32F4xx_HAL_Driver/Src/stm32f4xx_hal_gpio.c ****   *         accesses. In this way, there is no risk of an IRQ occurring between
 413:../STM32Cube_FW_F4_V1.4.0/Drivers/STM32F4xx_HAL_Driver/Src/stm32f4xx_hal_gpio.c ****   *         the read and the modify access.
 414:../STM32Cube_FW_F4_V1.4.0/Drivers/STM32F4xx_HAL_Driver/Src/stm32f4xx_hal_gpio.c ****   *
 415:../STM32Cube_FW_F4_V1.4.0/Drivers/STM32F4xx_HAL_Driver/Src/stm32f4xx_hal_gpio.c ****   * @param  GPIOx: where x can be (A..K) to select the GPIO peripheral for STM32F429X device or
 416:../STM32Cube_FW_F4_V1.4.0/Drivers/STM32F4xx_HAL_Driver/Src/stm32f4xx_hal_gpio.c ****   *                      x can be (A..I) to select the GPIO peripheral for STM32F40XX and STM32F427
 417:../STM32Cube_FW_F4_V1.4.0/Drivers/STM32F4xx_HAL_Driver/Src/stm32f4xx_hal_gpio.c ****   * @param  GPIO_Pin: specifies the port bit to be written.
 418:../STM32Cube_FW_F4_V1.4.0/Drivers/STM32F4xx_HAL_Driver/Src/stm32f4xx_hal_gpio.c ****   *          This parameter can be one of GPIO_PIN_x where x can be (0..15).
 419:../STM32Cube_FW_F4_V1.4.0/Drivers/STM32F4xx_HAL_Driver/Src/stm32f4xx_hal_gpio.c ****   * @param  PinState: specifies the value to be written to the selected bit.
 420:../STM32Cube_FW_F4_V1.4.0/Drivers/STM32F4xx_HAL_Driver/Src/stm32f4xx_hal_gpio.c ****   *          This parameter can be one of the GPIO_PinState enum values:
 421:../STM32Cube_FW_F4_V1.4.0/Drivers/STM32F4xx_HAL_Driver/Src/stm32f4xx_hal_gpio.c ****   *            @arg GPIO_PIN_RESET: to clear the port pin
 422:../STM32Cube_FW_F4_V1.4.0/Drivers/STM32F4xx_HAL_Driver/Src/stm32f4xx_hal_gpio.c ****   *            @arg GPIO_PIN_SET: to set the port pin
 423:../STM32Cube_FW_F4_V1.4.0/Drivers/STM32F4xx_HAL_Driver/Src/stm32f4xx_hal_gpio.c ****   * @retval None
 424:../STM32Cube_FW_F4_V1.4.0/Drivers/STM32F4xx_HAL_Driver/Src/stm32f4xx_hal_gpio.c ****   */
 425:../STM32Cube_FW_F4_V1.4.0/Drivers/STM32F4xx_HAL_Driver/Src/stm32f4xx_hal_gpio.c **** void HAL_GPIO_WritePin(GPIO_TypeDef* GPIOx, uint16_t GPIO_Pin, GPIO_PinState PinState)
ARM GAS  C:\cygwin\tmp\ccblTS4I.s 			page 22


 426:../STM32Cube_FW_F4_V1.4.0/Drivers/STM32F4xx_HAL_Driver/Src/stm32f4xx_hal_gpio.c **** {
 748              		.loc 1 426 0
 749              		.cfi_startproc
 750              		@ args = 0, pretend = 0, frame = 0
 751              		@ frame_needed = 0, uses_anonymous_args = 0
 752              	.LVL75:
 753 0000 70B5     		push	{r4, r5, r6, lr}	@
 754              		.cfi_def_cfa_offset 16
 755              		.cfi_offset 4, -16
 756              		.cfi_offset 5, -12
 757              		.cfi_offset 6, -8
 758              		.cfi_offset 14, -4
 759              		.loc 1 426 0
 760 0002 0546     		mov	r5, r0	@ GPIOx, GPIOx
 761 0004 1646     		mov	r6, r2	@ PinState, PinState
 427:../STM32Cube_FW_F4_V1.4.0/Drivers/STM32F4xx_HAL_Driver/Src/stm32f4xx_hal_gpio.c ****   /* Check the parameters */
 428:../STM32Cube_FW_F4_V1.4.0/Drivers/STM32F4xx_HAL_Driver/Src/stm32f4xx_hal_gpio.c ****   assert_param(IS_GPIO_PIN(GPIO_Pin));
 762              		.loc 1 428 0
 763 0006 0C46     		mov	r4, r1	@ GPIO_Pin, GPIO_Pin
 764 0008 21B9     		cbnz	r1, .L54	@ GPIO_Pin,
 765              		.loc 1 428 0 is_stmt 0 discriminator 1
 766 000a 0848     		ldr	r0, .L60	@,
 767              	.LVL76:
 768 000c 4FF4D671 		mov	r1, #428	@,
 769              	.LVL77:
 770 0010 FFF7FEFF 		bl	assert_failed	@
 771              	.LVL78:
 772              	.L54:
 429:../STM32Cube_FW_F4_V1.4.0/Drivers/STM32F4xx_HAL_Driver/Src/stm32f4xx_hal_gpio.c ****   assert_param(IS_GPIO_PIN_ACTION(PinState));
 773              		.loc 1 429 0 is_stmt 1
 774 0014 012E     		cmp	r6, #1	@ PinState,
 775 0016 05D9     		bls	.L55	@,
 776              		.loc 1 429 0 is_stmt 0 discriminator 1
 777 0018 0448     		ldr	r0, .L60	@,
 778 001a 40F2AD11 		movw	r1, #429	@,
 779 001e FFF7FEFF 		bl	assert_failed	@
 780              	.LVL79:
 781 0022 01E0     		b	.L59	@
 782              	.L55:
 430:../STM32Cube_FW_F4_V1.4.0/Drivers/STM32F4xx_HAL_Driver/Src/stm32f4xx_hal_gpio.c **** 
 431:../STM32Cube_FW_F4_V1.4.0/Drivers/STM32F4xx_HAL_Driver/Src/stm32f4xx_hal_gpio.c ****   if(PinState != GPIO_PIN_RESET)
 783              		.loc 1 431 0 is_stmt 1
 784 0024 06B9     		cbnz	r6, .L59	@ PinState,
 432:../STM32Cube_FW_F4_V1.4.0/Drivers/STM32F4xx_HAL_Driver/Src/stm32f4xx_hal_gpio.c ****   {
 433:../STM32Cube_FW_F4_V1.4.0/Drivers/STM32F4xx_HAL_Driver/Src/stm32f4xx_hal_gpio.c ****     GPIOx->BSRR = GPIO_Pin;
 434:../STM32Cube_FW_F4_V1.4.0/Drivers/STM32F4xx_HAL_Driver/Src/stm32f4xx_hal_gpio.c ****   }
 435:../STM32Cube_FW_F4_V1.4.0/Drivers/STM32F4xx_HAL_Driver/Src/stm32f4xx_hal_gpio.c ****   else
 436:../STM32Cube_FW_F4_V1.4.0/Drivers/STM32F4xx_HAL_Driver/Src/stm32f4xx_hal_gpio.c ****   {
 437:../STM32Cube_FW_F4_V1.4.0/Drivers/STM32F4xx_HAL_Driver/Src/stm32f4xx_hal_gpio.c ****     GPIOx->BSRR = (uint32_t)GPIO_Pin << 16;
 785              		.loc 1 437 0
 786 0026 2404     		lsls	r4, r4, #16	@ D.7752, GPIO_Pin,
 787              	.L59:
 788 0028 AC61     		str	r4, [r5, #24]	@ D.7752,
 789 002a 70BD     		pop	{r4, r5, r6, pc}	@
 790              	.LVL80:
 791              	.L61:
 792              		.align	2
ARM GAS  C:\cygwin\tmp\ccblTS4I.s 			page 23


 793              	.L60:
 794 002c 00000000 		.word	.LC0
 795              		.cfi_endproc
 796              	.LFE126:
 797              		.size	HAL_GPIO_WritePin, .-HAL_GPIO_WritePin
 798              		.section	.text.HAL_GPIO_TogglePin,"ax",%progbits
 799              		.align	1
 800              		.global	HAL_GPIO_TogglePin
 801              		.thumb
 802              		.thumb_func
 803              		.type	HAL_GPIO_TogglePin, %function
 804              	HAL_GPIO_TogglePin:
 805              	.LFB127:
 438:../STM32Cube_FW_F4_V1.4.0/Drivers/STM32F4xx_HAL_Driver/Src/stm32f4xx_hal_gpio.c ****   }
 439:../STM32Cube_FW_F4_V1.4.0/Drivers/STM32F4xx_HAL_Driver/Src/stm32f4xx_hal_gpio.c **** }
 440:../STM32Cube_FW_F4_V1.4.0/Drivers/STM32F4xx_HAL_Driver/Src/stm32f4xx_hal_gpio.c **** 
 441:../STM32Cube_FW_F4_V1.4.0/Drivers/STM32F4xx_HAL_Driver/Src/stm32f4xx_hal_gpio.c **** /**
 442:../STM32Cube_FW_F4_V1.4.0/Drivers/STM32F4xx_HAL_Driver/Src/stm32f4xx_hal_gpio.c ****   * @brief  Toggles the specified GPIO pins.
 443:../STM32Cube_FW_F4_V1.4.0/Drivers/STM32F4xx_HAL_Driver/Src/stm32f4xx_hal_gpio.c ****   * @param  GPIOx: Where x can be (A..K) to select the GPIO peripheral for STM32F429X device or
 444:../STM32Cube_FW_F4_V1.4.0/Drivers/STM32F4xx_HAL_Driver/Src/stm32f4xx_hal_gpio.c ****   *                      x can be (A..I) to select the GPIO peripheral for STM32F40XX and STM32F427
 445:../STM32Cube_FW_F4_V1.4.0/Drivers/STM32F4xx_HAL_Driver/Src/stm32f4xx_hal_gpio.c ****   * @param  GPIO_Pin: Specifies the pins to be toggled.
 446:../STM32Cube_FW_F4_V1.4.0/Drivers/STM32F4xx_HAL_Driver/Src/stm32f4xx_hal_gpio.c ****   * @retval None
 447:../STM32Cube_FW_F4_V1.4.0/Drivers/STM32F4xx_HAL_Driver/Src/stm32f4xx_hal_gpio.c ****   */
 448:../STM32Cube_FW_F4_V1.4.0/Drivers/STM32F4xx_HAL_Driver/Src/stm32f4xx_hal_gpio.c **** void HAL_GPIO_TogglePin(GPIO_TypeDef* GPIOx, uint16_t GPIO_Pin)
 449:../STM32Cube_FW_F4_V1.4.0/Drivers/STM32F4xx_HAL_Driver/Src/stm32f4xx_hal_gpio.c **** {
 806              		.loc 1 449 0
 807              		.cfi_startproc
 808              		@ args = 0, pretend = 0, frame = 0
 809              		@ frame_needed = 0, uses_anonymous_args = 0
 810              	.LVL81:
 811 0000 38B5     		push	{r3, r4, r5, lr}	@
 812              		.cfi_def_cfa_offset 16
 813              		.cfi_offset 3, -16
 814              		.cfi_offset 4, -12
 815              		.cfi_offset 5, -8
 816              		.cfi_offset 14, -4
 817              		.loc 1 449 0
 818 0002 0446     		mov	r4, r0	@ GPIOx, GPIOx
 450:../STM32Cube_FW_F4_V1.4.0/Drivers/STM32F4xx_HAL_Driver/Src/stm32f4xx_hal_gpio.c ****   /* Check the parameters */
 451:../STM32Cube_FW_F4_V1.4.0/Drivers/STM32F4xx_HAL_Driver/Src/stm32f4xx_hal_gpio.c ****   assert_param(IS_GPIO_PIN(GPIO_Pin));
 819              		.loc 1 451 0
 820 0004 0D46     		mov	r5, r1	@ GPIO_Pin, GPIO_Pin
 821 0006 21B9     		cbnz	r1, .L63	@ GPIO_Pin,
 822              		.loc 1 451 0 is_stmt 0 discriminator 1
 823 0008 0448     		ldr	r0, .L64	@,
 824              	.LVL82:
 825 000a 40F2C311 		movw	r1, #451	@,
 826              	.LVL83:
 827 000e FFF7FEFF 		bl	assert_failed	@
 828              	.LVL84:
 829              	.L63:
 452:../STM32Cube_FW_F4_V1.4.0/Drivers/STM32F4xx_HAL_Driver/Src/stm32f4xx_hal_gpio.c **** 
 453:../STM32Cube_FW_F4_V1.4.0/Drivers/STM32F4xx_HAL_Driver/Src/stm32f4xx_hal_gpio.c ****   GPIOx->ODR ^= GPIO_Pin;
 830              		.loc 1 453 0 is_stmt 1
 831 0012 6169     		ldr	r1, [r4, #20]	@ D.7755, GPIOx_5(D)->ODR
 832 0014 6940     		eors	r1, r1, r5	@, D.7755, D.7755, GPIO_Pin
 833 0016 6161     		str	r1, [r4, #20]	@ D.7755, GPIOx_5(D)->ODR
ARM GAS  C:\cygwin\tmp\ccblTS4I.s 			page 24


 834 0018 38BD     		pop	{r3, r4, r5, pc}	@
 835              	.LVL85:
 836              	.L65:
 837 001a 00BF     		.align	2
 838              	.L64:
 839 001c 00000000 		.word	.LC0
 840              		.cfi_endproc
 841              	.LFE127:
 842              		.size	HAL_GPIO_TogglePin, .-HAL_GPIO_TogglePin
 843              		.section	.text.HAL_GPIO_LockPin,"ax",%progbits
 844              		.align	1
 845              		.global	HAL_GPIO_LockPin
 846              		.thumb
 847              		.thumb_func
 848              		.type	HAL_GPIO_LockPin, %function
 849              	HAL_GPIO_LockPin:
 850              	.LFB128:
 454:../STM32Cube_FW_F4_V1.4.0/Drivers/STM32F4xx_HAL_Driver/Src/stm32f4xx_hal_gpio.c **** }
 455:../STM32Cube_FW_F4_V1.4.0/Drivers/STM32F4xx_HAL_Driver/Src/stm32f4xx_hal_gpio.c **** 
 456:../STM32Cube_FW_F4_V1.4.0/Drivers/STM32F4xx_HAL_Driver/Src/stm32f4xx_hal_gpio.c **** /**
 457:../STM32Cube_FW_F4_V1.4.0/Drivers/STM32F4xx_HAL_Driver/Src/stm32f4xx_hal_gpio.c ****   * @brief  Locks GPIO Pins configuration registers.
 458:../STM32Cube_FW_F4_V1.4.0/Drivers/STM32F4xx_HAL_Driver/Src/stm32f4xx_hal_gpio.c ****   * @note   The locked registers are GPIOx_MODER, GPIOx_OTYPER, GPIOx_OSPEEDR,
 459:../STM32Cube_FW_F4_V1.4.0/Drivers/STM32F4xx_HAL_Driver/Src/stm32f4xx_hal_gpio.c ****   *         GPIOx_PUPDR, GPIOx_AFRL and GPIOx_AFRH.
 460:../STM32Cube_FW_F4_V1.4.0/Drivers/STM32F4xx_HAL_Driver/Src/stm32f4xx_hal_gpio.c ****   * @note   The configuration of the locked GPIO pins can no longer be modified
 461:../STM32Cube_FW_F4_V1.4.0/Drivers/STM32F4xx_HAL_Driver/Src/stm32f4xx_hal_gpio.c ****   *         until the next reset.
 462:../STM32Cube_FW_F4_V1.4.0/Drivers/STM32F4xx_HAL_Driver/Src/stm32f4xx_hal_gpio.c ****   * @param  GPIOx: where x can be (A..F) to select the GPIO peripheral for STM32F4 family
 463:../STM32Cube_FW_F4_V1.4.0/Drivers/STM32F4xx_HAL_Driver/Src/stm32f4xx_hal_gpio.c ****   * @param  GPIO_Pin: specifies the port bit to be locked.
 464:../STM32Cube_FW_F4_V1.4.0/Drivers/STM32F4xx_HAL_Driver/Src/stm32f4xx_hal_gpio.c ****   *         This parameter can be any combination of GPIO_PIN_x where x can be (0..15).
 465:../STM32Cube_FW_F4_V1.4.0/Drivers/STM32F4xx_HAL_Driver/Src/stm32f4xx_hal_gpio.c ****   * @retval None
 466:../STM32Cube_FW_F4_V1.4.0/Drivers/STM32F4xx_HAL_Driver/Src/stm32f4xx_hal_gpio.c ****   */
 467:../STM32Cube_FW_F4_V1.4.0/Drivers/STM32F4xx_HAL_Driver/Src/stm32f4xx_hal_gpio.c **** HAL_StatusTypeDef HAL_GPIO_LockPin(GPIO_TypeDef* GPIOx, uint16_t GPIO_Pin)
 468:../STM32Cube_FW_F4_V1.4.0/Drivers/STM32F4xx_HAL_Driver/Src/stm32f4xx_hal_gpio.c **** {
 851              		.loc 1 468 0
 852              		.cfi_startproc
 853              		@ args = 0, pretend = 0, frame = 8
 854              		@ frame_needed = 0, uses_anonymous_args = 0
 855              	.LVL86:
 856 0000 37B5     		push	{r0, r1, r2, r4, r5, lr}	@
 857              		.cfi_def_cfa_offset 24
 858              		.cfi_offset 4, -12
 859              		.cfi_offset 5, -8
 860              		.cfi_offset 14, -4
 469:../STM32Cube_FW_F4_V1.4.0/Drivers/STM32F4xx_HAL_Driver/Src/stm32f4xx_hal_gpio.c ****   __IO uint32_t tmp = GPIO_LCKR_LCKK;
 861              		.loc 1 469 0
 862 0002 4FF48033 		mov	r3, #65536	@ tmp123,
 468:../STM32Cube_FW_F4_V1.4.0/Drivers/STM32F4xx_HAL_Driver/Src/stm32f4xx_hal_gpio.c ****   __IO uint32_t tmp = GPIO_LCKR_LCKK;
 863              		.loc 1 468 0
 864 0006 0446     		mov	r4, r0	@ GPIOx, GPIOx
 865              		.loc 1 469 0
 866 0008 0193     		str	r3, [sp, #4]	@ tmp123, tmp
 470:../STM32Cube_FW_F4_V1.4.0/Drivers/STM32F4xx_HAL_Driver/Src/stm32f4xx_hal_gpio.c **** 
 471:../STM32Cube_FW_F4_V1.4.0/Drivers/STM32F4xx_HAL_Driver/Src/stm32f4xx_hal_gpio.c ****   /* Check the parameters */
 472:../STM32Cube_FW_F4_V1.4.0/Drivers/STM32F4xx_HAL_Driver/Src/stm32f4xx_hal_gpio.c ****   assert_param(IS_GPIO_PIN(GPIO_Pin));
 867              		.loc 1 472 0
 868 000a 0D46     		mov	r5, r1	@ GPIO_Pin, GPIO_Pin
 869 000c 21B9     		cbnz	r1, .L67	@ GPIO_Pin,
 870              		.loc 1 472 0 is_stmt 0 discriminator 1
ARM GAS  C:\cygwin\tmp\ccblTS4I.s 			page 25


 871 000e 0B48     		ldr	r0, .L68	@,
 872              	.LVL87:
 873 0010 4FF4EC71 		mov	r1, #472	@,
 874              	.LVL88:
 875 0014 FFF7FEFF 		bl	assert_failed	@
 876              	.LVL89:
 877              	.L67:
 473:../STM32Cube_FW_F4_V1.4.0/Drivers/STM32F4xx_HAL_Driver/Src/stm32f4xx_hal_gpio.c **** 
 474:../STM32Cube_FW_F4_V1.4.0/Drivers/STM32F4xx_HAL_Driver/Src/stm32f4xx_hal_gpio.c ****   /* Apply lock key write sequence */
 475:../STM32Cube_FW_F4_V1.4.0/Drivers/STM32F4xx_HAL_Driver/Src/stm32f4xx_hal_gpio.c ****   tmp |= GPIO_Pin;
 878              		.loc 1 475 0 is_stmt 1
 879 0018 019B     		ldr	r3, [sp, #4]	@ D.7758, tmp
 880 001a 2B43     		orrs	r3, r3, r5	@, D.7758, D.7758, GPIO_Pin
 881 001c 0193     		str	r3, [sp, #4]	@ D.7758, tmp
 476:../STM32Cube_FW_F4_V1.4.0/Drivers/STM32F4xx_HAL_Driver/Src/stm32f4xx_hal_gpio.c ****   /* Set LCKx bit(s): LCKK='1' + LCK[15-0] */
 477:../STM32Cube_FW_F4_V1.4.0/Drivers/STM32F4xx_HAL_Driver/Src/stm32f4xx_hal_gpio.c ****   GPIOx->LCKR = tmp;
 882              		.loc 1 477 0
 883 001e 019B     		ldr	r3, [sp, #4]	@ D.7758, tmp
 884 0020 E361     		str	r3, [r4, #28]	@ D.7758, GPIOx_12(D)->LCKR
 478:../STM32Cube_FW_F4_V1.4.0/Drivers/STM32F4xx_HAL_Driver/Src/stm32f4xx_hal_gpio.c ****   /* Reset LCKx bit(s): LCKK='0' + LCK[15-0] */
 479:../STM32Cube_FW_F4_V1.4.0/Drivers/STM32F4xx_HAL_Driver/Src/stm32f4xx_hal_gpio.c ****   GPIOx->LCKR = GPIO_Pin;
 885              		.loc 1 479 0
 886 0022 E561     		str	r5, [r4, #28]	@ GPIO_Pin, GPIOx_12(D)->LCKR
 480:../STM32Cube_FW_F4_V1.4.0/Drivers/STM32F4xx_HAL_Driver/Src/stm32f4xx_hal_gpio.c ****   /* Set LCKx bit(s): LCKK='1' + LCK[15-0] */
 481:../STM32Cube_FW_F4_V1.4.0/Drivers/STM32F4xx_HAL_Driver/Src/stm32f4xx_hal_gpio.c ****   GPIOx->LCKR = tmp;
 887              		.loc 1 481 0
 888 0024 019B     		ldr	r3, [sp, #4]	@ D.7758, tmp
 889 0026 E361     		str	r3, [r4, #28]	@ D.7758, GPIOx_12(D)->LCKR
 482:../STM32Cube_FW_F4_V1.4.0/Drivers/STM32F4xx_HAL_Driver/Src/stm32f4xx_hal_gpio.c ****   /* Read LCKK bit*/
 483:../STM32Cube_FW_F4_V1.4.0/Drivers/STM32F4xx_HAL_Driver/Src/stm32f4xx_hal_gpio.c ****   tmp = GPIOx->LCKR;
 890              		.loc 1 483 0
 891 0028 E369     		ldr	r3, [r4, #28]	@ D.7758, GPIOx_12(D)->LCKR
 892 002a 0193     		str	r3, [sp, #4]	@ D.7758, tmp
 484:../STM32Cube_FW_F4_V1.4.0/Drivers/STM32F4xx_HAL_Driver/Src/stm32f4xx_hal_gpio.c **** 
 485:../STM32Cube_FW_F4_V1.4.0/Drivers/STM32F4xx_HAL_Driver/Src/stm32f4xx_hal_gpio.c ****  if((GPIOx->LCKR & GPIO_LCKR_LCKK) != RESET)
 893              		.loc 1 485 0
 894 002c E069     		ldr	r0, [r4, #28]	@ D.7758, GPIOx_12(D)->LCKR
 895 002e 80F48030 		eor	r0, r0, #65536	@ tmp127, D.7758,
 486:../STM32Cube_FW_F4_V1.4.0/Drivers/STM32F4xx_HAL_Driver/Src/stm32f4xx_hal_gpio.c ****   {
 487:../STM32Cube_FW_F4_V1.4.0/Drivers/STM32F4xx_HAL_Driver/Src/stm32f4xx_hal_gpio.c ****     return HAL_OK;
 488:../STM32Cube_FW_F4_V1.4.0/Drivers/STM32F4xx_HAL_Driver/Src/stm32f4xx_hal_gpio.c ****   }
 489:../STM32Cube_FW_F4_V1.4.0/Drivers/STM32F4xx_HAL_Driver/Src/stm32f4xx_hal_gpio.c ****   else
 490:../STM32Cube_FW_F4_V1.4.0/Drivers/STM32F4xx_HAL_Driver/Src/stm32f4xx_hal_gpio.c ****   {
 491:../STM32Cube_FW_F4_V1.4.0/Drivers/STM32F4xx_HAL_Driver/Src/stm32f4xx_hal_gpio.c ****     return HAL_ERROR;
 492:../STM32Cube_FW_F4_V1.4.0/Drivers/STM32F4xx_HAL_Driver/Src/stm32f4xx_hal_gpio.c ****   }
 493:../STM32Cube_FW_F4_V1.4.0/Drivers/STM32F4xx_HAL_Driver/Src/stm32f4xx_hal_gpio.c **** }
 896              		.loc 1 493 0
 897 0032 C0F30040 		ubfx	r0, r0, #16, #1	@, tmp127,,
 898 0036 03B0     		add	sp, sp, #12	@,,
 899              		.cfi_def_cfa_offset 12
 900              		@ sp needed	@
 901 0038 30BD     		pop	{r4, r5, pc}	@
 902              	.LVL90:
 903              	.L69:
 904 003a 00BF     		.align	2
 905              	.L68:
 906 003c 00000000 		.word	.LC0
ARM GAS  C:\cygwin\tmp\ccblTS4I.s 			page 26


 907              		.cfi_endproc
 908              	.LFE128:
 909              		.size	HAL_GPIO_LockPin, .-HAL_GPIO_LockPin
 910              		.section	.text.HAL_GPIO_EXTI_Callback,"ax",%progbits
 911              		.align	1
 912              		.weak	HAL_GPIO_EXTI_Callback
 913              		.thumb
 914              		.thumb_func
 915              		.type	HAL_GPIO_EXTI_Callback, %function
 916              	HAL_GPIO_EXTI_Callback:
 917              	.LFB130:
 494:../STM32Cube_FW_F4_V1.4.0/Drivers/STM32F4xx_HAL_Driver/Src/stm32f4xx_hal_gpio.c **** 
 495:../STM32Cube_FW_F4_V1.4.0/Drivers/STM32F4xx_HAL_Driver/Src/stm32f4xx_hal_gpio.c **** /**
 496:../STM32Cube_FW_F4_V1.4.0/Drivers/STM32F4xx_HAL_Driver/Src/stm32f4xx_hal_gpio.c ****   * @brief  This function handles EXTI interrupt request.
 497:../STM32Cube_FW_F4_V1.4.0/Drivers/STM32F4xx_HAL_Driver/Src/stm32f4xx_hal_gpio.c ****   * @param  GPIO_Pin: Specifies the pins connected EXTI line
 498:../STM32Cube_FW_F4_V1.4.0/Drivers/STM32F4xx_HAL_Driver/Src/stm32f4xx_hal_gpio.c ****   * @retval None
 499:../STM32Cube_FW_F4_V1.4.0/Drivers/STM32F4xx_HAL_Driver/Src/stm32f4xx_hal_gpio.c ****   */
 500:../STM32Cube_FW_F4_V1.4.0/Drivers/STM32F4xx_HAL_Driver/Src/stm32f4xx_hal_gpio.c **** void HAL_GPIO_EXTI_IRQHandler(uint16_t GPIO_Pin)
 501:../STM32Cube_FW_F4_V1.4.0/Drivers/STM32F4xx_HAL_Driver/Src/stm32f4xx_hal_gpio.c **** {
 502:../STM32Cube_FW_F4_V1.4.0/Drivers/STM32F4xx_HAL_Driver/Src/stm32f4xx_hal_gpio.c ****   /* EXTI line interrupt detected */
 503:../STM32Cube_FW_F4_V1.4.0/Drivers/STM32F4xx_HAL_Driver/Src/stm32f4xx_hal_gpio.c ****   if(__HAL_GPIO_EXTI_GET_IT(GPIO_Pin) != RESET)
 504:../STM32Cube_FW_F4_V1.4.0/Drivers/STM32F4xx_HAL_Driver/Src/stm32f4xx_hal_gpio.c ****   {
 505:../STM32Cube_FW_F4_V1.4.0/Drivers/STM32F4xx_HAL_Driver/Src/stm32f4xx_hal_gpio.c ****     __HAL_GPIO_EXTI_CLEAR_IT(GPIO_Pin);
 506:../STM32Cube_FW_F4_V1.4.0/Drivers/STM32F4xx_HAL_Driver/Src/stm32f4xx_hal_gpio.c ****     HAL_GPIO_EXTI_Callback(GPIO_Pin);
 507:../STM32Cube_FW_F4_V1.4.0/Drivers/STM32F4xx_HAL_Driver/Src/stm32f4xx_hal_gpio.c ****   }
 508:../STM32Cube_FW_F4_V1.4.0/Drivers/STM32F4xx_HAL_Driver/Src/stm32f4xx_hal_gpio.c **** }
 509:../STM32Cube_FW_F4_V1.4.0/Drivers/STM32F4xx_HAL_Driver/Src/stm32f4xx_hal_gpio.c **** 
 510:../STM32Cube_FW_F4_V1.4.0/Drivers/STM32F4xx_HAL_Driver/Src/stm32f4xx_hal_gpio.c **** /**
 511:../STM32Cube_FW_F4_V1.4.0/Drivers/STM32F4xx_HAL_Driver/Src/stm32f4xx_hal_gpio.c ****   * @brief  EXTI line detection callbacks.
 512:../STM32Cube_FW_F4_V1.4.0/Drivers/STM32F4xx_HAL_Driver/Src/stm32f4xx_hal_gpio.c ****   * @param  GPIO_Pin: Specifies the pins connected EXTI line
 513:../STM32Cube_FW_F4_V1.4.0/Drivers/STM32F4xx_HAL_Driver/Src/stm32f4xx_hal_gpio.c ****   * @retval None
 514:../STM32Cube_FW_F4_V1.4.0/Drivers/STM32F4xx_HAL_Driver/Src/stm32f4xx_hal_gpio.c ****   */
 515:../STM32Cube_FW_F4_V1.4.0/Drivers/STM32F4xx_HAL_Driver/Src/stm32f4xx_hal_gpio.c **** __weak void HAL_GPIO_EXTI_Callback(uint16_t GPIO_Pin)
 516:../STM32Cube_FW_F4_V1.4.0/Drivers/STM32F4xx_HAL_Driver/Src/stm32f4xx_hal_gpio.c **** {
 918              		.loc 1 516 0
 919              		.cfi_startproc
 920              		@ args = 0, pretend = 0, frame = 0
 921              		@ frame_needed = 0, uses_anonymous_args = 0
 922              		@ link register save eliminated.
 923              	.LVL91:
 924 0000 7047     		bx	lr	@
 925              		.cfi_endproc
 926              	.LFE130:
 927              		.size	HAL_GPIO_EXTI_Callback, .-HAL_GPIO_EXTI_Callback
 928              		.section	.text.HAL_GPIO_EXTI_IRQHandler,"ax",%progbits
 929              		.align	1
 930              		.global	HAL_GPIO_EXTI_IRQHandler
 931              		.thumb
 932              		.thumb_func
 933              		.type	HAL_GPIO_EXTI_IRQHandler, %function
 934              	HAL_GPIO_EXTI_IRQHandler:
 935              	.LFB129:
 501:../STM32Cube_FW_F4_V1.4.0/Drivers/STM32F4xx_HAL_Driver/Src/stm32f4xx_hal_gpio.c ****   /* EXTI line interrupt detected */
 936              		.loc 1 501 0
 937              		.cfi_startproc
 938              		@ args = 0, pretend = 0, frame = 0
 939              		@ frame_needed = 0, uses_anonymous_args = 0
ARM GAS  C:\cygwin\tmp\ccblTS4I.s 			page 27


 940              	.LVL92:
 501:../STM32Cube_FW_F4_V1.4.0/Drivers/STM32F4xx_HAL_Driver/Src/stm32f4xx_hal_gpio.c ****   /* EXTI line interrupt detected */
 941              		.loc 1 501 0
 942 0000 08B5     		push	{r3, lr}	@
 943              		.cfi_def_cfa_offset 8
 944              		.cfi_offset 3, -8
 945              		.cfi_offset 14, -4
 503:../STM32Cube_FW_F4_V1.4.0/Drivers/STM32F4xx_HAL_Driver/Src/stm32f4xx_hal_gpio.c ****   {
 946              		.loc 1 503 0
 947 0002 044B     		ldr	r3, .L76	@ tmp114,
 948 0004 5969     		ldr	r1, [r3, #20]	@ D.7765, MEM[(struct EXTI_TypeDef *)1073822720B].PR
 949 0006 0842     		tst	r0, r1	@ GPIO_Pin, D.7765
 950 0008 02D0     		beq	.L71	@,
 505:../STM32Cube_FW_F4_V1.4.0/Drivers/STM32F4xx_HAL_Driver/Src/stm32f4xx_hal_gpio.c ****     HAL_GPIO_EXTI_Callback(GPIO_Pin);
 951              		.loc 1 505 0
 952 000a 5861     		str	r0, [r3, #20]	@ GPIO_Pin, MEM[(struct EXTI_TypeDef *)1073822720B].PR
 506:../STM32Cube_FW_F4_V1.4.0/Drivers/STM32F4xx_HAL_Driver/Src/stm32f4xx_hal_gpio.c ****   }
 953              		.loc 1 506 0
 954 000c FFF7FEFF 		bl	HAL_GPIO_EXTI_Callback	@
 955              	.LVL93:
 956              	.L71:
 957 0010 08BD     		pop	{r3, pc}	@
 958              	.L77:
 959 0012 00BF     		.align	2
 960              	.L76:
 961 0014 003C0140 		.word	1073822720
 962              		.cfi_endproc
 963              	.LFE129:
 964              		.size	HAL_GPIO_EXTI_IRQHandler, .-HAL_GPIO_EXTI_IRQHandler
 965              		.section	.rodata.str1.1,"aMS",%progbits,1
 966              	.LC0:
 967 0000 2E2E2F53 		.ascii	"../STM32Cube_FW_F4_V1.4.0/Drivers/STM32F4xx_HAL_Dri"
 967      544D3332 
 967      43756265 
 967      5F46575F 
 967      46345F56 
 968 0033 7665722F 		.ascii	"ver/Src/stm32f4xx_hal_gpio.c\000"
 968      5372632F 
 968      73746D33 
 968      32663478 
 968      785F6861 
 969              		.text
 970              	.Letext0:
 971              		.file 2 "c:\\program files\\gcc-arm-none-eabi-4_9-2014\\arm-none-eabi\\include\\machine\\_default_
 972              		.file 3 "c:\\program files\\gcc-arm-none-eabi-4_9-2014\\arm-none-eabi\\include\\stdint.h"
 973              		.file 4 "../STM32Cube_FW_F4_V1.4.0/Drivers/CMSIS/Device/ST/STM32F4xx/Include/stm32f407xx.h"
 974              		.file 5 "../STM32Cube_FW_F4_V1.4.0/Drivers/CMSIS/Device/ST/STM32F4xx/Include/stm32f4xx.h"
 975              		.file 6 "../STM32Cube_FW_F4_V1.4.0/Drivers/STM32F4xx_HAL_Driver/Inc/stm32f4xx_hal_def.h"
 976              		.file 7 "../STM32Cube_FW_F4_V1.4.0/Drivers/STM32F4xx_HAL_Driver/Inc/stm32f4xx_hal_gpio.h"
 977              		.file 8 "../STM32Cube_FW_F4_V1.4.0/Drivers/CMSIS/Include/core_cm4.h"
 978              		.file 9 "Inc/stm32f4xx_hal_conf.h"