ARM GAS  C:\cygwin\tmp\cc4kSEDe.s 			page 1


   1              		.syntax unified
   2              		.cpu cortex-m4
   3              		.fpu softvfp
   4              		.eabi_attribute 20, 1	@ Tag_ABI_FP_denormal
   5              		.eabi_attribute 21, 1	@ Tag_ABI_FP_exceptions
   6              		.eabi_attribute 23, 3	@ Tag_ABI_FP_number_model
   7              		.eabi_attribute 24, 1	@ Tag_ABI_align8_needed
   8              		.eabi_attribute 25, 1	@ Tag_ABI_align8_preserved
   9              		.eabi_attribute 26, 1	@ Tag_ABI_enum_size
  10              		.eabi_attribute 30, 4	@ Tag_ABI_optimization_goals
  11              		.eabi_attribute 34, 1	@ Tag_CPU_unaligned_access
  12              		.eabi_attribute 18, 4	@ Tag_ABI_PCS_wchar_t
  13              		.file	"stm32f4xx_hal_rcc_ex.c"
  14              	@ GNU C (GNU Tools for ARM Embedded Processors) version 4.9.3 20141119 (release) [ARM/embedded-4_9-
  15              	@	compiled by GNU C version 4.7.4, GMP version 4.3.2, MPFR version 2.4.2, MPC version 0.8.1
  16              	@ GGC heuristics: --param ggc-min-expand=100 --param ggc-min-heapsize=131072
  17              	@ options passed:  -I . -I Inc
  18              	@ -I ../STM32Cube_FW_F4_V1.4.0/Drivers/CMSIS/Include
  19              	@ -I ../STM32Cube_FW_F4_V1.4.0/Drivers/CMSIS/Device/ST/STM32F4xx/Include
  20              	@ -I ../STM32Cube_FW_F4_V1.4.0/Drivers/STM32F4xx_HAL_Driver/Inc
  21              	@ -I ../STM32Cube_FW_F4_V1.4.0/Drivers/CMSIS/Include -imultilib armv7e-m
  22              	@ -iprefix c:\program files\gcc-arm-none-eabi-4_9-2014\bin\../lib/gcc/arm-none-eabi/4.9.3/
  23              	@ -isysroot c:\program files\gcc-arm-none-eabi-4_9-2014\bin\../arm-none-eabi
  24              	@ -MD out/stm32f4xx_hal_rcc_ex.d -MF out/stm32f4xx_hal_rcc_ex.d -MP
  25              	@ -MQ out/stm32f4xx_hal_rcc_ex.o -D__USES_INITFINI__ -D USE_HAL_DRIVER
  26              	@ -D STM32F4XX -D HSE_VALUE=8000000 -D __STARTUP_CLEAR_BSS -D STM32F411RE
  27              	@ -D USE_FULL_ASSERT -D __FPU_USED
  28              	@ ../STM32Cube_FW_F4_V1.4.0/Drivers/STM32F4xx_HAL_Driver/Src/stm32f4xx_hal_rcc_ex.c
  29              	@ -mcpu=cortex-m4 -mthumb -auxbase-strip out/stm32f4xx_hal_rcc_ex.o -g
  30              	@ -ggdb3 -Os -Os -Wall -Wstrict-prototypes -Wextra -std=gnu90
  31              	@ -ffunction-sections -fdata-sections -fverbose-asm
  32              	@ options enabled:  -faggressive-loop-optimizations -fauto-inc-dec
  33              	@ -fbranch-count-reg -fcaller-saves -fcombine-stack-adjustments -fcommon
  34              	@ -fcompare-elim -fcprop-registers -fcrossjumping -fcse-follow-jumps
  35              	@ -fdata-sections -fdefer-pop -fdelete-null-pointer-checks -fdevirtualize
  36              	@ -fdevirtualize-speculatively -fdwarf2-cfi-asm -fearly-inlining
  37              	@ -feliminate-unused-debug-types -fexpensive-optimizations
  38              	@ -fforward-propagate -ffunction-cse -ffunction-sections -fgcse -fgcse-lm
  39              	@ -fgnu-runtime -fgnu-unique -fguess-branch-probability
  40              	@ -fhoist-adjacent-loads -fident -fif-conversion -fif-conversion2
  41              	@ -findirect-inlining -finline -finline-atomics -finline-functions
  42              	@ -finline-functions-called-once -finline-small-functions -fipa-cp
  43              	@ -fipa-profile -fipa-pure-const -fipa-reference -fipa-sra
  44              	@ -fira-hoist-pressure -fira-share-save-slots -fira-share-spill-slots
  45              	@ -fisolate-erroneous-paths-dereference -fivopts -fkeep-static-consts
  46              	@ -fleading-underscore -fmath-errno -fmerge-constants -fmerge-debug-strings
  47              	@ -fomit-frame-pointer -foptimize-sibling-calls -fpartial-inlining
  48              	@ -fpeephole -fpeephole2 -fprefetch-loop-arrays -freg-struct-return
  49              	@ -freorder-blocks -freorder-functions -frerun-cse-after-loop
  50              	@ -fsched-critical-path-heuristic -fsched-dep-count-heuristic
  51              	@ -fsched-group-heuristic -fsched-interblock -fsched-last-insn-heuristic
  52              	@ -fsched-pressure -fsched-rank-heuristic -fsched-spec
  53              	@ -fsched-spec-insn-heuristic -fsched-stalled-insns-dep -fschedule-insns2
  54              	@ -fsection-anchors -fshow-column -fsigned-zeros -fsplit-ivs-in-unroller
  55              	@ -fsplit-wide-types -fstrict-aliasing -fstrict-overflow
  56              	@ -fstrict-volatile-bitfields -fsync-libcalls -fthread-jumps
  57              	@ -ftoplevel-reorder -ftrapping-math -ftree-bit-ccp -ftree-builtin-call-dce
ARM GAS  C:\cygwin\tmp\cc4kSEDe.s 			page 2


  58              	@ -ftree-ccp -ftree-ch -ftree-coalesce-vars -ftree-copy-prop
  59              	@ -ftree-copyrename -ftree-cselim -ftree-dce -ftree-dominator-opts
  60              	@ -ftree-dse -ftree-forwprop -ftree-fre -ftree-loop-if-convert
  61              	@ -ftree-loop-im -ftree-loop-ivcanon -ftree-loop-optimize
  62              	@ -ftree-parallelize-loops= -ftree-phiprop -ftree-pre -ftree-pta
  63              	@ -ftree-reassoc -ftree-scev-cprop -ftree-sink -ftree-slsr -ftree-sra
  64              	@ -ftree-switch-conversion -ftree-tail-merge -ftree-ter -ftree-vrp
  65              	@ -funit-at-a-time -fvar-tracking -fvar-tracking-assignments -fverbose-asm
  66              	@ -fzero-initialized-in-bss -mlittle-endian -mlra
  67              	@ -mpic-data-is-text-relative -msched-prolog -mthumb -munaligned-access
  68              	@ -mvectorize-with-neon-quad
  69              	
  70              		.text
  71              	.Ltext0:
  72              		.cfi_sections	.debug_frame
  73              		.section	.text.HAL_RCCEx_PeriphCLKConfig,"ax",%progbits
  74              		.align	1
  75              		.global	HAL_RCCEx_PeriphCLKConfig
  76              		.thumb
  77              		.thumb_func
  78              		.type	HAL_RCCEx_PeriphCLKConfig, %function
  79              	HAL_RCCEx_PeriphCLKConfig:
  80              	.LFB123:
  81              		.file 1 "../STM32Cube_FW_F4_V1.4.0/Drivers/STM32F4xx_HAL_Driver/Src/stm32f4xx_hal_rcc_ex.c"
   1:../STM32Cube_FW_F4_V1.4.0/Drivers/STM32F4xx_HAL_Driver/Src/stm32f4xx_hal_rcc_ex.c **** /**
   2:../STM32Cube_FW_F4_V1.4.0/Drivers/STM32F4xx_HAL_Driver/Src/stm32f4xx_hal_rcc_ex.c ****   ******************************************************************************
   3:../STM32Cube_FW_F4_V1.4.0/Drivers/STM32F4xx_HAL_Driver/Src/stm32f4xx_hal_rcc_ex.c ****   * @file    stm32f4xx_hal_rcc_ex.c
   4:../STM32Cube_FW_F4_V1.4.0/Drivers/STM32F4xx_HAL_Driver/Src/stm32f4xx_hal_rcc_ex.c ****   * @author  MCD Application Team
   5:../STM32Cube_FW_F4_V1.4.0/Drivers/STM32F4xx_HAL_Driver/Src/stm32f4xx_hal_rcc_ex.c ****   * @version V1.2.0
   6:../STM32Cube_FW_F4_V1.4.0/Drivers/STM32F4xx_HAL_Driver/Src/stm32f4xx_hal_rcc_ex.c ****   * @date    26-December-2014
   7:../STM32Cube_FW_F4_V1.4.0/Drivers/STM32F4xx_HAL_Driver/Src/stm32f4xx_hal_rcc_ex.c ****   * @brief   Extension RCC HAL module driver.
   8:../STM32Cube_FW_F4_V1.4.0/Drivers/STM32F4xx_HAL_Driver/Src/stm32f4xx_hal_rcc_ex.c ****   *          This file provides firmware functions to manage the following 
   9:../STM32Cube_FW_F4_V1.4.0/Drivers/STM32F4xx_HAL_Driver/Src/stm32f4xx_hal_rcc_ex.c ****   *          functionalities RCC extension peripheral:
  10:../STM32Cube_FW_F4_V1.4.0/Drivers/STM32F4xx_HAL_Driver/Src/stm32f4xx_hal_rcc_ex.c ****   *           + Extended Peripheral Control functions
  11:../STM32Cube_FW_F4_V1.4.0/Drivers/STM32F4xx_HAL_Driver/Src/stm32f4xx_hal_rcc_ex.c ****   *  
  12:../STM32Cube_FW_F4_V1.4.0/Drivers/STM32F4xx_HAL_Driver/Src/stm32f4xx_hal_rcc_ex.c ****   ******************************************************************************
  13:../STM32Cube_FW_F4_V1.4.0/Drivers/STM32F4xx_HAL_Driver/Src/stm32f4xx_hal_rcc_ex.c ****   * @attention
  14:../STM32Cube_FW_F4_V1.4.0/Drivers/STM32F4xx_HAL_Driver/Src/stm32f4xx_hal_rcc_ex.c ****   *
  15:../STM32Cube_FW_F4_V1.4.0/Drivers/STM32F4xx_HAL_Driver/Src/stm32f4xx_hal_rcc_ex.c ****   * <h2><center>&copy; COPYRIGHT(c) 2014 STMicroelectronics</center></h2>
  16:../STM32Cube_FW_F4_V1.4.0/Drivers/STM32F4xx_HAL_Driver/Src/stm32f4xx_hal_rcc_ex.c ****   *
  17:../STM32Cube_FW_F4_V1.4.0/Drivers/STM32F4xx_HAL_Driver/Src/stm32f4xx_hal_rcc_ex.c ****   * Redistribution and use in source and binary forms, with or without modification,
  18:../STM32Cube_FW_F4_V1.4.0/Drivers/STM32F4xx_HAL_Driver/Src/stm32f4xx_hal_rcc_ex.c ****   * are permitted provided that the following conditions are met:
  19:../STM32Cube_FW_F4_V1.4.0/Drivers/STM32F4xx_HAL_Driver/Src/stm32f4xx_hal_rcc_ex.c ****   *   1. Redistributions of source code must retain the above copyright notice,
  20:../STM32Cube_FW_F4_V1.4.0/Drivers/STM32F4xx_HAL_Driver/Src/stm32f4xx_hal_rcc_ex.c ****   *      this list of conditions and the following disclaimer.
  21:../STM32Cube_FW_F4_V1.4.0/Drivers/STM32F4xx_HAL_Driver/Src/stm32f4xx_hal_rcc_ex.c ****   *   2. Redistributions in binary form must reproduce the above copyright notice,
  22:../STM32Cube_FW_F4_V1.4.0/Drivers/STM32F4xx_HAL_Driver/Src/stm32f4xx_hal_rcc_ex.c ****   *      this list of conditions and the following disclaimer in the documentation
  23:../STM32Cube_FW_F4_V1.4.0/Drivers/STM32F4xx_HAL_Driver/Src/stm32f4xx_hal_rcc_ex.c ****   *      and/or other materials provided with the distribution.
  24:../STM32Cube_FW_F4_V1.4.0/Drivers/STM32F4xx_HAL_Driver/Src/stm32f4xx_hal_rcc_ex.c ****   *   3. Neither the name of STMicroelectronics nor the names of its contributors
  25:../STM32Cube_FW_F4_V1.4.0/Drivers/STM32F4xx_HAL_Driver/Src/stm32f4xx_hal_rcc_ex.c ****   *      may be used to endorse or promote products derived from this software
  26:../STM32Cube_FW_F4_V1.4.0/Drivers/STM32F4xx_HAL_Driver/Src/stm32f4xx_hal_rcc_ex.c ****   *      without specific prior written permission.
  27:../STM32Cube_FW_F4_V1.4.0/Drivers/STM32F4xx_HAL_Driver/Src/stm32f4xx_hal_rcc_ex.c ****   *
  28:../STM32Cube_FW_F4_V1.4.0/Drivers/STM32F4xx_HAL_Driver/Src/stm32f4xx_hal_rcc_ex.c ****   * THIS SOFTWARE IS PROVIDED BY THE COPYRIGHT HOLDERS AND CONTRIBUTORS "AS IS"
  29:../STM32Cube_FW_F4_V1.4.0/Drivers/STM32F4xx_HAL_Driver/Src/stm32f4xx_hal_rcc_ex.c ****   * AND ANY EXPRESS OR IMPLIED WARRANTIES, INCLUDING, BUT NOT LIMITED TO, THE
  30:../STM32Cube_FW_F4_V1.4.0/Drivers/STM32F4xx_HAL_Driver/Src/stm32f4xx_hal_rcc_ex.c ****   * IMPLIED WARRANTIES OF MERCHANTABILITY AND FITNESS FOR A PARTICULAR PURPOSE ARE
  31:../STM32Cube_FW_F4_V1.4.0/Drivers/STM32F4xx_HAL_Driver/Src/stm32f4xx_hal_rcc_ex.c ****   * DISCLAIMED. IN NO EVENT SHALL THE COPYRIGHT HOLDER OR CONTRIBUTORS BE LIABLE
  32:../STM32Cube_FW_F4_V1.4.0/Drivers/STM32F4xx_HAL_Driver/Src/stm32f4xx_hal_rcc_ex.c ****   * FOR ANY DIRECT, INDIRECT, INCIDENTAL, SPECIAL, EXEMPLARY, OR CONSEQUENTIAL
  33:../STM32Cube_FW_F4_V1.4.0/Drivers/STM32F4xx_HAL_Driver/Src/stm32f4xx_hal_rcc_ex.c ****   * DAMAGES (INCLUDING, BUT NOT LIMITED TO, PROCUREMENT OF SUBSTITUTE GOODS OR
ARM GAS  C:\cygwin\tmp\cc4kSEDe.s 			page 3


  34:../STM32Cube_FW_F4_V1.4.0/Drivers/STM32F4xx_HAL_Driver/Src/stm32f4xx_hal_rcc_ex.c ****   * SERVICES; LOSS OF USE, DATA, OR PROFITS; OR BUSINESS INTERRUPTION) HOWEVER
  35:../STM32Cube_FW_F4_V1.4.0/Drivers/STM32F4xx_HAL_Driver/Src/stm32f4xx_hal_rcc_ex.c ****   * CAUSED AND ON ANY THEORY OF LIABILITY, WHETHER IN CONTRACT, STRICT LIABILITY,
  36:../STM32Cube_FW_F4_V1.4.0/Drivers/STM32F4xx_HAL_Driver/Src/stm32f4xx_hal_rcc_ex.c ****   * OR TORT (INCLUDING NEGLIGENCE OR OTHERWISE) ARISING IN ANY WAY OUT OF THE USE
  37:../STM32Cube_FW_F4_V1.4.0/Drivers/STM32F4xx_HAL_Driver/Src/stm32f4xx_hal_rcc_ex.c ****   * OF THIS SOFTWARE, EVEN IF ADVISED OF THE POSSIBILITY OF SUCH DAMAGE.
  38:../STM32Cube_FW_F4_V1.4.0/Drivers/STM32F4xx_HAL_Driver/Src/stm32f4xx_hal_rcc_ex.c ****   *
  39:../STM32Cube_FW_F4_V1.4.0/Drivers/STM32F4xx_HAL_Driver/Src/stm32f4xx_hal_rcc_ex.c ****   ******************************************************************************
  40:../STM32Cube_FW_F4_V1.4.0/Drivers/STM32F4xx_HAL_Driver/Src/stm32f4xx_hal_rcc_ex.c ****   */ 
  41:../STM32Cube_FW_F4_V1.4.0/Drivers/STM32F4xx_HAL_Driver/Src/stm32f4xx_hal_rcc_ex.c **** 
  42:../STM32Cube_FW_F4_V1.4.0/Drivers/STM32F4xx_HAL_Driver/Src/stm32f4xx_hal_rcc_ex.c **** /* Includes ------------------------------------------------------------------*/
  43:../STM32Cube_FW_F4_V1.4.0/Drivers/STM32F4xx_HAL_Driver/Src/stm32f4xx_hal_rcc_ex.c **** #include "stm32f4xx_hal.h"
  44:../STM32Cube_FW_F4_V1.4.0/Drivers/STM32F4xx_HAL_Driver/Src/stm32f4xx_hal_rcc_ex.c **** 
  45:../STM32Cube_FW_F4_V1.4.0/Drivers/STM32F4xx_HAL_Driver/Src/stm32f4xx_hal_rcc_ex.c **** /** @addtogroup STM32F4xx_HAL_Driver
  46:../STM32Cube_FW_F4_V1.4.0/Drivers/STM32F4xx_HAL_Driver/Src/stm32f4xx_hal_rcc_ex.c ****   * @{
  47:../STM32Cube_FW_F4_V1.4.0/Drivers/STM32F4xx_HAL_Driver/Src/stm32f4xx_hal_rcc_ex.c ****   */
  48:../STM32Cube_FW_F4_V1.4.0/Drivers/STM32F4xx_HAL_Driver/Src/stm32f4xx_hal_rcc_ex.c **** 
  49:../STM32Cube_FW_F4_V1.4.0/Drivers/STM32F4xx_HAL_Driver/Src/stm32f4xx_hal_rcc_ex.c **** /** @defgroup RCCEx RCCEx
  50:../STM32Cube_FW_F4_V1.4.0/Drivers/STM32F4xx_HAL_Driver/Src/stm32f4xx_hal_rcc_ex.c ****   * @brief RCCEx HAL module driver
  51:../STM32Cube_FW_F4_V1.4.0/Drivers/STM32F4xx_HAL_Driver/Src/stm32f4xx_hal_rcc_ex.c ****   * @{
  52:../STM32Cube_FW_F4_V1.4.0/Drivers/STM32F4xx_HAL_Driver/Src/stm32f4xx_hal_rcc_ex.c ****   */
  53:../STM32Cube_FW_F4_V1.4.0/Drivers/STM32F4xx_HAL_Driver/Src/stm32f4xx_hal_rcc_ex.c **** 
  54:../STM32Cube_FW_F4_V1.4.0/Drivers/STM32F4xx_HAL_Driver/Src/stm32f4xx_hal_rcc_ex.c **** #ifdef HAL_RCC_MODULE_ENABLED
  55:../STM32Cube_FW_F4_V1.4.0/Drivers/STM32F4xx_HAL_Driver/Src/stm32f4xx_hal_rcc_ex.c **** 
  56:../STM32Cube_FW_F4_V1.4.0/Drivers/STM32F4xx_HAL_Driver/Src/stm32f4xx_hal_rcc_ex.c **** /* Private typedef -----------------------------------------------------------*/
  57:../STM32Cube_FW_F4_V1.4.0/Drivers/STM32F4xx_HAL_Driver/Src/stm32f4xx_hal_rcc_ex.c **** /* Private define ------------------------------------------------------------*/
  58:../STM32Cube_FW_F4_V1.4.0/Drivers/STM32F4xx_HAL_Driver/Src/stm32f4xx_hal_rcc_ex.c **** /** @addtogroup RCCEx_Private_Constants
  59:../STM32Cube_FW_F4_V1.4.0/Drivers/STM32F4xx_HAL_Driver/Src/stm32f4xx_hal_rcc_ex.c ****   * @{
  60:../STM32Cube_FW_F4_V1.4.0/Drivers/STM32F4xx_HAL_Driver/Src/stm32f4xx_hal_rcc_ex.c ****   */
  61:../STM32Cube_FW_F4_V1.4.0/Drivers/STM32F4xx_HAL_Driver/Src/stm32f4xx_hal_rcc_ex.c **** #define PLLI2S_TIMEOUT_VALUE    100 /* Timeout value fixed to 100 ms  */
  62:../STM32Cube_FW_F4_V1.4.0/Drivers/STM32F4xx_HAL_Driver/Src/stm32f4xx_hal_rcc_ex.c **** #define PLLSAI_TIMEOUT_VALUE    100 /* Timeout value fixed to 100 ms  */
  63:../STM32Cube_FW_F4_V1.4.0/Drivers/STM32F4xx_HAL_Driver/Src/stm32f4xx_hal_rcc_ex.c **** /**
  64:../STM32Cube_FW_F4_V1.4.0/Drivers/STM32F4xx_HAL_Driver/Src/stm32f4xx_hal_rcc_ex.c ****   * @}
  65:../STM32Cube_FW_F4_V1.4.0/Drivers/STM32F4xx_HAL_Driver/Src/stm32f4xx_hal_rcc_ex.c ****   */ 
  66:../STM32Cube_FW_F4_V1.4.0/Drivers/STM32F4xx_HAL_Driver/Src/stm32f4xx_hal_rcc_ex.c **** /* Private macro -------------------------------------------------------------*/
  67:../STM32Cube_FW_F4_V1.4.0/Drivers/STM32F4xx_HAL_Driver/Src/stm32f4xx_hal_rcc_ex.c **** /* Private variables ---------------------------------------------------------*/
  68:../STM32Cube_FW_F4_V1.4.0/Drivers/STM32F4xx_HAL_Driver/Src/stm32f4xx_hal_rcc_ex.c **** /* Private function prototypes -----------------------------------------------*/
  69:../STM32Cube_FW_F4_V1.4.0/Drivers/STM32F4xx_HAL_Driver/Src/stm32f4xx_hal_rcc_ex.c **** /* Private functions ---------------------------------------------------------*/
  70:../STM32Cube_FW_F4_V1.4.0/Drivers/STM32F4xx_HAL_Driver/Src/stm32f4xx_hal_rcc_ex.c **** /** @defgroup RCCEx_Exported_Functions RCCEx Exported Functions
  71:../STM32Cube_FW_F4_V1.4.0/Drivers/STM32F4xx_HAL_Driver/Src/stm32f4xx_hal_rcc_ex.c ****   *  @{
  72:../STM32Cube_FW_F4_V1.4.0/Drivers/STM32F4xx_HAL_Driver/Src/stm32f4xx_hal_rcc_ex.c ****   */
  73:../STM32Cube_FW_F4_V1.4.0/Drivers/STM32F4xx_HAL_Driver/Src/stm32f4xx_hal_rcc_ex.c **** 
  74:../STM32Cube_FW_F4_V1.4.0/Drivers/STM32F4xx_HAL_Driver/Src/stm32f4xx_hal_rcc_ex.c **** /** @defgroup RCCEx_Exported_Functions_Group1 Extended Peripheral Control functions 
  75:../STM32Cube_FW_F4_V1.4.0/Drivers/STM32F4xx_HAL_Driver/Src/stm32f4xx_hal_rcc_ex.c ****  *  @brief  Extended Peripheral Control functions  
  76:../STM32Cube_FW_F4_V1.4.0/Drivers/STM32F4xx_HAL_Driver/Src/stm32f4xx_hal_rcc_ex.c ****  *
  77:../STM32Cube_FW_F4_V1.4.0/Drivers/STM32F4xx_HAL_Driver/Src/stm32f4xx_hal_rcc_ex.c **** @verbatim   
  78:../STM32Cube_FW_F4_V1.4.0/Drivers/STM32F4xx_HAL_Driver/Src/stm32f4xx_hal_rcc_ex.c ****  ===============================================================================
  79:../STM32Cube_FW_F4_V1.4.0/Drivers/STM32F4xx_HAL_Driver/Src/stm32f4xx_hal_rcc_ex.c ****                 ##### Extended Peripheral Control functions  #####
  80:../STM32Cube_FW_F4_V1.4.0/Drivers/STM32F4xx_HAL_Driver/Src/stm32f4xx_hal_rcc_ex.c ****  ===============================================================================  
  81:../STM32Cube_FW_F4_V1.4.0/Drivers/STM32F4xx_HAL_Driver/Src/stm32f4xx_hal_rcc_ex.c ****     [..]
  82:../STM32Cube_FW_F4_V1.4.0/Drivers/STM32F4xx_HAL_Driver/Src/stm32f4xx_hal_rcc_ex.c ****     This subsection provides a set of functions allowing to control the RCC Clocks 
  83:../STM32Cube_FW_F4_V1.4.0/Drivers/STM32F4xx_HAL_Driver/Src/stm32f4xx_hal_rcc_ex.c ****     frequencies.
  84:../STM32Cube_FW_F4_V1.4.0/Drivers/STM32F4xx_HAL_Driver/Src/stm32f4xx_hal_rcc_ex.c ****     [..] 
  85:../STM32Cube_FW_F4_V1.4.0/Drivers/STM32F4xx_HAL_Driver/Src/stm32f4xx_hal_rcc_ex.c ****     (@) Important note: Care must be taken when HAL_RCCEx_PeriphCLKConfig() is used to
  86:../STM32Cube_FW_F4_V1.4.0/Drivers/STM32F4xx_HAL_Driver/Src/stm32f4xx_hal_rcc_ex.c ****         select the RTC clock source; in this case the Backup domain will be reset in  
  87:../STM32Cube_FW_F4_V1.4.0/Drivers/STM32F4xx_HAL_Driver/Src/stm32f4xx_hal_rcc_ex.c ****         order to modify the RTC Clock source, as consequence RTC registers (including 
  88:../STM32Cube_FW_F4_V1.4.0/Drivers/STM32F4xx_HAL_Driver/Src/stm32f4xx_hal_rcc_ex.c ****         the backup registers) and RCC_BDCR register are set to their reset values.
  89:../STM32Cube_FW_F4_V1.4.0/Drivers/STM32F4xx_HAL_Driver/Src/stm32f4xx_hal_rcc_ex.c ****       
  90:../STM32Cube_FW_F4_V1.4.0/Drivers/STM32F4xx_HAL_Driver/Src/stm32f4xx_hal_rcc_ex.c **** @endverbatim
ARM GAS  C:\cygwin\tmp\cc4kSEDe.s 			page 4


  91:../STM32Cube_FW_F4_V1.4.0/Drivers/STM32F4xx_HAL_Driver/Src/stm32f4xx_hal_rcc_ex.c ****   * @{
  92:../STM32Cube_FW_F4_V1.4.0/Drivers/STM32F4xx_HAL_Driver/Src/stm32f4xx_hal_rcc_ex.c ****   */
  93:../STM32Cube_FW_F4_V1.4.0/Drivers/STM32F4xx_HAL_Driver/Src/stm32f4xx_hal_rcc_ex.c **** #if defined(STM32F427xx) || defined(STM32F437xx) || defined(STM32F429xx)|| defined(STM32F439xx) 
  94:../STM32Cube_FW_F4_V1.4.0/Drivers/STM32F4xx_HAL_Driver/Src/stm32f4xx_hal_rcc_ex.c **** /**
  95:../STM32Cube_FW_F4_V1.4.0/Drivers/STM32F4xx_HAL_Driver/Src/stm32f4xx_hal_rcc_ex.c ****   * @brief  Initializes the RCC extended peripherals clocks according to the specified
  96:../STM32Cube_FW_F4_V1.4.0/Drivers/STM32F4xx_HAL_Driver/Src/stm32f4xx_hal_rcc_ex.c ****   *         parameters in the RCC_PeriphCLKInitTypeDef.
  97:../STM32Cube_FW_F4_V1.4.0/Drivers/STM32F4xx_HAL_Driver/Src/stm32f4xx_hal_rcc_ex.c ****   * @param  PeriphClkInit: pointer to an RCC_PeriphCLKInitTypeDef structure that
  98:../STM32Cube_FW_F4_V1.4.0/Drivers/STM32F4xx_HAL_Driver/Src/stm32f4xx_hal_rcc_ex.c ****   *         contains the configuration information for the Extended Peripherals
  99:../STM32Cube_FW_F4_V1.4.0/Drivers/STM32F4xx_HAL_Driver/Src/stm32f4xx_hal_rcc_ex.c ****   *         clocks(I2S, SAI, LTDC RTC and TIM).
 100:../STM32Cube_FW_F4_V1.4.0/Drivers/STM32F4xx_HAL_Driver/Src/stm32f4xx_hal_rcc_ex.c ****   *         
 101:../STM32Cube_FW_F4_V1.4.0/Drivers/STM32F4xx_HAL_Driver/Src/stm32f4xx_hal_rcc_ex.c ****   * @note   Care must be taken when HAL_RCCEx_PeriphCLKConfig() is used to select 
 102:../STM32Cube_FW_F4_V1.4.0/Drivers/STM32F4xx_HAL_Driver/Src/stm32f4xx_hal_rcc_ex.c ****   *         the RTC clock source; in this case the Backup domain will be reset in  
 103:../STM32Cube_FW_F4_V1.4.0/Drivers/STM32F4xx_HAL_Driver/Src/stm32f4xx_hal_rcc_ex.c ****   *         order to modify the RTC Clock source, as consequence RTC registers (including 
 104:../STM32Cube_FW_F4_V1.4.0/Drivers/STM32F4xx_HAL_Driver/Src/stm32f4xx_hal_rcc_ex.c ****   *         the backup registers) and RCC_BDCR register are set to their reset values.
 105:../STM32Cube_FW_F4_V1.4.0/Drivers/STM32F4xx_HAL_Driver/Src/stm32f4xx_hal_rcc_ex.c ****   *
 106:../STM32Cube_FW_F4_V1.4.0/Drivers/STM32F4xx_HAL_Driver/Src/stm32f4xx_hal_rcc_ex.c ****   * @retval HAL status
 107:../STM32Cube_FW_F4_V1.4.0/Drivers/STM32F4xx_HAL_Driver/Src/stm32f4xx_hal_rcc_ex.c ****   */
 108:../STM32Cube_FW_F4_V1.4.0/Drivers/STM32F4xx_HAL_Driver/Src/stm32f4xx_hal_rcc_ex.c **** HAL_StatusTypeDef HAL_RCCEx_PeriphCLKConfig(RCC_PeriphCLKInitTypeDef  *PeriphClkInit)
 109:../STM32Cube_FW_F4_V1.4.0/Drivers/STM32F4xx_HAL_Driver/Src/stm32f4xx_hal_rcc_ex.c **** {
 110:../STM32Cube_FW_F4_V1.4.0/Drivers/STM32F4xx_HAL_Driver/Src/stm32f4xx_hal_rcc_ex.c ****   uint32_t tickstart = 0;
 111:../STM32Cube_FW_F4_V1.4.0/Drivers/STM32F4xx_HAL_Driver/Src/stm32f4xx_hal_rcc_ex.c ****   uint32_t tmpreg = 0;
 112:../STM32Cube_FW_F4_V1.4.0/Drivers/STM32F4xx_HAL_Driver/Src/stm32f4xx_hal_rcc_ex.c ****     
 113:../STM32Cube_FW_F4_V1.4.0/Drivers/STM32F4xx_HAL_Driver/Src/stm32f4xx_hal_rcc_ex.c ****   /* Check the parameters */
 114:../STM32Cube_FW_F4_V1.4.0/Drivers/STM32F4xx_HAL_Driver/Src/stm32f4xx_hal_rcc_ex.c ****   assert_param(IS_RCC_PERIPHCLOCK(PeriphClkInit->PeriphClockSelection));
 115:../STM32Cube_FW_F4_V1.4.0/Drivers/STM32F4xx_HAL_Driver/Src/stm32f4xx_hal_rcc_ex.c ****   
 116:../STM32Cube_FW_F4_V1.4.0/Drivers/STM32F4xx_HAL_Driver/Src/stm32f4xx_hal_rcc_ex.c ****   /*----------------------- SAI/I2S Configuration (PLLI2S) -------------------------*/
 117:../STM32Cube_FW_F4_V1.4.0/Drivers/STM32F4xx_HAL_Driver/Src/stm32f4xx_hal_rcc_ex.c ****   
 118:../STM32Cube_FW_F4_V1.4.0/Drivers/STM32F4xx_HAL_Driver/Src/stm32f4xx_hal_rcc_ex.c ****   /*----------------------- Common configuration SAI/I2S ---------------------------*/
 119:../STM32Cube_FW_F4_V1.4.0/Drivers/STM32F4xx_HAL_Driver/Src/stm32f4xx_hal_rcc_ex.c ****   /* In Case of SAI or I2S Clock Configuration through PLLI2S, PLLI2SN division   
 120:../STM32Cube_FW_F4_V1.4.0/Drivers/STM32F4xx_HAL_Driver/Src/stm32f4xx_hal_rcc_ex.c ****      factor is common parameters for both peripherals */ 
 121:../STM32Cube_FW_F4_V1.4.0/Drivers/STM32F4xx_HAL_Driver/Src/stm32f4xx_hal_rcc_ex.c ****   if((((PeriphClkInit->PeriphClockSelection) & RCC_PERIPHCLK_I2S) == RCC_PERIPHCLK_I2S) || 
 122:../STM32Cube_FW_F4_V1.4.0/Drivers/STM32F4xx_HAL_Driver/Src/stm32f4xx_hal_rcc_ex.c ****      (((PeriphClkInit->PeriphClockSelection) & RCC_PERIPHCLK_SAI_PLLI2S) == RCC_PERIPHCLK_SAI_PLLI2
 123:../STM32Cube_FW_F4_V1.4.0/Drivers/STM32F4xx_HAL_Driver/Src/stm32f4xx_hal_rcc_ex.c ****   {
 124:../STM32Cube_FW_F4_V1.4.0/Drivers/STM32F4xx_HAL_Driver/Src/stm32f4xx_hal_rcc_ex.c ****     /* check for Parameters */
 125:../STM32Cube_FW_F4_V1.4.0/Drivers/STM32F4xx_HAL_Driver/Src/stm32f4xx_hal_rcc_ex.c ****     assert_param(IS_RCC_PLLI2SN_VALUE(PeriphClkInit->PLLI2S.PLLI2SN));
 126:../STM32Cube_FW_F4_V1.4.0/Drivers/STM32F4xx_HAL_Driver/Src/stm32f4xx_hal_rcc_ex.c ****         
 127:../STM32Cube_FW_F4_V1.4.0/Drivers/STM32F4xx_HAL_Driver/Src/stm32f4xx_hal_rcc_ex.c ****     /* Disable the PLLI2S */
 128:../STM32Cube_FW_F4_V1.4.0/Drivers/STM32F4xx_HAL_Driver/Src/stm32f4xx_hal_rcc_ex.c ****     __HAL_RCC_PLLI2S_DISABLE();    
 129:../STM32Cube_FW_F4_V1.4.0/Drivers/STM32F4xx_HAL_Driver/Src/stm32f4xx_hal_rcc_ex.c ****     /* Get tick */
 130:../STM32Cube_FW_F4_V1.4.0/Drivers/STM32F4xx_HAL_Driver/Src/stm32f4xx_hal_rcc_ex.c ****     tickstart = HAL_GetTick();
 131:../STM32Cube_FW_F4_V1.4.0/Drivers/STM32F4xx_HAL_Driver/Src/stm32f4xx_hal_rcc_ex.c ****     /* Wait till PLLI2S is disabled */
 132:../STM32Cube_FW_F4_V1.4.0/Drivers/STM32F4xx_HAL_Driver/Src/stm32f4xx_hal_rcc_ex.c ****     while(__HAL_RCC_GET_FLAG(RCC_FLAG_PLLI2SRDY)  != RESET)
 133:../STM32Cube_FW_F4_V1.4.0/Drivers/STM32F4xx_HAL_Driver/Src/stm32f4xx_hal_rcc_ex.c ****     {
 134:../STM32Cube_FW_F4_V1.4.0/Drivers/STM32F4xx_HAL_Driver/Src/stm32f4xx_hal_rcc_ex.c ****       if((HAL_GetTick() - tickstart ) > PLLI2S_TIMEOUT_VALUE)
 135:../STM32Cube_FW_F4_V1.4.0/Drivers/STM32F4xx_HAL_Driver/Src/stm32f4xx_hal_rcc_ex.c ****       {
 136:../STM32Cube_FW_F4_V1.4.0/Drivers/STM32F4xx_HAL_Driver/Src/stm32f4xx_hal_rcc_ex.c ****         /* return in case of Timeout detected */
 137:../STM32Cube_FW_F4_V1.4.0/Drivers/STM32F4xx_HAL_Driver/Src/stm32f4xx_hal_rcc_ex.c ****         return HAL_TIMEOUT;
 138:../STM32Cube_FW_F4_V1.4.0/Drivers/STM32F4xx_HAL_Driver/Src/stm32f4xx_hal_rcc_ex.c ****       }
 139:../STM32Cube_FW_F4_V1.4.0/Drivers/STM32F4xx_HAL_Driver/Src/stm32f4xx_hal_rcc_ex.c ****     }
 140:../STM32Cube_FW_F4_V1.4.0/Drivers/STM32F4xx_HAL_Driver/Src/stm32f4xx_hal_rcc_ex.c ****     
 141:../STM32Cube_FW_F4_V1.4.0/Drivers/STM32F4xx_HAL_Driver/Src/stm32f4xx_hal_rcc_ex.c ****     /*---------------------------- I2S configuration -------------------------------*/
 142:../STM32Cube_FW_F4_V1.4.0/Drivers/STM32F4xx_HAL_Driver/Src/stm32f4xx_hal_rcc_ex.c ****     /* In Case of I2S Clock Configuration through PLLI2S, PLLI2SR must be added   
 143:../STM32Cube_FW_F4_V1.4.0/Drivers/STM32F4xx_HAL_Driver/Src/stm32f4xx_hal_rcc_ex.c ****       only for I2S configuration */     
 144:../STM32Cube_FW_F4_V1.4.0/Drivers/STM32F4xx_HAL_Driver/Src/stm32f4xx_hal_rcc_ex.c ****     if(((PeriphClkInit->PeriphClockSelection) & RCC_PERIPHCLK_I2S) == (RCC_PERIPHCLK_I2S))
 145:../STM32Cube_FW_F4_V1.4.0/Drivers/STM32F4xx_HAL_Driver/Src/stm32f4xx_hal_rcc_ex.c ****     {
 146:../STM32Cube_FW_F4_V1.4.0/Drivers/STM32F4xx_HAL_Driver/Src/stm32f4xx_hal_rcc_ex.c ****       /* check for Parameters */
 147:../STM32Cube_FW_F4_V1.4.0/Drivers/STM32F4xx_HAL_Driver/Src/stm32f4xx_hal_rcc_ex.c ****       assert_param(IS_RCC_PLLI2SR_VALUE(PeriphClkInit->PLLI2S.PLLI2SR));
ARM GAS  C:\cygwin\tmp\cc4kSEDe.s 			page 5


 148:../STM32Cube_FW_F4_V1.4.0/Drivers/STM32F4xx_HAL_Driver/Src/stm32f4xx_hal_rcc_ex.c ****       /* Configure the PLLI2S division factors */
 149:../STM32Cube_FW_F4_V1.4.0/Drivers/STM32F4xx_HAL_Driver/Src/stm32f4xx_hal_rcc_ex.c ****       /* PLLI2S_VCO = f(VCO clock) = f(PLLI2S clock input) × (PLLI2SN/PLLM) */
 150:../STM32Cube_FW_F4_V1.4.0/Drivers/STM32F4xx_HAL_Driver/Src/stm32f4xx_hal_rcc_ex.c ****       /* I2SCLK = f(PLLI2S clock output) = f(VCO clock) / PLLI2SR */
 151:../STM32Cube_FW_F4_V1.4.0/Drivers/STM32F4xx_HAL_Driver/Src/stm32f4xx_hal_rcc_ex.c ****       __HAL_RCC_PLLI2S_CONFIG(PeriphClkInit->PLLI2S.PLLI2SN , PeriphClkInit->PLLI2S.PLLI2SR);
 152:../STM32Cube_FW_F4_V1.4.0/Drivers/STM32F4xx_HAL_Driver/Src/stm32f4xx_hal_rcc_ex.c ****     }
 153:../STM32Cube_FW_F4_V1.4.0/Drivers/STM32F4xx_HAL_Driver/Src/stm32f4xx_hal_rcc_ex.c ****   
 154:../STM32Cube_FW_F4_V1.4.0/Drivers/STM32F4xx_HAL_Driver/Src/stm32f4xx_hal_rcc_ex.c ****     /*---------------------------- SAI configuration -------------------------------*/ 
 155:../STM32Cube_FW_F4_V1.4.0/Drivers/STM32F4xx_HAL_Driver/Src/stm32f4xx_hal_rcc_ex.c ****     /* In Case of SAI Clock Configuration through PLLI2S, PLLI2SQ and PLLI2S_DIVQ must  
 156:../STM32Cube_FW_F4_V1.4.0/Drivers/STM32F4xx_HAL_Driver/Src/stm32f4xx_hal_rcc_ex.c ****        be added only for SAI configuration */     
 157:../STM32Cube_FW_F4_V1.4.0/Drivers/STM32F4xx_HAL_Driver/Src/stm32f4xx_hal_rcc_ex.c ****     if(((PeriphClkInit->PeriphClockSelection) & RCC_PERIPHCLK_SAI_PLLI2S) == (RCC_PERIPHCLK_SAI_PLL
 158:../STM32Cube_FW_F4_V1.4.0/Drivers/STM32F4xx_HAL_Driver/Src/stm32f4xx_hal_rcc_ex.c ****     {
 159:../STM32Cube_FW_F4_V1.4.0/Drivers/STM32F4xx_HAL_Driver/Src/stm32f4xx_hal_rcc_ex.c ****       /* Check the PLLI2S division factors */
 160:../STM32Cube_FW_F4_V1.4.0/Drivers/STM32F4xx_HAL_Driver/Src/stm32f4xx_hal_rcc_ex.c ****       assert_param(IS_RCC_PLLI2SQ_VALUE(PeriphClkInit->PLLI2S.PLLI2SQ));
 161:../STM32Cube_FW_F4_V1.4.0/Drivers/STM32F4xx_HAL_Driver/Src/stm32f4xx_hal_rcc_ex.c ****       assert_param(IS_RCC_PLLI2S_DIVQ_VALUE(PeriphClkInit->PLLI2SDivQ));
 162:../STM32Cube_FW_F4_V1.4.0/Drivers/STM32F4xx_HAL_Driver/Src/stm32f4xx_hal_rcc_ex.c ****       
 163:../STM32Cube_FW_F4_V1.4.0/Drivers/STM32F4xx_HAL_Driver/Src/stm32f4xx_hal_rcc_ex.c ****       /* Read PLLI2SR value from PLLI2SCFGR register (this value is not need for SAI configuration)
 164:../STM32Cube_FW_F4_V1.4.0/Drivers/STM32F4xx_HAL_Driver/Src/stm32f4xx_hal_rcc_ex.c ****       tmpreg = ((RCC->PLLI2SCFGR & RCC_PLLI2SCFGR_PLLI2SR) >> POSITION_VAL(RCC_PLLI2SCFGR_PLLI2SR))
 165:../STM32Cube_FW_F4_V1.4.0/Drivers/STM32F4xx_HAL_Driver/Src/stm32f4xx_hal_rcc_ex.c ****       /* Configure the PLLI2S division factors */      
 166:../STM32Cube_FW_F4_V1.4.0/Drivers/STM32F4xx_HAL_Driver/Src/stm32f4xx_hal_rcc_ex.c ****       /* PLLI2S_VCO Input  = PLL_SOURCE/PLLM */
 167:../STM32Cube_FW_F4_V1.4.0/Drivers/STM32F4xx_HAL_Driver/Src/stm32f4xx_hal_rcc_ex.c ****       /* PLLI2S_VCO Output = PLLI2S_VCO Input * PLLI2SN */
 168:../STM32Cube_FW_F4_V1.4.0/Drivers/STM32F4xx_HAL_Driver/Src/stm32f4xx_hal_rcc_ex.c ****       /* SAI_CLK(first level) = PLLI2S_VCO Output/PLLI2SQ */
 169:../STM32Cube_FW_F4_V1.4.0/Drivers/STM32F4xx_HAL_Driver/Src/stm32f4xx_hal_rcc_ex.c ****       __HAL_RCC_PLLI2S_SAICLK_CONFIG(PeriphClkInit->PLLI2S.PLLI2SN , PeriphClkInit->PLLI2S.PLLI2SQ 
 170:../STM32Cube_FW_F4_V1.4.0/Drivers/STM32F4xx_HAL_Driver/Src/stm32f4xx_hal_rcc_ex.c ****       /* SAI_CLK_x = SAI_CLK(first level)/PLLI2SDIVQ */ 
 171:../STM32Cube_FW_F4_V1.4.0/Drivers/STM32F4xx_HAL_Driver/Src/stm32f4xx_hal_rcc_ex.c ****       __HAL_RCC_PLLI2S_PLLSAICLKDIVQ_CONFIG(PeriphClkInit->PLLI2SDivQ);
 172:../STM32Cube_FW_F4_V1.4.0/Drivers/STM32F4xx_HAL_Driver/Src/stm32f4xx_hal_rcc_ex.c ****     }
 173:../STM32Cube_FW_F4_V1.4.0/Drivers/STM32F4xx_HAL_Driver/Src/stm32f4xx_hal_rcc_ex.c ****     
 174:../STM32Cube_FW_F4_V1.4.0/Drivers/STM32F4xx_HAL_Driver/Src/stm32f4xx_hal_rcc_ex.c ****     /* Enable the PLLI2S */
 175:../STM32Cube_FW_F4_V1.4.0/Drivers/STM32F4xx_HAL_Driver/Src/stm32f4xx_hal_rcc_ex.c ****     __HAL_RCC_PLLI2S_ENABLE();
 176:../STM32Cube_FW_F4_V1.4.0/Drivers/STM32F4xx_HAL_Driver/Src/stm32f4xx_hal_rcc_ex.c ****     /* Get tick */
 177:../STM32Cube_FW_F4_V1.4.0/Drivers/STM32F4xx_HAL_Driver/Src/stm32f4xx_hal_rcc_ex.c ****     tickstart = HAL_GetTick();
 178:../STM32Cube_FW_F4_V1.4.0/Drivers/STM32F4xx_HAL_Driver/Src/stm32f4xx_hal_rcc_ex.c ****     /* Wait till PLLI2S is ready */
 179:../STM32Cube_FW_F4_V1.4.0/Drivers/STM32F4xx_HAL_Driver/Src/stm32f4xx_hal_rcc_ex.c ****     while(__HAL_RCC_GET_FLAG(RCC_FLAG_PLLI2SRDY)  == RESET)
 180:../STM32Cube_FW_F4_V1.4.0/Drivers/STM32F4xx_HAL_Driver/Src/stm32f4xx_hal_rcc_ex.c ****     {
 181:../STM32Cube_FW_F4_V1.4.0/Drivers/STM32F4xx_HAL_Driver/Src/stm32f4xx_hal_rcc_ex.c ****       if((HAL_GetTick() - tickstart ) > PLLI2S_TIMEOUT_VALUE)
 182:../STM32Cube_FW_F4_V1.4.0/Drivers/STM32F4xx_HAL_Driver/Src/stm32f4xx_hal_rcc_ex.c ****       {
 183:../STM32Cube_FW_F4_V1.4.0/Drivers/STM32F4xx_HAL_Driver/Src/stm32f4xx_hal_rcc_ex.c ****         /* return in case of Timeout detected */
 184:../STM32Cube_FW_F4_V1.4.0/Drivers/STM32F4xx_HAL_Driver/Src/stm32f4xx_hal_rcc_ex.c ****         return HAL_TIMEOUT;
 185:../STM32Cube_FW_F4_V1.4.0/Drivers/STM32F4xx_HAL_Driver/Src/stm32f4xx_hal_rcc_ex.c ****       }
 186:../STM32Cube_FW_F4_V1.4.0/Drivers/STM32F4xx_HAL_Driver/Src/stm32f4xx_hal_rcc_ex.c ****     }
 187:../STM32Cube_FW_F4_V1.4.0/Drivers/STM32F4xx_HAL_Driver/Src/stm32f4xx_hal_rcc_ex.c ****   }
 188:../STM32Cube_FW_F4_V1.4.0/Drivers/STM32F4xx_HAL_Driver/Src/stm32f4xx_hal_rcc_ex.c ****   
 189:../STM32Cube_FW_F4_V1.4.0/Drivers/STM32F4xx_HAL_Driver/Src/stm32f4xx_hal_rcc_ex.c ****   /*----------------------- SAI/LTDC Configuration (PLLSAI) ------------------*/
 190:../STM32Cube_FW_F4_V1.4.0/Drivers/STM32F4xx_HAL_Driver/Src/stm32f4xx_hal_rcc_ex.c ****   
 191:../STM32Cube_FW_F4_V1.4.0/Drivers/STM32F4xx_HAL_Driver/Src/stm32f4xx_hal_rcc_ex.c ****   /*----------------------- Common configuration SAI/LTDC --------------------*/
 192:../STM32Cube_FW_F4_V1.4.0/Drivers/STM32F4xx_HAL_Driver/Src/stm32f4xx_hal_rcc_ex.c ****   /* In Case of SAI or LTDC Clock Configuration through PLLSAI, PLLSAIN division
 193:../STM32Cube_FW_F4_V1.4.0/Drivers/STM32F4xx_HAL_Driver/Src/stm32f4xx_hal_rcc_ex.c ****      factor is common parameters for both peripherals */ 
 194:../STM32Cube_FW_F4_V1.4.0/Drivers/STM32F4xx_HAL_Driver/Src/stm32f4xx_hal_rcc_ex.c ****   if((((PeriphClkInit->PeriphClockSelection) & RCC_PERIPHCLK_SAI_PLLSAI) == RCC_PERIPHCLK_SAI_PLLSA
 195:../STM32Cube_FW_F4_V1.4.0/Drivers/STM32F4xx_HAL_Driver/Src/stm32f4xx_hal_rcc_ex.c ****      (((PeriphClkInit->PeriphClockSelection) & RCC_PERIPHCLK_LTDC) == RCC_PERIPHCLK_LTDC))
 196:../STM32Cube_FW_F4_V1.4.0/Drivers/STM32F4xx_HAL_Driver/Src/stm32f4xx_hal_rcc_ex.c ****   {
 197:../STM32Cube_FW_F4_V1.4.0/Drivers/STM32F4xx_HAL_Driver/Src/stm32f4xx_hal_rcc_ex.c ****     /* Check the PLLSAI division factors */
 198:../STM32Cube_FW_F4_V1.4.0/Drivers/STM32F4xx_HAL_Driver/Src/stm32f4xx_hal_rcc_ex.c ****     assert_param(IS_RCC_PLLSAIN_VALUE(PeriphClkInit->PLLSAI.PLLSAIN));
 199:../STM32Cube_FW_F4_V1.4.0/Drivers/STM32F4xx_HAL_Driver/Src/stm32f4xx_hal_rcc_ex.c ****  
 200:../STM32Cube_FW_F4_V1.4.0/Drivers/STM32F4xx_HAL_Driver/Src/stm32f4xx_hal_rcc_ex.c ****     /* Disable PLLSAI Clock */
 201:../STM32Cube_FW_F4_V1.4.0/Drivers/STM32F4xx_HAL_Driver/Src/stm32f4xx_hal_rcc_ex.c ****     __HAL_RCC_PLLSAI_DISABLE(); 
 202:../STM32Cube_FW_F4_V1.4.0/Drivers/STM32F4xx_HAL_Driver/Src/stm32f4xx_hal_rcc_ex.c ****     /* Get tick */
 203:../STM32Cube_FW_F4_V1.4.0/Drivers/STM32F4xx_HAL_Driver/Src/stm32f4xx_hal_rcc_ex.c ****     tickstart = HAL_GetTick();
 204:../STM32Cube_FW_F4_V1.4.0/Drivers/STM32F4xx_HAL_Driver/Src/stm32f4xx_hal_rcc_ex.c ****     /* Wait till PLLSAI is disabled */
ARM GAS  C:\cygwin\tmp\cc4kSEDe.s 			page 6


 205:../STM32Cube_FW_F4_V1.4.0/Drivers/STM32F4xx_HAL_Driver/Src/stm32f4xx_hal_rcc_ex.c ****     while(__HAL_RCC_PLLSAI_GET_FLAG() != RESET)
 206:../STM32Cube_FW_F4_V1.4.0/Drivers/STM32F4xx_HAL_Driver/Src/stm32f4xx_hal_rcc_ex.c ****     {
 207:../STM32Cube_FW_F4_V1.4.0/Drivers/STM32F4xx_HAL_Driver/Src/stm32f4xx_hal_rcc_ex.c ****       if((HAL_GetTick() - tickstart ) > PLLSAI_TIMEOUT_VALUE)
 208:../STM32Cube_FW_F4_V1.4.0/Drivers/STM32F4xx_HAL_Driver/Src/stm32f4xx_hal_rcc_ex.c ****       { 
 209:../STM32Cube_FW_F4_V1.4.0/Drivers/STM32F4xx_HAL_Driver/Src/stm32f4xx_hal_rcc_ex.c ****         /* return in case of Timeout detected */
 210:../STM32Cube_FW_F4_V1.4.0/Drivers/STM32F4xx_HAL_Driver/Src/stm32f4xx_hal_rcc_ex.c ****         return HAL_TIMEOUT;
 211:../STM32Cube_FW_F4_V1.4.0/Drivers/STM32F4xx_HAL_Driver/Src/stm32f4xx_hal_rcc_ex.c ****       }
 212:../STM32Cube_FW_F4_V1.4.0/Drivers/STM32F4xx_HAL_Driver/Src/stm32f4xx_hal_rcc_ex.c ****     }
 213:../STM32Cube_FW_F4_V1.4.0/Drivers/STM32F4xx_HAL_Driver/Src/stm32f4xx_hal_rcc_ex.c ****     
 214:../STM32Cube_FW_F4_V1.4.0/Drivers/STM32F4xx_HAL_Driver/Src/stm32f4xx_hal_rcc_ex.c ****     /*---------------------------- SAI configuration -------------------------*/
 215:../STM32Cube_FW_F4_V1.4.0/Drivers/STM32F4xx_HAL_Driver/Src/stm32f4xx_hal_rcc_ex.c ****     /* In Case of SAI Clock Configuration through PLLSAI, PLLSAIQ and PLLSAI_DIVQ must  
 216:../STM32Cube_FW_F4_V1.4.0/Drivers/STM32F4xx_HAL_Driver/Src/stm32f4xx_hal_rcc_ex.c ****        be added only for SAI configuration */     
 217:../STM32Cube_FW_F4_V1.4.0/Drivers/STM32F4xx_HAL_Driver/Src/stm32f4xx_hal_rcc_ex.c ****     if(((PeriphClkInit->PeriphClockSelection) & RCC_PERIPHCLK_SAI_PLLSAI) == (RCC_PERIPHCLK_SAI_PLL
 218:../STM32Cube_FW_F4_V1.4.0/Drivers/STM32F4xx_HAL_Driver/Src/stm32f4xx_hal_rcc_ex.c ****     {
 219:../STM32Cube_FW_F4_V1.4.0/Drivers/STM32F4xx_HAL_Driver/Src/stm32f4xx_hal_rcc_ex.c ****       assert_param(IS_RCC_PLLSAIQ_VALUE(PeriphClkInit->PLLSAI.PLLSAIQ));
 220:../STM32Cube_FW_F4_V1.4.0/Drivers/STM32F4xx_HAL_Driver/Src/stm32f4xx_hal_rcc_ex.c ****       assert_param(IS_RCC_PLLSAI_DIVQ_VALUE(PeriphClkInit->PLLSAIDivQ));
 221:../STM32Cube_FW_F4_V1.4.0/Drivers/STM32F4xx_HAL_Driver/Src/stm32f4xx_hal_rcc_ex.c ****       
 222:../STM32Cube_FW_F4_V1.4.0/Drivers/STM32F4xx_HAL_Driver/Src/stm32f4xx_hal_rcc_ex.c ****       /* Read PLLSAIR value from PLLSAICFGR register (this value is not need for SAI configuration)
 223:../STM32Cube_FW_F4_V1.4.0/Drivers/STM32F4xx_HAL_Driver/Src/stm32f4xx_hal_rcc_ex.c ****       tmpreg = ((RCC->PLLSAICFGR & RCC_PLLSAICFGR_PLLSAIR) >> POSITION_VAL(RCC_PLLSAICFGR_PLLSAIR))
 224:../STM32Cube_FW_F4_V1.4.0/Drivers/STM32F4xx_HAL_Driver/Src/stm32f4xx_hal_rcc_ex.c ****       /* PLLSAI_VCO Input  = PLL_SOURCE/PLLM */
 225:../STM32Cube_FW_F4_V1.4.0/Drivers/STM32F4xx_HAL_Driver/Src/stm32f4xx_hal_rcc_ex.c ****       /* PLLSAI_VCO Output = PLLSAI_VCO Input * PLLSAIN */
 226:../STM32Cube_FW_F4_V1.4.0/Drivers/STM32F4xx_HAL_Driver/Src/stm32f4xx_hal_rcc_ex.c ****       /* SAI_CLK(first level) = PLLSAI_VCO Output/PLLSAIQ */
 227:../STM32Cube_FW_F4_V1.4.0/Drivers/STM32F4xx_HAL_Driver/Src/stm32f4xx_hal_rcc_ex.c ****       __HAL_RCC_PLLSAI_CONFIG(PeriphClkInit->PLLSAI.PLLSAIN , PeriphClkInit->PLLSAI.PLLSAIQ, tmpreg
 228:../STM32Cube_FW_F4_V1.4.0/Drivers/STM32F4xx_HAL_Driver/Src/stm32f4xx_hal_rcc_ex.c ****       /* SAI_CLK_x = SAI_CLK(first level)/PLLSAIDIVQ */ 
 229:../STM32Cube_FW_F4_V1.4.0/Drivers/STM32F4xx_HAL_Driver/Src/stm32f4xx_hal_rcc_ex.c ****       __HAL_RCC_PLLSAI_PLLSAICLKDIVQ_CONFIG(PeriphClkInit->PLLSAIDivQ);
 230:../STM32Cube_FW_F4_V1.4.0/Drivers/STM32F4xx_HAL_Driver/Src/stm32f4xx_hal_rcc_ex.c ****     }
 231:../STM32Cube_FW_F4_V1.4.0/Drivers/STM32F4xx_HAL_Driver/Src/stm32f4xx_hal_rcc_ex.c ****     
 232:../STM32Cube_FW_F4_V1.4.0/Drivers/STM32F4xx_HAL_Driver/Src/stm32f4xx_hal_rcc_ex.c ****     /*---------------------------- LTDC configuration ------------------------*/
 233:../STM32Cube_FW_F4_V1.4.0/Drivers/STM32F4xx_HAL_Driver/Src/stm32f4xx_hal_rcc_ex.c ****     if(((PeriphClkInit->PeriphClockSelection) & RCC_PERIPHCLK_LTDC) == (RCC_PERIPHCLK_LTDC))
 234:../STM32Cube_FW_F4_V1.4.0/Drivers/STM32F4xx_HAL_Driver/Src/stm32f4xx_hal_rcc_ex.c ****     {
 235:../STM32Cube_FW_F4_V1.4.0/Drivers/STM32F4xx_HAL_Driver/Src/stm32f4xx_hal_rcc_ex.c ****       assert_param(IS_RCC_PLLSAIR_VALUE(PeriphClkInit->PLLSAI.PLLSAIR));
 236:../STM32Cube_FW_F4_V1.4.0/Drivers/STM32F4xx_HAL_Driver/Src/stm32f4xx_hal_rcc_ex.c ****       assert_param(IS_RCC_PLLSAI_DIVR_VALUE(PeriphClkInit->PLLSAIDivR));
 237:../STM32Cube_FW_F4_V1.4.0/Drivers/STM32F4xx_HAL_Driver/Src/stm32f4xx_hal_rcc_ex.c ****       
 238:../STM32Cube_FW_F4_V1.4.0/Drivers/STM32F4xx_HAL_Driver/Src/stm32f4xx_hal_rcc_ex.c ****       /* Read PLLSAIR value from PLLSAICFGR register (this value is not need for SAI configuration)
 239:../STM32Cube_FW_F4_V1.4.0/Drivers/STM32F4xx_HAL_Driver/Src/stm32f4xx_hal_rcc_ex.c ****       tmpreg = ((RCC->PLLSAICFGR & RCC_PLLSAICFGR_PLLSAIQ) >> POSITION_VAL(RCC_PLLSAICFGR_PLLSAIQ))
 240:../STM32Cube_FW_F4_V1.4.0/Drivers/STM32F4xx_HAL_Driver/Src/stm32f4xx_hal_rcc_ex.c ****       /* PLLSAI_VCO Input  = PLL_SOURCE/PLLM */
 241:../STM32Cube_FW_F4_V1.4.0/Drivers/STM32F4xx_HAL_Driver/Src/stm32f4xx_hal_rcc_ex.c ****       /* PLLSAI_VCO Output = PLLSAI_VCO Input * PLLSAIN */
 242:../STM32Cube_FW_F4_V1.4.0/Drivers/STM32F4xx_HAL_Driver/Src/stm32f4xx_hal_rcc_ex.c ****       /* LTDC_CLK(first level) = PLLSAI_VCO Output/PLLSAIR */
 243:../STM32Cube_FW_F4_V1.4.0/Drivers/STM32F4xx_HAL_Driver/Src/stm32f4xx_hal_rcc_ex.c ****       __HAL_RCC_PLLSAI_CONFIG(PeriphClkInit->PLLSAI.PLLSAIN , tmpreg, PeriphClkInit->PLLSAI.PLLSAIR
 244:../STM32Cube_FW_F4_V1.4.0/Drivers/STM32F4xx_HAL_Driver/Src/stm32f4xx_hal_rcc_ex.c ****       /* LTDC_CLK = LTDC_CLK(first level)/PLLSAIDIVR */ 
 245:../STM32Cube_FW_F4_V1.4.0/Drivers/STM32F4xx_HAL_Driver/Src/stm32f4xx_hal_rcc_ex.c ****       __HAL_RCC_PLLSAI_PLLSAICLKDIVR_CONFIG(PeriphClkInit->PLLSAIDivR);
 246:../STM32Cube_FW_F4_V1.4.0/Drivers/STM32F4xx_HAL_Driver/Src/stm32f4xx_hal_rcc_ex.c ****     }    
 247:../STM32Cube_FW_F4_V1.4.0/Drivers/STM32F4xx_HAL_Driver/Src/stm32f4xx_hal_rcc_ex.c ****     /* Enable PLLSAI Clock */
 248:../STM32Cube_FW_F4_V1.4.0/Drivers/STM32F4xx_HAL_Driver/Src/stm32f4xx_hal_rcc_ex.c ****     __HAL_RCC_PLLSAI_ENABLE();
 249:../STM32Cube_FW_F4_V1.4.0/Drivers/STM32F4xx_HAL_Driver/Src/stm32f4xx_hal_rcc_ex.c ****     /* Get tick */
 250:../STM32Cube_FW_F4_V1.4.0/Drivers/STM32F4xx_HAL_Driver/Src/stm32f4xx_hal_rcc_ex.c ****     tickstart = HAL_GetTick();
 251:../STM32Cube_FW_F4_V1.4.0/Drivers/STM32F4xx_HAL_Driver/Src/stm32f4xx_hal_rcc_ex.c ****     /* Wait till PLLSAI is ready */
 252:../STM32Cube_FW_F4_V1.4.0/Drivers/STM32F4xx_HAL_Driver/Src/stm32f4xx_hal_rcc_ex.c ****     while(__HAL_RCC_PLLSAI_GET_FLAG() == RESET)
 253:../STM32Cube_FW_F4_V1.4.0/Drivers/STM32F4xx_HAL_Driver/Src/stm32f4xx_hal_rcc_ex.c ****     {
 254:../STM32Cube_FW_F4_V1.4.0/Drivers/STM32F4xx_HAL_Driver/Src/stm32f4xx_hal_rcc_ex.c ****       if((HAL_GetTick() - tickstart ) > PLLSAI_TIMEOUT_VALUE)
 255:../STM32Cube_FW_F4_V1.4.0/Drivers/STM32F4xx_HAL_Driver/Src/stm32f4xx_hal_rcc_ex.c ****       { 
 256:../STM32Cube_FW_F4_V1.4.0/Drivers/STM32F4xx_HAL_Driver/Src/stm32f4xx_hal_rcc_ex.c ****         /* return in case of Timeout detected */
 257:../STM32Cube_FW_F4_V1.4.0/Drivers/STM32F4xx_HAL_Driver/Src/stm32f4xx_hal_rcc_ex.c ****         return HAL_TIMEOUT;
 258:../STM32Cube_FW_F4_V1.4.0/Drivers/STM32F4xx_HAL_Driver/Src/stm32f4xx_hal_rcc_ex.c ****       }
 259:../STM32Cube_FW_F4_V1.4.0/Drivers/STM32F4xx_HAL_Driver/Src/stm32f4xx_hal_rcc_ex.c ****     }  
 260:../STM32Cube_FW_F4_V1.4.0/Drivers/STM32F4xx_HAL_Driver/Src/stm32f4xx_hal_rcc_ex.c ****   }
 261:../STM32Cube_FW_F4_V1.4.0/Drivers/STM32F4xx_HAL_Driver/Src/stm32f4xx_hal_rcc_ex.c **** 
ARM GAS  C:\cygwin\tmp\cc4kSEDe.s 			page 7


 262:../STM32Cube_FW_F4_V1.4.0/Drivers/STM32F4xx_HAL_Driver/Src/stm32f4xx_hal_rcc_ex.c ****    
 263:../STM32Cube_FW_F4_V1.4.0/Drivers/STM32F4xx_HAL_Driver/Src/stm32f4xx_hal_rcc_ex.c ****   /*---------------------------- RTC configuration ---------------------------*/
 264:../STM32Cube_FW_F4_V1.4.0/Drivers/STM32F4xx_HAL_Driver/Src/stm32f4xx_hal_rcc_ex.c ****   if(((PeriphClkInit->PeriphClockSelection) & RCC_PERIPHCLK_RTC) == (RCC_PERIPHCLK_RTC))
 265:../STM32Cube_FW_F4_V1.4.0/Drivers/STM32F4xx_HAL_Driver/Src/stm32f4xx_hal_rcc_ex.c ****   {
 266:../STM32Cube_FW_F4_V1.4.0/Drivers/STM32F4xx_HAL_Driver/Src/stm32f4xx_hal_rcc_ex.c ****     /* Enable Power Clock*/
 267:../STM32Cube_FW_F4_V1.4.0/Drivers/STM32F4xx_HAL_Driver/Src/stm32f4xx_hal_rcc_ex.c ****     __HAL_RCC_PWR_CLK_ENABLE();
 268:../STM32Cube_FW_F4_V1.4.0/Drivers/STM32F4xx_HAL_Driver/Src/stm32f4xx_hal_rcc_ex.c ****     
 269:../STM32Cube_FW_F4_V1.4.0/Drivers/STM32F4xx_HAL_Driver/Src/stm32f4xx_hal_rcc_ex.c ****     /* Enable write access to Backup domain */
 270:../STM32Cube_FW_F4_V1.4.0/Drivers/STM32F4xx_HAL_Driver/Src/stm32f4xx_hal_rcc_ex.c ****     PWR->CR |= PWR_CR_DBP;
 271:../STM32Cube_FW_F4_V1.4.0/Drivers/STM32F4xx_HAL_Driver/Src/stm32f4xx_hal_rcc_ex.c ****     
 272:../STM32Cube_FW_F4_V1.4.0/Drivers/STM32F4xx_HAL_Driver/Src/stm32f4xx_hal_rcc_ex.c ****     /* Get tick */
 273:../STM32Cube_FW_F4_V1.4.0/Drivers/STM32F4xx_HAL_Driver/Src/stm32f4xx_hal_rcc_ex.c ****     tickstart = HAL_GetTick();
 274:../STM32Cube_FW_F4_V1.4.0/Drivers/STM32F4xx_HAL_Driver/Src/stm32f4xx_hal_rcc_ex.c ****     
 275:../STM32Cube_FW_F4_V1.4.0/Drivers/STM32F4xx_HAL_Driver/Src/stm32f4xx_hal_rcc_ex.c ****     while((PWR->CR & PWR_CR_DBP) == RESET)
 276:../STM32Cube_FW_F4_V1.4.0/Drivers/STM32F4xx_HAL_Driver/Src/stm32f4xx_hal_rcc_ex.c ****     {
 277:../STM32Cube_FW_F4_V1.4.0/Drivers/STM32F4xx_HAL_Driver/Src/stm32f4xx_hal_rcc_ex.c ****       if((HAL_GetTick() - tickstart ) > RCC_DBP_TIMEOUT_VALUE)
 278:../STM32Cube_FW_F4_V1.4.0/Drivers/STM32F4xx_HAL_Driver/Src/stm32f4xx_hal_rcc_ex.c ****       {
 279:../STM32Cube_FW_F4_V1.4.0/Drivers/STM32F4xx_HAL_Driver/Src/stm32f4xx_hal_rcc_ex.c ****         return HAL_TIMEOUT;
 280:../STM32Cube_FW_F4_V1.4.0/Drivers/STM32F4xx_HAL_Driver/Src/stm32f4xx_hal_rcc_ex.c ****       }      
 281:../STM32Cube_FW_F4_V1.4.0/Drivers/STM32F4xx_HAL_Driver/Src/stm32f4xx_hal_rcc_ex.c ****     }
 282:../STM32Cube_FW_F4_V1.4.0/Drivers/STM32F4xx_HAL_Driver/Src/stm32f4xx_hal_rcc_ex.c ****     
 283:../STM32Cube_FW_F4_V1.4.0/Drivers/STM32F4xx_HAL_Driver/Src/stm32f4xx_hal_rcc_ex.c ****     /* Reset the Backup domain only if the RTC Clock source selection is modified */ 
 284:../STM32Cube_FW_F4_V1.4.0/Drivers/STM32F4xx_HAL_Driver/Src/stm32f4xx_hal_rcc_ex.c ****     if((RCC->BDCR & RCC_BDCR_RTCSEL) != (PeriphClkInit->RTCClockSelection & RCC_BDCR_RTCSEL))
 285:../STM32Cube_FW_F4_V1.4.0/Drivers/STM32F4xx_HAL_Driver/Src/stm32f4xx_hal_rcc_ex.c ****     {
 286:../STM32Cube_FW_F4_V1.4.0/Drivers/STM32F4xx_HAL_Driver/Src/stm32f4xx_hal_rcc_ex.c ****       /* Store the content of BDCR register before the reset of Backup Domain */
 287:../STM32Cube_FW_F4_V1.4.0/Drivers/STM32F4xx_HAL_Driver/Src/stm32f4xx_hal_rcc_ex.c ****       tmpreg = (RCC->BDCR & ~(RCC_BDCR_RTCSEL));
 288:../STM32Cube_FW_F4_V1.4.0/Drivers/STM32F4xx_HAL_Driver/Src/stm32f4xx_hal_rcc_ex.c ****       /* RTC Clock selection can be changed only if the Backup Domain is reset */
 289:../STM32Cube_FW_F4_V1.4.0/Drivers/STM32F4xx_HAL_Driver/Src/stm32f4xx_hal_rcc_ex.c ****       __HAL_RCC_BACKUPRESET_FORCE();
 290:../STM32Cube_FW_F4_V1.4.0/Drivers/STM32F4xx_HAL_Driver/Src/stm32f4xx_hal_rcc_ex.c ****       __HAL_RCC_BACKUPRESET_RELEASE();
 291:../STM32Cube_FW_F4_V1.4.0/Drivers/STM32F4xx_HAL_Driver/Src/stm32f4xx_hal_rcc_ex.c ****       /* Restore the Content of BDCR register */
 292:../STM32Cube_FW_F4_V1.4.0/Drivers/STM32F4xx_HAL_Driver/Src/stm32f4xx_hal_rcc_ex.c ****       RCC->BDCR = tmpreg;
 293:../STM32Cube_FW_F4_V1.4.0/Drivers/STM32F4xx_HAL_Driver/Src/stm32f4xx_hal_rcc_ex.c ****     }
 294:../STM32Cube_FW_F4_V1.4.0/Drivers/STM32F4xx_HAL_Driver/Src/stm32f4xx_hal_rcc_ex.c ****     
 295:../STM32Cube_FW_F4_V1.4.0/Drivers/STM32F4xx_HAL_Driver/Src/stm32f4xx_hal_rcc_ex.c ****     /* If LSE is selected as RTC clock source, wait for LSE reactivation */
 296:../STM32Cube_FW_F4_V1.4.0/Drivers/STM32F4xx_HAL_Driver/Src/stm32f4xx_hal_rcc_ex.c ****     if(PeriphClkInit->RTCClockSelection == RCC_RTCCLKSOURCE_LSE)
 297:../STM32Cube_FW_F4_V1.4.0/Drivers/STM32F4xx_HAL_Driver/Src/stm32f4xx_hal_rcc_ex.c ****     {
 298:../STM32Cube_FW_F4_V1.4.0/Drivers/STM32F4xx_HAL_Driver/Src/stm32f4xx_hal_rcc_ex.c ****       /* Get tick */
 299:../STM32Cube_FW_F4_V1.4.0/Drivers/STM32F4xx_HAL_Driver/Src/stm32f4xx_hal_rcc_ex.c ****       tickstart = HAL_GetTick();
 300:../STM32Cube_FW_F4_V1.4.0/Drivers/STM32F4xx_HAL_Driver/Src/stm32f4xx_hal_rcc_ex.c ****       
 301:../STM32Cube_FW_F4_V1.4.0/Drivers/STM32F4xx_HAL_Driver/Src/stm32f4xx_hal_rcc_ex.c ****       /* Wait till LSE is ready */  
 302:../STM32Cube_FW_F4_V1.4.0/Drivers/STM32F4xx_HAL_Driver/Src/stm32f4xx_hal_rcc_ex.c ****       while(__HAL_RCC_GET_FLAG(RCC_FLAG_LSERDY) == RESET)
 303:../STM32Cube_FW_F4_V1.4.0/Drivers/STM32F4xx_HAL_Driver/Src/stm32f4xx_hal_rcc_ex.c ****       {
 304:../STM32Cube_FW_F4_V1.4.0/Drivers/STM32F4xx_HAL_Driver/Src/stm32f4xx_hal_rcc_ex.c ****         if((HAL_GetTick() - tickstart ) > RCC_LSE_TIMEOUT_VALUE)
 305:../STM32Cube_FW_F4_V1.4.0/Drivers/STM32F4xx_HAL_Driver/Src/stm32f4xx_hal_rcc_ex.c ****         {
 306:../STM32Cube_FW_F4_V1.4.0/Drivers/STM32F4xx_HAL_Driver/Src/stm32f4xx_hal_rcc_ex.c ****           return HAL_TIMEOUT;
 307:../STM32Cube_FW_F4_V1.4.0/Drivers/STM32F4xx_HAL_Driver/Src/stm32f4xx_hal_rcc_ex.c ****         }      
 308:../STM32Cube_FW_F4_V1.4.0/Drivers/STM32F4xx_HAL_Driver/Src/stm32f4xx_hal_rcc_ex.c ****       }  
 309:../STM32Cube_FW_F4_V1.4.0/Drivers/STM32F4xx_HAL_Driver/Src/stm32f4xx_hal_rcc_ex.c ****     }
 310:../STM32Cube_FW_F4_V1.4.0/Drivers/STM32F4xx_HAL_Driver/Src/stm32f4xx_hal_rcc_ex.c ****     __HAL_RCC_RTC_CONFIG(PeriphClkInit->RTCClockSelection); 
 311:../STM32Cube_FW_F4_V1.4.0/Drivers/STM32F4xx_HAL_Driver/Src/stm32f4xx_hal_rcc_ex.c ****   }
 312:../STM32Cube_FW_F4_V1.4.0/Drivers/STM32F4xx_HAL_Driver/Src/stm32f4xx_hal_rcc_ex.c ****   
 313:../STM32Cube_FW_F4_V1.4.0/Drivers/STM32F4xx_HAL_Driver/Src/stm32f4xx_hal_rcc_ex.c ****   /*---------------------------- TIM configuration ---------------------------*/
 314:../STM32Cube_FW_F4_V1.4.0/Drivers/STM32F4xx_HAL_Driver/Src/stm32f4xx_hal_rcc_ex.c ****   if(((PeriphClkInit->PeriphClockSelection) & RCC_PERIPHCLK_TIM) == (RCC_PERIPHCLK_TIM))
 315:../STM32Cube_FW_F4_V1.4.0/Drivers/STM32F4xx_HAL_Driver/Src/stm32f4xx_hal_rcc_ex.c ****   {
 316:../STM32Cube_FW_F4_V1.4.0/Drivers/STM32F4xx_HAL_Driver/Src/stm32f4xx_hal_rcc_ex.c ****     __HAL_RCC_TIMCLKPRESCALER(PeriphClkInit->TIMPresSelection);
 317:../STM32Cube_FW_F4_V1.4.0/Drivers/STM32F4xx_HAL_Driver/Src/stm32f4xx_hal_rcc_ex.c ****   }
 318:../STM32Cube_FW_F4_V1.4.0/Drivers/STM32F4xx_HAL_Driver/Src/stm32f4xx_hal_rcc_ex.c ****   return HAL_OK;
ARM GAS  C:\cygwin\tmp\cc4kSEDe.s 			page 8


 319:../STM32Cube_FW_F4_V1.4.0/Drivers/STM32F4xx_HAL_Driver/Src/stm32f4xx_hal_rcc_ex.c **** }
 320:../STM32Cube_FW_F4_V1.4.0/Drivers/STM32F4xx_HAL_Driver/Src/stm32f4xx_hal_rcc_ex.c **** 
 321:../STM32Cube_FW_F4_V1.4.0/Drivers/STM32F4xx_HAL_Driver/Src/stm32f4xx_hal_rcc_ex.c **** /**
 322:../STM32Cube_FW_F4_V1.4.0/Drivers/STM32F4xx_HAL_Driver/Src/stm32f4xx_hal_rcc_ex.c ****   * @brief  Configures the RCC_OscInitStruct according to the internal 
 323:../STM32Cube_FW_F4_V1.4.0/Drivers/STM32F4xx_HAL_Driver/Src/stm32f4xx_hal_rcc_ex.c ****   * RCC configuration registers.
 324:../STM32Cube_FW_F4_V1.4.0/Drivers/STM32F4xx_HAL_Driver/Src/stm32f4xx_hal_rcc_ex.c ****   * @param  PeriphClkInit: pointer to an RCC_PeriphCLKInitTypeDef structure that 
 325:../STM32Cube_FW_F4_V1.4.0/Drivers/STM32F4xx_HAL_Driver/Src/stm32f4xx_hal_rcc_ex.c ****   *         will be configured.
 326:../STM32Cube_FW_F4_V1.4.0/Drivers/STM32F4xx_HAL_Driver/Src/stm32f4xx_hal_rcc_ex.c ****   * @retval None
 327:../STM32Cube_FW_F4_V1.4.0/Drivers/STM32F4xx_HAL_Driver/Src/stm32f4xx_hal_rcc_ex.c ****   */
 328:../STM32Cube_FW_F4_V1.4.0/Drivers/STM32F4xx_HAL_Driver/Src/stm32f4xx_hal_rcc_ex.c **** void HAL_RCCEx_GetPeriphCLKConfig(RCC_PeriphCLKInitTypeDef  *PeriphClkInit)
 329:../STM32Cube_FW_F4_V1.4.0/Drivers/STM32F4xx_HAL_Driver/Src/stm32f4xx_hal_rcc_ex.c **** {
 330:../STM32Cube_FW_F4_V1.4.0/Drivers/STM32F4xx_HAL_Driver/Src/stm32f4xx_hal_rcc_ex.c ****   uint32_t tempreg;
 331:../STM32Cube_FW_F4_V1.4.0/Drivers/STM32F4xx_HAL_Driver/Src/stm32f4xx_hal_rcc_ex.c ****   
 332:../STM32Cube_FW_F4_V1.4.0/Drivers/STM32F4xx_HAL_Driver/Src/stm32f4xx_hal_rcc_ex.c ****   /* Set all possible values for the extended clock type parameter------------*/
 333:../STM32Cube_FW_F4_V1.4.0/Drivers/STM32F4xx_HAL_Driver/Src/stm32f4xx_hal_rcc_ex.c ****   PeriphClkInit->PeriphClockSelection = RCC_PERIPHCLK_I2S | RCC_PERIPHCLK_SAI_PLLSAI | RCC_PERIPHCL
 334:../STM32Cube_FW_F4_V1.4.0/Drivers/STM32F4xx_HAL_Driver/Src/stm32f4xx_hal_rcc_ex.c ****   
 335:../STM32Cube_FW_F4_V1.4.0/Drivers/STM32F4xx_HAL_Driver/Src/stm32f4xx_hal_rcc_ex.c ****   /* Get the PLLI2S Clock configuration -----------------------------------------------*/
 336:../STM32Cube_FW_F4_V1.4.0/Drivers/STM32F4xx_HAL_Driver/Src/stm32f4xx_hal_rcc_ex.c ****   PeriphClkInit->PLLI2S.PLLI2SN = (uint32_t)((RCC->PLLI2SCFGR & RCC_PLLI2SCFGR_PLLI2SN) >> POSITION
 337:../STM32Cube_FW_F4_V1.4.0/Drivers/STM32F4xx_HAL_Driver/Src/stm32f4xx_hal_rcc_ex.c ****   PeriphClkInit->PLLI2S.PLLI2SR = (uint32_t)((RCC->PLLI2SCFGR & RCC_PLLI2SCFGR_PLLI2SR) >> POSITION
 338:../STM32Cube_FW_F4_V1.4.0/Drivers/STM32F4xx_HAL_Driver/Src/stm32f4xx_hal_rcc_ex.c ****   PeriphClkInit->PLLI2S.PLLI2SQ = (uint32_t)((RCC->PLLI2SCFGR & RCC_PLLI2SCFGR_PLLI2SQ) >> POSITION
 339:../STM32Cube_FW_F4_V1.4.0/Drivers/STM32F4xx_HAL_Driver/Src/stm32f4xx_hal_rcc_ex.c ****   /* Get the PLLSAI Clock configuration -----------------------------------------------*/
 340:../STM32Cube_FW_F4_V1.4.0/Drivers/STM32F4xx_HAL_Driver/Src/stm32f4xx_hal_rcc_ex.c ****   PeriphClkInit->PLLSAI.PLLSAIN = (uint32_t)((RCC->PLLSAICFGR & RCC_PLLSAICFGR_PLLSAIN) >> POSITION
 341:../STM32Cube_FW_F4_V1.4.0/Drivers/STM32F4xx_HAL_Driver/Src/stm32f4xx_hal_rcc_ex.c ****   PeriphClkInit->PLLSAI.PLLSAIR = (uint32_t)((RCC->PLLSAICFGR & RCC_PLLSAICFGR_PLLSAIR) >> POSITION
 342:../STM32Cube_FW_F4_V1.4.0/Drivers/STM32F4xx_HAL_Driver/Src/stm32f4xx_hal_rcc_ex.c ****   PeriphClkInit->PLLSAI.PLLSAIQ = (uint32_t)((RCC->PLLSAICFGR & RCC_PLLSAICFGR_PLLSAIQ) >> POSITION
 343:../STM32Cube_FW_F4_V1.4.0/Drivers/STM32F4xx_HAL_Driver/Src/stm32f4xx_hal_rcc_ex.c ****   /* Get the PLLSAI/PLLI2S division factors -----------------------------------------------*/
 344:../STM32Cube_FW_F4_V1.4.0/Drivers/STM32F4xx_HAL_Driver/Src/stm32f4xx_hal_rcc_ex.c ****   PeriphClkInit->PLLI2SDivQ = (uint32_t)((RCC->DCKCFGR & RCC_DCKCFGR_PLLI2SDIVQ) >> POSITION_VAL(RC
 345:../STM32Cube_FW_F4_V1.4.0/Drivers/STM32F4xx_HAL_Driver/Src/stm32f4xx_hal_rcc_ex.c ****   PeriphClkInit->PLLSAIDivQ = (uint32_t)((RCC->DCKCFGR & RCC_DCKCFGR_PLLSAIDIVQ) >> POSITION_VAL(RC
 346:../STM32Cube_FW_F4_V1.4.0/Drivers/STM32F4xx_HAL_Driver/Src/stm32f4xx_hal_rcc_ex.c ****   PeriphClkInit->PLLSAIDivR = (uint32_t)(RCC->DCKCFGR & RCC_DCKCFGR_PLLSAIDIVR);
 347:../STM32Cube_FW_F4_V1.4.0/Drivers/STM32F4xx_HAL_Driver/Src/stm32f4xx_hal_rcc_ex.c ****   /* Get the RTC Clock configuration -----------------------------------------------*/
 348:../STM32Cube_FW_F4_V1.4.0/Drivers/STM32F4xx_HAL_Driver/Src/stm32f4xx_hal_rcc_ex.c ****   tempreg = (RCC->CFGR & RCC_CFGR_RTCPRE);
 349:../STM32Cube_FW_F4_V1.4.0/Drivers/STM32F4xx_HAL_Driver/Src/stm32f4xx_hal_rcc_ex.c ****   PeriphClkInit->RTCClockSelection = (uint32_t)((tempreg) | (RCC->BDCR & RCC_BDCR_RTCSEL));
 350:../STM32Cube_FW_F4_V1.4.0/Drivers/STM32F4xx_HAL_Driver/Src/stm32f4xx_hal_rcc_ex.c ****   
 351:../STM32Cube_FW_F4_V1.4.0/Drivers/STM32F4xx_HAL_Driver/Src/stm32f4xx_hal_rcc_ex.c ****   if ((RCC->DCKCFGR & RCC_DCKCFGR_TIMPRE) == RESET)
 352:../STM32Cube_FW_F4_V1.4.0/Drivers/STM32F4xx_HAL_Driver/Src/stm32f4xx_hal_rcc_ex.c ****   {
 353:../STM32Cube_FW_F4_V1.4.0/Drivers/STM32F4xx_HAL_Driver/Src/stm32f4xx_hal_rcc_ex.c ****     PeriphClkInit->TIMPresSelection = RCC_TIMPRES_DESACTIVATED;
 354:../STM32Cube_FW_F4_V1.4.0/Drivers/STM32F4xx_HAL_Driver/Src/stm32f4xx_hal_rcc_ex.c ****   }
 355:../STM32Cube_FW_F4_V1.4.0/Drivers/STM32F4xx_HAL_Driver/Src/stm32f4xx_hal_rcc_ex.c ****   else
 356:../STM32Cube_FW_F4_V1.4.0/Drivers/STM32F4xx_HAL_Driver/Src/stm32f4xx_hal_rcc_ex.c ****   {
 357:../STM32Cube_FW_F4_V1.4.0/Drivers/STM32F4xx_HAL_Driver/Src/stm32f4xx_hal_rcc_ex.c ****     PeriphClkInit->TIMPresSelection = RCC_TIMPRES_ACTIVATED;
 358:../STM32Cube_FW_F4_V1.4.0/Drivers/STM32F4xx_HAL_Driver/Src/stm32f4xx_hal_rcc_ex.c ****   }
 359:../STM32Cube_FW_F4_V1.4.0/Drivers/STM32F4xx_HAL_Driver/Src/stm32f4xx_hal_rcc_ex.c **** }
 360:../STM32Cube_FW_F4_V1.4.0/Drivers/STM32F4xx_HAL_Driver/Src/stm32f4xx_hal_rcc_ex.c **** #endif /* STM32F427xx || STM32F437xx || STM32F429xx || STM32F439xx */
 361:../STM32Cube_FW_F4_V1.4.0/Drivers/STM32F4xx_HAL_Driver/Src/stm32f4xx_hal_rcc_ex.c **** 
 362:../STM32Cube_FW_F4_V1.4.0/Drivers/STM32F4xx_HAL_Driver/Src/stm32f4xx_hal_rcc_ex.c **** #if defined(STM32F405xx) || defined(STM32F415xx) || defined(STM32F407xx)|| defined(STM32F417xx) ||\
 363:../STM32Cube_FW_F4_V1.4.0/Drivers/STM32F4xx_HAL_Driver/Src/stm32f4xx_hal_rcc_ex.c ****     defined(STM32F401xC) || defined(STM32F401xE) || defined(STM32F411xE)
 364:../STM32Cube_FW_F4_V1.4.0/Drivers/STM32F4xx_HAL_Driver/Src/stm32f4xx_hal_rcc_ex.c **** /**
 365:../STM32Cube_FW_F4_V1.4.0/Drivers/STM32F4xx_HAL_Driver/Src/stm32f4xx_hal_rcc_ex.c ****   * @brief  Initializes the RCC extended peripherals clocks according to the specified parameters i
 366:../STM32Cube_FW_F4_V1.4.0/Drivers/STM32F4xx_HAL_Driver/Src/stm32f4xx_hal_rcc_ex.c ****   *         RCC_PeriphCLKInitTypeDef.
 367:../STM32Cube_FW_F4_V1.4.0/Drivers/STM32F4xx_HAL_Driver/Src/stm32f4xx_hal_rcc_ex.c ****   * @param  PeriphClkInit: pointer to an RCC_PeriphCLKInitTypeDef structure that
 368:../STM32Cube_FW_F4_V1.4.0/Drivers/STM32F4xx_HAL_Driver/Src/stm32f4xx_hal_rcc_ex.c ****   *         contains the configuration information for the Extended Peripherals clocks(I2S and RTC 
 369:../STM32Cube_FW_F4_V1.4.0/Drivers/STM32F4xx_HAL_Driver/Src/stm32f4xx_hal_rcc_ex.c ****   *         
 370:../STM32Cube_FW_F4_V1.4.0/Drivers/STM32F4xx_HAL_Driver/Src/stm32f4xx_hal_rcc_ex.c ****   * @note   A caution to be taken when HAL_RCCEx_PeriphCLKConfig() is used to select RTC clock sele
 371:../STM32Cube_FW_F4_V1.4.0/Drivers/STM32F4xx_HAL_Driver/Src/stm32f4xx_hal_rcc_ex.c ****   *         the Reset of Backup domain will be applied in order to modify the RTC Clock source as c
 372:../STM32Cube_FW_F4_V1.4.0/Drivers/STM32F4xx_HAL_Driver/Src/stm32f4xx_hal_rcc_ex.c ****   *        domain (RTC and RCC_BDCR register expect BKPSRAM) will be reset
 373:../STM32Cube_FW_F4_V1.4.0/Drivers/STM32F4xx_HAL_Driver/Src/stm32f4xx_hal_rcc_ex.c ****   *              
 374:../STM32Cube_FW_F4_V1.4.0/Drivers/STM32F4xx_HAL_Driver/Src/stm32f4xx_hal_rcc_ex.c ****   * @retval HAL status
 375:../STM32Cube_FW_F4_V1.4.0/Drivers/STM32F4xx_HAL_Driver/Src/stm32f4xx_hal_rcc_ex.c ****   */
ARM GAS  C:\cygwin\tmp\cc4kSEDe.s 			page 9


 376:../STM32Cube_FW_F4_V1.4.0/Drivers/STM32F4xx_HAL_Driver/Src/stm32f4xx_hal_rcc_ex.c **** HAL_StatusTypeDef HAL_RCCEx_PeriphCLKConfig(RCC_PeriphCLKInitTypeDef  *PeriphClkInit)
 377:../STM32Cube_FW_F4_V1.4.0/Drivers/STM32F4xx_HAL_Driver/Src/stm32f4xx_hal_rcc_ex.c **** {
  82              		.loc 1 377 0
  83              		.cfi_startproc
  84              		@ args = 0, pretend = 0, frame = 0
  85              		@ frame_needed = 0, uses_anonymous_args = 0
  86              	.LVL0:
 378:../STM32Cube_FW_F4_V1.4.0/Drivers/STM32F4xx_HAL_Driver/Src/stm32f4xx_hal_rcc_ex.c ****   uint32_t tickstart = 0;
 379:../STM32Cube_FW_F4_V1.4.0/Drivers/STM32F4xx_HAL_Driver/Src/stm32f4xx_hal_rcc_ex.c ****   uint32_t tmpreg = 0;
 380:../STM32Cube_FW_F4_V1.4.0/Drivers/STM32F4xx_HAL_Driver/Src/stm32f4xx_hal_rcc_ex.c ****     
 381:../STM32Cube_FW_F4_V1.4.0/Drivers/STM32F4xx_HAL_Driver/Src/stm32f4xx_hal_rcc_ex.c ****   /* Check the parameters */
 382:../STM32Cube_FW_F4_V1.4.0/Drivers/STM32F4xx_HAL_Driver/Src/stm32f4xx_hal_rcc_ex.c ****   assert_param(IS_RCC_PERIPHCLOCK(PeriphClkInit->PeriphClockSelection));
  87              		.loc 1 382 0
  88 0000 0368     		ldr	r3, [r0]	@ PeriphClkInit_15(D)->PeriphClockSelection, PeriphClkInit_15(D)->PeriphClockSelectio
  89 0002 013B     		subs	r3, r3, #1	@ D.7479, PeriphClkInit_15(D)->PeriphClockSelection,
  90 0004 022B     		cmp	r3, #2	@ D.7479,
 377:../STM32Cube_FW_F4_V1.4.0/Drivers/STM32F4xx_HAL_Driver/Src/stm32f4xx_hal_rcc_ex.c ****   uint32_t tickstart = 0;
  91              		.loc 1 377 0
  92 0006 70B5     		push	{r4, r5, r6, lr}	@
  93              		.cfi_def_cfa_offset 16
  94              		.cfi_offset 4, -16
  95              		.cfi_offset 5, -12
  96              		.cfi_offset 6, -8
  97              		.cfi_offset 14, -4
 377:../STM32Cube_FW_F4_V1.4.0/Drivers/STM32F4xx_HAL_Driver/Src/stm32f4xx_hal_rcc_ex.c ****   uint32_t tickstart = 0;
  98              		.loc 1 377 0
  99 0008 0446     		mov	r4, r0	@ PeriphClkInit, PeriphClkInit
 100              		.loc 1 382 0
 101 000a 04D9     		bls	.L2	@,
 102              		.loc 1 382 0 is_stmt 0 discriminator 1
 103 000c 5448     		ldr	r0, .L33	@,
 104              	.LVL1:
 105 000e 4FF4BF71 		mov	r1, #382	@,
 106 0012 FFF7FEFF 		bl	assert_failed	@
 107              	.LVL2:
 108              	.L2:
 383:../STM32Cube_FW_F4_V1.4.0/Drivers/STM32F4xx_HAL_Driver/Src/stm32f4xx_hal_rcc_ex.c ****   
 384:../STM32Cube_FW_F4_V1.4.0/Drivers/STM32F4xx_HAL_Driver/Src/stm32f4xx_hal_rcc_ex.c ****   /*---------------------------- I2S configuration ---------------------------*/
 385:../STM32Cube_FW_F4_V1.4.0/Drivers/STM32F4xx_HAL_Driver/Src/stm32f4xx_hal_rcc_ex.c ****   if(((PeriphClkInit->PeriphClockSelection) & RCC_PERIPHCLK_I2S) == (RCC_PERIPHCLK_I2S))
 109              		.loc 1 385 0 is_stmt 1
 110 0016 2368     		ldr	r3, [r4]	@ PeriphClkInit_15(D)->PeriphClockSelection, PeriphClkInit_15(D)->PeriphClockSelectio
 111 0018 DD07     		lsls	r5, r3, #31	@, PeriphClkInit_15(D)->PeriphClockSelection,
 112 001a 04D4     		bmi	.L3	@,
 113              	.LVL3:
 114              	.L13:
 386:../STM32Cube_FW_F4_V1.4.0/Drivers/STM32F4xx_HAL_Driver/Src/stm32f4xx_hal_rcc_ex.c ****   {
 387:../STM32Cube_FW_F4_V1.4.0/Drivers/STM32F4xx_HAL_Driver/Src/stm32f4xx_hal_rcc_ex.c ****     /* check for Parameters */
 388:../STM32Cube_FW_F4_V1.4.0/Drivers/STM32F4xx_HAL_Driver/Src/stm32f4xx_hal_rcc_ex.c ****     assert_param(IS_RCC_PLLI2SR_VALUE(PeriphClkInit->PLLI2S.PLLI2SR));
 389:../STM32Cube_FW_F4_V1.4.0/Drivers/STM32F4xx_HAL_Driver/Src/stm32f4xx_hal_rcc_ex.c ****     assert_param(IS_RCC_PLLI2SN_VALUE(PeriphClkInit->PLLI2S.PLLI2SN));
 390:../STM32Cube_FW_F4_V1.4.0/Drivers/STM32F4xx_HAL_Driver/Src/stm32f4xx_hal_rcc_ex.c **** #if defined(STM32F411xE)    
 391:../STM32Cube_FW_F4_V1.4.0/Drivers/STM32F4xx_HAL_Driver/Src/stm32f4xx_hal_rcc_ex.c ****     assert_param(IS_RCC_PLLI2SM_VALUE(PeriphClkInit->PLLI2S.PLLI2SM));
 392:../STM32Cube_FW_F4_V1.4.0/Drivers/STM32F4xx_HAL_Driver/Src/stm32f4xx_hal_rcc_ex.c **** #endif /* STM32F411xE */
 393:../STM32Cube_FW_F4_V1.4.0/Drivers/STM32F4xx_HAL_Driver/Src/stm32f4xx_hal_rcc_ex.c ****     /* Disable the PLLI2S */
 394:../STM32Cube_FW_F4_V1.4.0/Drivers/STM32F4xx_HAL_Driver/Src/stm32f4xx_hal_rcc_ex.c ****     __HAL_RCC_PLLI2S_DISABLE();
 395:../STM32Cube_FW_F4_V1.4.0/Drivers/STM32F4xx_HAL_Driver/Src/stm32f4xx_hal_rcc_ex.c ****     /* Get tick */
 396:../STM32Cube_FW_F4_V1.4.0/Drivers/STM32F4xx_HAL_Driver/Src/stm32f4xx_hal_rcc_ex.c ****     tickstart = HAL_GetTick();
 397:../STM32Cube_FW_F4_V1.4.0/Drivers/STM32F4xx_HAL_Driver/Src/stm32f4xx_hal_rcc_ex.c ****     /* Wait till PLLI2S is disabled */
ARM GAS  C:\cygwin\tmp\cc4kSEDe.s 			page 10


 398:../STM32Cube_FW_F4_V1.4.0/Drivers/STM32F4xx_HAL_Driver/Src/stm32f4xx_hal_rcc_ex.c ****     while(__HAL_RCC_GET_FLAG(RCC_FLAG_PLLI2SRDY)  != RESET)
 399:../STM32Cube_FW_F4_V1.4.0/Drivers/STM32F4xx_HAL_Driver/Src/stm32f4xx_hal_rcc_ex.c ****     {
 400:../STM32Cube_FW_F4_V1.4.0/Drivers/STM32F4xx_HAL_Driver/Src/stm32f4xx_hal_rcc_ex.c ****       if((HAL_GetTick() - tickstart ) > PLLI2S_TIMEOUT_VALUE)
 401:../STM32Cube_FW_F4_V1.4.0/Drivers/STM32F4xx_HAL_Driver/Src/stm32f4xx_hal_rcc_ex.c ****       {
 402:../STM32Cube_FW_F4_V1.4.0/Drivers/STM32F4xx_HAL_Driver/Src/stm32f4xx_hal_rcc_ex.c ****         /* return in case of Timeout detected */
 403:../STM32Cube_FW_F4_V1.4.0/Drivers/STM32F4xx_HAL_Driver/Src/stm32f4xx_hal_rcc_ex.c ****         return HAL_TIMEOUT;
 404:../STM32Cube_FW_F4_V1.4.0/Drivers/STM32F4xx_HAL_Driver/Src/stm32f4xx_hal_rcc_ex.c ****       } 
 405:../STM32Cube_FW_F4_V1.4.0/Drivers/STM32F4xx_HAL_Driver/Src/stm32f4xx_hal_rcc_ex.c ****     }
 406:../STM32Cube_FW_F4_V1.4.0/Drivers/STM32F4xx_HAL_Driver/Src/stm32f4xx_hal_rcc_ex.c **** 
 407:../STM32Cube_FW_F4_V1.4.0/Drivers/STM32F4xx_HAL_Driver/Src/stm32f4xx_hal_rcc_ex.c **** #if defined(STM32F411xE)
 408:../STM32Cube_FW_F4_V1.4.0/Drivers/STM32F4xx_HAL_Driver/Src/stm32f4xx_hal_rcc_ex.c ****     /* Configure the PLLI2S division factors */
 409:../STM32Cube_FW_F4_V1.4.0/Drivers/STM32F4xx_HAL_Driver/Src/stm32f4xx_hal_rcc_ex.c ****     /* PLLI2S_VCO = f(VCO clock) = f(PLLI2S clock input) × (PLLI2SN/PLLI2SM) */
 410:../STM32Cube_FW_F4_V1.4.0/Drivers/STM32F4xx_HAL_Driver/Src/stm32f4xx_hal_rcc_ex.c ****     /* I2SCLK = f(PLLI2S clock output) = f(VCO clock) / PLLI2SR */    
 411:../STM32Cube_FW_F4_V1.4.0/Drivers/STM32F4xx_HAL_Driver/Src/stm32f4xx_hal_rcc_ex.c ****     __HAL_RCC_PLLI2S_I2SCLK_CONFIG(PeriphClkInit->PLLI2S.PLLI2SM, PeriphClkInit->PLLI2S.PLLI2SN, Pe
 412:../STM32Cube_FW_F4_V1.4.0/Drivers/STM32F4xx_HAL_Driver/Src/stm32f4xx_hal_rcc_ex.c **** #else
 413:../STM32Cube_FW_F4_V1.4.0/Drivers/STM32F4xx_HAL_Driver/Src/stm32f4xx_hal_rcc_ex.c ****     /* Configure the PLLI2S division factors */
 414:../STM32Cube_FW_F4_V1.4.0/Drivers/STM32F4xx_HAL_Driver/Src/stm32f4xx_hal_rcc_ex.c ****     /* PLLI2S_VCO = f(VCO clock) = f(PLLI2S clock input) × (PLLI2SN/PLLM) */
 415:../STM32Cube_FW_F4_V1.4.0/Drivers/STM32F4xx_HAL_Driver/Src/stm32f4xx_hal_rcc_ex.c ****     /* I2SCLK = f(PLLI2S clock output) = f(VCO clock) / PLLI2SR */
 416:../STM32Cube_FW_F4_V1.4.0/Drivers/STM32F4xx_HAL_Driver/Src/stm32f4xx_hal_rcc_ex.c ****     __HAL_RCC_PLLI2S_CONFIG(PeriphClkInit->PLLI2S.PLLI2SN , PeriphClkInit->PLLI2S.PLLI2SR);
 417:../STM32Cube_FW_F4_V1.4.0/Drivers/STM32F4xx_HAL_Driver/Src/stm32f4xx_hal_rcc_ex.c **** #endif /* STM32F411xE */
 418:../STM32Cube_FW_F4_V1.4.0/Drivers/STM32F4xx_HAL_Driver/Src/stm32f4xx_hal_rcc_ex.c ****     
 419:../STM32Cube_FW_F4_V1.4.0/Drivers/STM32F4xx_HAL_Driver/Src/stm32f4xx_hal_rcc_ex.c ****     /* Enable the PLLI2S */
 420:../STM32Cube_FW_F4_V1.4.0/Drivers/STM32F4xx_HAL_Driver/Src/stm32f4xx_hal_rcc_ex.c ****     __HAL_RCC_PLLI2S_ENABLE();
 421:../STM32Cube_FW_F4_V1.4.0/Drivers/STM32F4xx_HAL_Driver/Src/stm32f4xx_hal_rcc_ex.c ****     /* Get tick */
 422:../STM32Cube_FW_F4_V1.4.0/Drivers/STM32F4xx_HAL_Driver/Src/stm32f4xx_hal_rcc_ex.c ****     tickstart = HAL_GetTick();
 423:../STM32Cube_FW_F4_V1.4.0/Drivers/STM32F4xx_HAL_Driver/Src/stm32f4xx_hal_rcc_ex.c ****     /* Wait till PLLI2S is ready */
 424:../STM32Cube_FW_F4_V1.4.0/Drivers/STM32F4xx_HAL_Driver/Src/stm32f4xx_hal_rcc_ex.c ****     while(__HAL_RCC_GET_FLAG(RCC_FLAG_PLLI2SRDY)  == RESET)
 425:../STM32Cube_FW_F4_V1.4.0/Drivers/STM32F4xx_HAL_Driver/Src/stm32f4xx_hal_rcc_ex.c ****     {
 426:../STM32Cube_FW_F4_V1.4.0/Drivers/STM32F4xx_HAL_Driver/Src/stm32f4xx_hal_rcc_ex.c ****       if((HAL_GetTick() - tickstart ) > PLLI2S_TIMEOUT_VALUE)
 427:../STM32Cube_FW_F4_V1.4.0/Drivers/STM32F4xx_HAL_Driver/Src/stm32f4xx_hal_rcc_ex.c ****       {
 428:../STM32Cube_FW_F4_V1.4.0/Drivers/STM32F4xx_HAL_Driver/Src/stm32f4xx_hal_rcc_ex.c ****         /* return in case of Timeout detected */
 429:../STM32Cube_FW_F4_V1.4.0/Drivers/STM32F4xx_HAL_Driver/Src/stm32f4xx_hal_rcc_ex.c ****         return HAL_TIMEOUT;
 430:../STM32Cube_FW_F4_V1.4.0/Drivers/STM32F4xx_HAL_Driver/Src/stm32f4xx_hal_rcc_ex.c ****       }
 431:../STM32Cube_FW_F4_V1.4.0/Drivers/STM32F4xx_HAL_Driver/Src/stm32f4xx_hal_rcc_ex.c ****     }
 432:../STM32Cube_FW_F4_V1.4.0/Drivers/STM32F4xx_HAL_Driver/Src/stm32f4xx_hal_rcc_ex.c ****   }
 433:../STM32Cube_FW_F4_V1.4.0/Drivers/STM32F4xx_HAL_Driver/Src/stm32f4xx_hal_rcc_ex.c ****   
 434:../STM32Cube_FW_F4_V1.4.0/Drivers/STM32F4xx_HAL_Driver/Src/stm32f4xx_hal_rcc_ex.c ****   /*---------------------------- RTC configuration ---------------------------*/
 435:../STM32Cube_FW_F4_V1.4.0/Drivers/STM32F4xx_HAL_Driver/Src/stm32f4xx_hal_rcc_ex.c ****   if(((PeriphClkInit->PeriphClockSelection) & RCC_PERIPHCLK_RTC) == (RCC_PERIPHCLK_RTC))
 115              		.loc 1 435 0
 116 001c 2068     		ldr	r0, [r4]	@ PeriphClkInit_15(D)->PeriphClockSelection, PeriphClkInit_15(D)->PeriphClockSelectio
 117 001e 10F00200 		ands	r0, r0, #2	@ D.7479, PeriphClkInit_15(D)->PeriphClockSelection,
 118 0022 47D1     		bne	.L4	@,
 119 0024 70BD     		pop	{r4, r5, r6, pc}	@
 120              	.LVL4:
 121              	.L3:
 388:../STM32Cube_FW_F4_V1.4.0/Drivers/STM32F4xx_HAL_Driver/Src/stm32f4xx_hal_rcc_ex.c ****     assert_param(IS_RCC_PLLI2SN_VALUE(PeriphClkInit->PLLI2S.PLLI2SN));
 122              		.loc 1 388 0
 123 0026 A368     		ldr	r3, [r4, #8]	@ PeriphClkInit_15(D)->PLLI2S.PLLI2SR, PeriphClkInit_15(D)->PLLI2S.PLLI2SR
 124 0028 023B     		subs	r3, r3, #2	@ D.7479, PeriphClkInit_15(D)->PLLI2S.PLLI2SR,
 125 002a 052B     		cmp	r3, #5	@ D.7479,
 126 002c 04D9     		bls	.L6	@,
 388:../STM32Cube_FW_F4_V1.4.0/Drivers/STM32F4xx_HAL_Driver/Src/stm32f4xx_hal_rcc_ex.c ****     assert_param(IS_RCC_PLLI2SN_VALUE(PeriphClkInit->PLLI2S.PLLI2SN));
 127              		.loc 1 388 0 is_stmt 0 discriminator 1
 128 002e 4C48     		ldr	r0, .L33	@,
 129 0030 4FF4C271 		mov	r1, #388	@,
 130 0034 FFF7FEFF 		bl	assert_failed	@
 131              	.LVL5:
ARM GAS  C:\cygwin\tmp\cc4kSEDe.s 			page 11


 132              	.L6:
 389:../STM32Cube_FW_F4_V1.4.0/Drivers/STM32F4xx_HAL_Driver/Src/stm32f4xx_hal_rcc_ex.c **** #if defined(STM32F411xE)    
 133              		.loc 1 389 0 is_stmt 1
 134 0038 6368     		ldr	r3, [r4, #4]	@ PeriphClkInit_15(D)->PLLI2S.PLLI2SN, PeriphClkInit_15(D)->PLLI2S.PLLI2SN
 135 003a C03B     		subs	r3, r3, #192	@ D.7479, PeriphClkInit_15(D)->PLLI2S.PLLI2SN,
 136 003c F02B     		cmp	r3, #240	@ D.7479,
 137 003e 04D9     		bls	.L7	@,
 389:../STM32Cube_FW_F4_V1.4.0/Drivers/STM32F4xx_HAL_Driver/Src/stm32f4xx_hal_rcc_ex.c **** #if defined(STM32F411xE)    
 138              		.loc 1 389 0 is_stmt 0 discriminator 1
 139 0040 4748     		ldr	r0, .L33	@,
 140 0042 40F28511 		movw	r1, #389	@,
 141 0046 FFF7FEFF 		bl	assert_failed	@
 142              	.LVL6:
 143              	.L7:
 394:../STM32Cube_FW_F4_V1.4.0/Drivers/STM32F4xx_HAL_Driver/Src/stm32f4xx_hal_rcc_ex.c ****     /* Get tick */
 144              		.loc 1 394 0 is_stmt 1
 145 004a 464D     		ldr	r5, .L33+4	@ tmp191,
 146 004c 0023     		movs	r3, #0	@ tmp192,
 147 004e 2B60     		str	r3, [r5]	@ tmp192, MEM[(volatile uint32_t *)1111949416B]
 396:../STM32Cube_FW_F4_V1.4.0/Drivers/STM32F4xx_HAL_Driver/Src/stm32f4xx_hal_rcc_ex.c ****     /* Wait till PLLI2S is disabled */
 148              		.loc 1 396 0
 149 0050 FFF7FEFF 		bl	HAL_GetTick	@
 150              	.LVL7:
 151 0054 0646     		mov	r6, r0	@ tickstart,
 152              	.LVL8:
 153              	.L8:
 398:../STM32Cube_FW_F4_V1.4.0/Drivers/STM32F4xx_HAL_Driver/Src/stm32f4xx_hal_rcc_ex.c ****     {
 154              		.loc 1 398 0
 155 0056 4449     		ldr	r1, .L33+8	@ tmp194,
 156 0058 0B68     		ldr	r3, [r1]	@ D.7479, MEM[(struct RCC_TypeDef *)1073887232B].CR
 157 005a 1801     		lsls	r0, r3, #4	@, D.7479,
 158 005c 06D5     		bpl	.L31	@,
 400:../STM32Cube_FW_F4_V1.4.0/Drivers/STM32F4xx_HAL_Driver/Src/stm32f4xx_hal_rcc_ex.c ****       {
 159              		.loc 1 400 0
 160 005e FFF7FEFF 		bl	HAL_GetTick	@
 161              	.LVL9:
 162 0062 801B     		subs	r0, r0, r6	@ D.7479,, tickstart
 163 0064 6428     		cmp	r0, #100	@ D.7479,
 164 0066 F6D9     		bls	.L8	@,
 165              	.LVL10:
 166              	.L11:
 403:../STM32Cube_FW_F4_V1.4.0/Drivers/STM32F4xx_HAL_Driver/Src/stm32f4xx_hal_rcc_ex.c ****       } 
 167              		.loc 1 403 0
 168 0068 0320     		movs	r0, #3	@ D.7478,
 169 006a 70BD     		pop	{r4, r5, r6, pc}	@
 170              	.LVL11:
 171              	.L31:
 172              	.LBB18:
 173              	.LBB19:
 174              		.file 2 "../STM32Cube_FW_F4_V1.4.0/Drivers/CMSIS/Include/core_cmInstr.h"
   1:../STM32Cube_FW_F4_V1.4.0/Drivers/CMSIS/Include/core_cmInstr.h **** /**************************************************************************//**
   2:../STM32Cube_FW_F4_V1.4.0/Drivers/CMSIS/Include/core_cmInstr.h ****  * @file     core_cmInstr.h
   3:../STM32Cube_FW_F4_V1.4.0/Drivers/CMSIS/Include/core_cmInstr.h ****  * @brief    CMSIS Cortex-M Core Instruction Access Header File
   4:../STM32Cube_FW_F4_V1.4.0/Drivers/CMSIS/Include/core_cmInstr.h ****  * @version  V4.00
   5:../STM32Cube_FW_F4_V1.4.0/Drivers/CMSIS/Include/core_cmInstr.h ****  * @date     28. August 2014
   6:../STM32Cube_FW_F4_V1.4.0/Drivers/CMSIS/Include/core_cmInstr.h ****  *
   7:../STM32Cube_FW_F4_V1.4.0/Drivers/CMSIS/Include/core_cmInstr.h ****  * @note
ARM GAS  C:\cygwin\tmp\cc4kSEDe.s 			page 12


   8:../STM32Cube_FW_F4_V1.4.0/Drivers/CMSIS/Include/core_cmInstr.h ****  *
   9:../STM32Cube_FW_F4_V1.4.0/Drivers/CMSIS/Include/core_cmInstr.h ****  ******************************************************************************/
  10:../STM32Cube_FW_F4_V1.4.0/Drivers/CMSIS/Include/core_cmInstr.h **** /* Copyright (c) 2009 - 2014 ARM LIMITED
  11:../STM32Cube_FW_F4_V1.4.0/Drivers/CMSIS/Include/core_cmInstr.h **** 
  12:../STM32Cube_FW_F4_V1.4.0/Drivers/CMSIS/Include/core_cmInstr.h ****    All rights reserved.
  13:../STM32Cube_FW_F4_V1.4.0/Drivers/CMSIS/Include/core_cmInstr.h ****    Redistribution and use in source and binary forms, with or without
  14:../STM32Cube_FW_F4_V1.4.0/Drivers/CMSIS/Include/core_cmInstr.h ****    modification, are permitted provided that the following conditions are met:
  15:../STM32Cube_FW_F4_V1.4.0/Drivers/CMSIS/Include/core_cmInstr.h ****    - Redistributions of source code must retain the above copyright
  16:../STM32Cube_FW_F4_V1.4.0/Drivers/CMSIS/Include/core_cmInstr.h ****      notice, this list of conditions and the following disclaimer.
  17:../STM32Cube_FW_F4_V1.4.0/Drivers/CMSIS/Include/core_cmInstr.h ****    - Redistributions in binary form must reproduce the above copyright
  18:../STM32Cube_FW_F4_V1.4.0/Drivers/CMSIS/Include/core_cmInstr.h ****      notice, this list of conditions and the following disclaimer in the
  19:../STM32Cube_FW_F4_V1.4.0/Drivers/CMSIS/Include/core_cmInstr.h ****      documentation and/or other materials provided with the distribution.
  20:../STM32Cube_FW_F4_V1.4.0/Drivers/CMSIS/Include/core_cmInstr.h ****    - Neither the name of ARM nor the names of its contributors may be used
  21:../STM32Cube_FW_F4_V1.4.0/Drivers/CMSIS/Include/core_cmInstr.h ****      to endorse or promote products derived from this software without
  22:../STM32Cube_FW_F4_V1.4.0/Drivers/CMSIS/Include/core_cmInstr.h ****      specific prior written permission.
  23:../STM32Cube_FW_F4_V1.4.0/Drivers/CMSIS/Include/core_cmInstr.h ****    *
  24:../STM32Cube_FW_F4_V1.4.0/Drivers/CMSIS/Include/core_cmInstr.h ****    THIS SOFTWARE IS PROVIDED BY THE COPYRIGHT HOLDERS AND CONTRIBUTORS "AS IS"
  25:../STM32Cube_FW_F4_V1.4.0/Drivers/CMSIS/Include/core_cmInstr.h ****    AND ANY EXPRESS OR IMPLIED WARRANTIES, INCLUDING, BUT NOT LIMITED TO, THE
  26:../STM32Cube_FW_F4_V1.4.0/Drivers/CMSIS/Include/core_cmInstr.h ****    IMPLIED WARRANTIES OF MERCHANTABILITY AND FITNESS FOR A PARTICULAR PURPOSE
  27:../STM32Cube_FW_F4_V1.4.0/Drivers/CMSIS/Include/core_cmInstr.h ****    ARE DISCLAIMED. IN NO EVENT SHALL COPYRIGHT HOLDERS AND CONTRIBUTORS BE
  28:../STM32Cube_FW_F4_V1.4.0/Drivers/CMSIS/Include/core_cmInstr.h ****    LIABLE FOR ANY DIRECT, INDIRECT, INCIDENTAL, SPECIAL, EXEMPLARY, OR
  29:../STM32Cube_FW_F4_V1.4.0/Drivers/CMSIS/Include/core_cmInstr.h ****    CONSEQUENTIAL DAMAGES (INCLUDING, BUT NOT LIMITED TO, PROCUREMENT OF
  30:../STM32Cube_FW_F4_V1.4.0/Drivers/CMSIS/Include/core_cmInstr.h ****    SUBSTITUTE GOODS OR SERVICES; LOSS OF USE, DATA, OR PROFITS; OR BUSINESS
  31:../STM32Cube_FW_F4_V1.4.0/Drivers/CMSIS/Include/core_cmInstr.h ****    INTERRUPTION) HOWEVER CAUSED AND ON ANY THEORY OF LIABILITY, WHETHER IN
  32:../STM32Cube_FW_F4_V1.4.0/Drivers/CMSIS/Include/core_cmInstr.h ****    CONTRACT, STRICT LIABILITY, OR TORT (INCLUDING NEGLIGENCE OR OTHERWISE)
  33:../STM32Cube_FW_F4_V1.4.0/Drivers/CMSIS/Include/core_cmInstr.h ****    ARISING IN ANY WAY OUT OF THE USE OF THIS SOFTWARE, EVEN IF ADVISED OF THE
  34:../STM32Cube_FW_F4_V1.4.0/Drivers/CMSIS/Include/core_cmInstr.h ****    POSSIBILITY OF SUCH DAMAGE.
  35:../STM32Cube_FW_F4_V1.4.0/Drivers/CMSIS/Include/core_cmInstr.h ****    ---------------------------------------------------------------------------*/
  36:../STM32Cube_FW_F4_V1.4.0/Drivers/CMSIS/Include/core_cmInstr.h **** 
  37:../STM32Cube_FW_F4_V1.4.0/Drivers/CMSIS/Include/core_cmInstr.h **** 
  38:../STM32Cube_FW_F4_V1.4.0/Drivers/CMSIS/Include/core_cmInstr.h **** #ifndef __CORE_CMINSTR_H
  39:../STM32Cube_FW_F4_V1.4.0/Drivers/CMSIS/Include/core_cmInstr.h **** #define __CORE_CMINSTR_H
  40:../STM32Cube_FW_F4_V1.4.0/Drivers/CMSIS/Include/core_cmInstr.h **** 
  41:../STM32Cube_FW_F4_V1.4.0/Drivers/CMSIS/Include/core_cmInstr.h **** 
  42:../STM32Cube_FW_F4_V1.4.0/Drivers/CMSIS/Include/core_cmInstr.h **** /* ##########################  Core Instruction Access  ######################### */
  43:../STM32Cube_FW_F4_V1.4.0/Drivers/CMSIS/Include/core_cmInstr.h **** /** \defgroup CMSIS_Core_InstructionInterface CMSIS Core Instruction Interface
  44:../STM32Cube_FW_F4_V1.4.0/Drivers/CMSIS/Include/core_cmInstr.h ****   Access to dedicated instructions
  45:../STM32Cube_FW_F4_V1.4.0/Drivers/CMSIS/Include/core_cmInstr.h ****   @{
  46:../STM32Cube_FW_F4_V1.4.0/Drivers/CMSIS/Include/core_cmInstr.h **** */
  47:../STM32Cube_FW_F4_V1.4.0/Drivers/CMSIS/Include/core_cmInstr.h **** 
  48:../STM32Cube_FW_F4_V1.4.0/Drivers/CMSIS/Include/core_cmInstr.h **** #if   defined ( __CC_ARM ) /*------------------RealView Compiler -----------------*/
  49:../STM32Cube_FW_F4_V1.4.0/Drivers/CMSIS/Include/core_cmInstr.h **** /* ARM armcc specific functions */
  50:../STM32Cube_FW_F4_V1.4.0/Drivers/CMSIS/Include/core_cmInstr.h **** 
  51:../STM32Cube_FW_F4_V1.4.0/Drivers/CMSIS/Include/core_cmInstr.h **** #if (__ARMCC_VERSION < 400677)
  52:../STM32Cube_FW_F4_V1.4.0/Drivers/CMSIS/Include/core_cmInstr.h ****   #error "Please use ARM Compiler Toolchain V4.0.677 or later!"
  53:../STM32Cube_FW_F4_V1.4.0/Drivers/CMSIS/Include/core_cmInstr.h **** #endif
  54:../STM32Cube_FW_F4_V1.4.0/Drivers/CMSIS/Include/core_cmInstr.h **** 
  55:../STM32Cube_FW_F4_V1.4.0/Drivers/CMSIS/Include/core_cmInstr.h **** 
  56:../STM32Cube_FW_F4_V1.4.0/Drivers/CMSIS/Include/core_cmInstr.h **** /** \brief  No Operation
  57:../STM32Cube_FW_F4_V1.4.0/Drivers/CMSIS/Include/core_cmInstr.h **** 
  58:../STM32Cube_FW_F4_V1.4.0/Drivers/CMSIS/Include/core_cmInstr.h ****     No Operation does nothing. This instruction can be used for code alignment purposes.
  59:../STM32Cube_FW_F4_V1.4.0/Drivers/CMSIS/Include/core_cmInstr.h ****  */
  60:../STM32Cube_FW_F4_V1.4.0/Drivers/CMSIS/Include/core_cmInstr.h **** #define __NOP                             __nop
  61:../STM32Cube_FW_F4_V1.4.0/Drivers/CMSIS/Include/core_cmInstr.h **** 
  62:../STM32Cube_FW_F4_V1.4.0/Drivers/CMSIS/Include/core_cmInstr.h **** 
  63:../STM32Cube_FW_F4_V1.4.0/Drivers/CMSIS/Include/core_cmInstr.h **** /** \brief  Wait For Interrupt
  64:../STM32Cube_FW_F4_V1.4.0/Drivers/CMSIS/Include/core_cmInstr.h **** 
ARM GAS  C:\cygwin\tmp\cc4kSEDe.s 			page 13


  65:../STM32Cube_FW_F4_V1.4.0/Drivers/CMSIS/Include/core_cmInstr.h ****     Wait For Interrupt is a hint instruction that suspends execution
  66:../STM32Cube_FW_F4_V1.4.0/Drivers/CMSIS/Include/core_cmInstr.h ****     until one of a number of events occurs.
  67:../STM32Cube_FW_F4_V1.4.0/Drivers/CMSIS/Include/core_cmInstr.h ****  */
  68:../STM32Cube_FW_F4_V1.4.0/Drivers/CMSIS/Include/core_cmInstr.h **** #define __WFI                             __wfi
  69:../STM32Cube_FW_F4_V1.4.0/Drivers/CMSIS/Include/core_cmInstr.h **** 
  70:../STM32Cube_FW_F4_V1.4.0/Drivers/CMSIS/Include/core_cmInstr.h **** 
  71:../STM32Cube_FW_F4_V1.4.0/Drivers/CMSIS/Include/core_cmInstr.h **** /** \brief  Wait For Event
  72:../STM32Cube_FW_F4_V1.4.0/Drivers/CMSIS/Include/core_cmInstr.h **** 
  73:../STM32Cube_FW_F4_V1.4.0/Drivers/CMSIS/Include/core_cmInstr.h ****     Wait For Event is a hint instruction that permits the processor to enter
  74:../STM32Cube_FW_F4_V1.4.0/Drivers/CMSIS/Include/core_cmInstr.h ****     a low-power state until one of a number of events occurs.
  75:../STM32Cube_FW_F4_V1.4.0/Drivers/CMSIS/Include/core_cmInstr.h ****  */
  76:../STM32Cube_FW_F4_V1.4.0/Drivers/CMSIS/Include/core_cmInstr.h **** #define __WFE                             __wfe
  77:../STM32Cube_FW_F4_V1.4.0/Drivers/CMSIS/Include/core_cmInstr.h **** 
  78:../STM32Cube_FW_F4_V1.4.0/Drivers/CMSIS/Include/core_cmInstr.h **** 
  79:../STM32Cube_FW_F4_V1.4.0/Drivers/CMSIS/Include/core_cmInstr.h **** /** \brief  Send Event
  80:../STM32Cube_FW_F4_V1.4.0/Drivers/CMSIS/Include/core_cmInstr.h **** 
  81:../STM32Cube_FW_F4_V1.4.0/Drivers/CMSIS/Include/core_cmInstr.h ****     Send Event is a hint instruction. It causes an event to be signaled to the CPU.
  82:../STM32Cube_FW_F4_V1.4.0/Drivers/CMSIS/Include/core_cmInstr.h ****  */
  83:../STM32Cube_FW_F4_V1.4.0/Drivers/CMSIS/Include/core_cmInstr.h **** #define __SEV                             __sev
  84:../STM32Cube_FW_F4_V1.4.0/Drivers/CMSIS/Include/core_cmInstr.h **** 
  85:../STM32Cube_FW_F4_V1.4.0/Drivers/CMSIS/Include/core_cmInstr.h **** 
  86:../STM32Cube_FW_F4_V1.4.0/Drivers/CMSIS/Include/core_cmInstr.h **** /** \brief  Instruction Synchronization Barrier
  87:../STM32Cube_FW_F4_V1.4.0/Drivers/CMSIS/Include/core_cmInstr.h **** 
  88:../STM32Cube_FW_F4_V1.4.0/Drivers/CMSIS/Include/core_cmInstr.h ****     Instruction Synchronization Barrier flushes the pipeline in the processor,
  89:../STM32Cube_FW_F4_V1.4.0/Drivers/CMSIS/Include/core_cmInstr.h ****     so that all instructions following the ISB are fetched from cache or
  90:../STM32Cube_FW_F4_V1.4.0/Drivers/CMSIS/Include/core_cmInstr.h ****     memory, after the instruction has been completed.
  91:../STM32Cube_FW_F4_V1.4.0/Drivers/CMSIS/Include/core_cmInstr.h ****  */
  92:../STM32Cube_FW_F4_V1.4.0/Drivers/CMSIS/Include/core_cmInstr.h **** #define __ISB()                           __isb(0xF)
  93:../STM32Cube_FW_F4_V1.4.0/Drivers/CMSIS/Include/core_cmInstr.h **** 
  94:../STM32Cube_FW_F4_V1.4.0/Drivers/CMSIS/Include/core_cmInstr.h **** 
  95:../STM32Cube_FW_F4_V1.4.0/Drivers/CMSIS/Include/core_cmInstr.h **** /** \brief  Data Synchronization Barrier
  96:../STM32Cube_FW_F4_V1.4.0/Drivers/CMSIS/Include/core_cmInstr.h **** 
  97:../STM32Cube_FW_F4_V1.4.0/Drivers/CMSIS/Include/core_cmInstr.h ****     This function acts as a special kind of Data Memory Barrier.
  98:../STM32Cube_FW_F4_V1.4.0/Drivers/CMSIS/Include/core_cmInstr.h ****     It completes when all explicit memory accesses before this instruction complete.
  99:../STM32Cube_FW_F4_V1.4.0/Drivers/CMSIS/Include/core_cmInstr.h ****  */
 100:../STM32Cube_FW_F4_V1.4.0/Drivers/CMSIS/Include/core_cmInstr.h **** #define __DSB()                           __dsb(0xF)
 101:../STM32Cube_FW_F4_V1.4.0/Drivers/CMSIS/Include/core_cmInstr.h **** 
 102:../STM32Cube_FW_F4_V1.4.0/Drivers/CMSIS/Include/core_cmInstr.h **** 
 103:../STM32Cube_FW_F4_V1.4.0/Drivers/CMSIS/Include/core_cmInstr.h **** /** \brief  Data Memory Barrier
 104:../STM32Cube_FW_F4_V1.4.0/Drivers/CMSIS/Include/core_cmInstr.h **** 
 105:../STM32Cube_FW_F4_V1.4.0/Drivers/CMSIS/Include/core_cmInstr.h ****     This function ensures the apparent order of the explicit memory operations before
 106:../STM32Cube_FW_F4_V1.4.0/Drivers/CMSIS/Include/core_cmInstr.h ****     and after the instruction, without ensuring their completion.
 107:../STM32Cube_FW_F4_V1.4.0/Drivers/CMSIS/Include/core_cmInstr.h ****  */
 108:../STM32Cube_FW_F4_V1.4.0/Drivers/CMSIS/Include/core_cmInstr.h **** #define __DMB()                           __dmb(0xF)
 109:../STM32Cube_FW_F4_V1.4.0/Drivers/CMSIS/Include/core_cmInstr.h **** 
 110:../STM32Cube_FW_F4_V1.4.0/Drivers/CMSIS/Include/core_cmInstr.h **** 
 111:../STM32Cube_FW_F4_V1.4.0/Drivers/CMSIS/Include/core_cmInstr.h **** /** \brief  Reverse byte order (32 bit)
 112:../STM32Cube_FW_F4_V1.4.0/Drivers/CMSIS/Include/core_cmInstr.h **** 
 113:../STM32Cube_FW_F4_V1.4.0/Drivers/CMSIS/Include/core_cmInstr.h ****     This function reverses the byte order in integer value.
 114:../STM32Cube_FW_F4_V1.4.0/Drivers/CMSIS/Include/core_cmInstr.h **** 
 115:../STM32Cube_FW_F4_V1.4.0/Drivers/CMSIS/Include/core_cmInstr.h ****     \param [in]    value  Value to reverse
 116:../STM32Cube_FW_F4_V1.4.0/Drivers/CMSIS/Include/core_cmInstr.h ****     \return               Reversed value
 117:../STM32Cube_FW_F4_V1.4.0/Drivers/CMSIS/Include/core_cmInstr.h ****  */
 118:../STM32Cube_FW_F4_V1.4.0/Drivers/CMSIS/Include/core_cmInstr.h **** #define __REV                             __rev
 119:../STM32Cube_FW_F4_V1.4.0/Drivers/CMSIS/Include/core_cmInstr.h **** 
 120:../STM32Cube_FW_F4_V1.4.0/Drivers/CMSIS/Include/core_cmInstr.h **** 
 121:../STM32Cube_FW_F4_V1.4.0/Drivers/CMSIS/Include/core_cmInstr.h **** /** \brief  Reverse byte order (16 bit)
ARM GAS  C:\cygwin\tmp\cc4kSEDe.s 			page 14


 122:../STM32Cube_FW_F4_V1.4.0/Drivers/CMSIS/Include/core_cmInstr.h **** 
 123:../STM32Cube_FW_F4_V1.4.0/Drivers/CMSIS/Include/core_cmInstr.h ****     This function reverses the byte order in two unsigned short values.
 124:../STM32Cube_FW_F4_V1.4.0/Drivers/CMSIS/Include/core_cmInstr.h **** 
 125:../STM32Cube_FW_F4_V1.4.0/Drivers/CMSIS/Include/core_cmInstr.h ****     \param [in]    value  Value to reverse
 126:../STM32Cube_FW_F4_V1.4.0/Drivers/CMSIS/Include/core_cmInstr.h ****     \return               Reversed value
 127:../STM32Cube_FW_F4_V1.4.0/Drivers/CMSIS/Include/core_cmInstr.h ****  */
 128:../STM32Cube_FW_F4_V1.4.0/Drivers/CMSIS/Include/core_cmInstr.h **** #ifndef __NO_EMBEDDED_ASM
 129:../STM32Cube_FW_F4_V1.4.0/Drivers/CMSIS/Include/core_cmInstr.h **** __attribute__((section(".rev16_text"))) __STATIC_INLINE __ASM uint32_t __REV16(uint32_t value)
 130:../STM32Cube_FW_F4_V1.4.0/Drivers/CMSIS/Include/core_cmInstr.h **** {
 131:../STM32Cube_FW_F4_V1.4.0/Drivers/CMSIS/Include/core_cmInstr.h ****   rev16 r0, r0
 132:../STM32Cube_FW_F4_V1.4.0/Drivers/CMSIS/Include/core_cmInstr.h ****   bx lr
 133:../STM32Cube_FW_F4_V1.4.0/Drivers/CMSIS/Include/core_cmInstr.h **** }
 134:../STM32Cube_FW_F4_V1.4.0/Drivers/CMSIS/Include/core_cmInstr.h **** #endif
 135:../STM32Cube_FW_F4_V1.4.0/Drivers/CMSIS/Include/core_cmInstr.h **** 
 136:../STM32Cube_FW_F4_V1.4.0/Drivers/CMSIS/Include/core_cmInstr.h **** /** \brief  Reverse byte order in signed short value
 137:../STM32Cube_FW_F4_V1.4.0/Drivers/CMSIS/Include/core_cmInstr.h **** 
 138:../STM32Cube_FW_F4_V1.4.0/Drivers/CMSIS/Include/core_cmInstr.h ****     This function reverses the byte order in a signed short value with sign extension to integer.
 139:../STM32Cube_FW_F4_V1.4.0/Drivers/CMSIS/Include/core_cmInstr.h **** 
 140:../STM32Cube_FW_F4_V1.4.0/Drivers/CMSIS/Include/core_cmInstr.h ****     \param [in]    value  Value to reverse
 141:../STM32Cube_FW_F4_V1.4.0/Drivers/CMSIS/Include/core_cmInstr.h ****     \return               Reversed value
 142:../STM32Cube_FW_F4_V1.4.0/Drivers/CMSIS/Include/core_cmInstr.h ****  */
 143:../STM32Cube_FW_F4_V1.4.0/Drivers/CMSIS/Include/core_cmInstr.h **** #ifndef __NO_EMBEDDED_ASM
 144:../STM32Cube_FW_F4_V1.4.0/Drivers/CMSIS/Include/core_cmInstr.h **** __attribute__((section(".revsh_text"))) __STATIC_INLINE __ASM int32_t __REVSH(int32_t value)
 145:../STM32Cube_FW_F4_V1.4.0/Drivers/CMSIS/Include/core_cmInstr.h **** {
 146:../STM32Cube_FW_F4_V1.4.0/Drivers/CMSIS/Include/core_cmInstr.h ****   revsh r0, r0
 147:../STM32Cube_FW_F4_V1.4.0/Drivers/CMSIS/Include/core_cmInstr.h ****   bx lr
 148:../STM32Cube_FW_F4_V1.4.0/Drivers/CMSIS/Include/core_cmInstr.h **** }
 149:../STM32Cube_FW_F4_V1.4.0/Drivers/CMSIS/Include/core_cmInstr.h **** #endif
 150:../STM32Cube_FW_F4_V1.4.0/Drivers/CMSIS/Include/core_cmInstr.h **** 
 151:../STM32Cube_FW_F4_V1.4.0/Drivers/CMSIS/Include/core_cmInstr.h **** 
 152:../STM32Cube_FW_F4_V1.4.0/Drivers/CMSIS/Include/core_cmInstr.h **** /** \brief  Rotate Right in unsigned value (32 bit)
 153:../STM32Cube_FW_F4_V1.4.0/Drivers/CMSIS/Include/core_cmInstr.h **** 
 154:../STM32Cube_FW_F4_V1.4.0/Drivers/CMSIS/Include/core_cmInstr.h ****     This function Rotate Right (immediate) provides the value of the contents of a register rotated
 155:../STM32Cube_FW_F4_V1.4.0/Drivers/CMSIS/Include/core_cmInstr.h **** 
 156:../STM32Cube_FW_F4_V1.4.0/Drivers/CMSIS/Include/core_cmInstr.h ****     \param [in]    value  Value to rotate
 157:../STM32Cube_FW_F4_V1.4.0/Drivers/CMSIS/Include/core_cmInstr.h ****     \param [in]    value  Number of Bits to rotate
 158:../STM32Cube_FW_F4_V1.4.0/Drivers/CMSIS/Include/core_cmInstr.h ****     \return               Rotated value
 159:../STM32Cube_FW_F4_V1.4.0/Drivers/CMSIS/Include/core_cmInstr.h ****  */
 160:../STM32Cube_FW_F4_V1.4.0/Drivers/CMSIS/Include/core_cmInstr.h **** #define __ROR                             __ror
 161:../STM32Cube_FW_F4_V1.4.0/Drivers/CMSIS/Include/core_cmInstr.h **** 
 162:../STM32Cube_FW_F4_V1.4.0/Drivers/CMSIS/Include/core_cmInstr.h **** 
 163:../STM32Cube_FW_F4_V1.4.0/Drivers/CMSIS/Include/core_cmInstr.h **** /** \brief  Breakpoint
 164:../STM32Cube_FW_F4_V1.4.0/Drivers/CMSIS/Include/core_cmInstr.h **** 
 165:../STM32Cube_FW_F4_V1.4.0/Drivers/CMSIS/Include/core_cmInstr.h ****     This function causes the processor to enter Debug state.
 166:../STM32Cube_FW_F4_V1.4.0/Drivers/CMSIS/Include/core_cmInstr.h ****     Debug tools can use this to investigate system state when the instruction at a particular addre
 167:../STM32Cube_FW_F4_V1.4.0/Drivers/CMSIS/Include/core_cmInstr.h **** 
 168:../STM32Cube_FW_F4_V1.4.0/Drivers/CMSIS/Include/core_cmInstr.h ****     \param [in]    value  is ignored by the processor.
 169:../STM32Cube_FW_F4_V1.4.0/Drivers/CMSIS/Include/core_cmInstr.h ****                    If required, a debugger can use it to store additional information about the bre
 170:../STM32Cube_FW_F4_V1.4.0/Drivers/CMSIS/Include/core_cmInstr.h ****  */
 171:../STM32Cube_FW_F4_V1.4.0/Drivers/CMSIS/Include/core_cmInstr.h **** #define __BKPT(value)                       __breakpoint(value)
 172:../STM32Cube_FW_F4_V1.4.0/Drivers/CMSIS/Include/core_cmInstr.h **** 
 173:../STM32Cube_FW_F4_V1.4.0/Drivers/CMSIS/Include/core_cmInstr.h **** 
 174:../STM32Cube_FW_F4_V1.4.0/Drivers/CMSIS/Include/core_cmInstr.h **** #if       (__CORTEX_M >= 0x03) || (__CORTEX_SC >= 300)
 175:../STM32Cube_FW_F4_V1.4.0/Drivers/CMSIS/Include/core_cmInstr.h **** 
 176:../STM32Cube_FW_F4_V1.4.0/Drivers/CMSIS/Include/core_cmInstr.h **** /** \brief  Reverse bit order of value
 177:../STM32Cube_FW_F4_V1.4.0/Drivers/CMSIS/Include/core_cmInstr.h **** 
 178:../STM32Cube_FW_F4_V1.4.0/Drivers/CMSIS/Include/core_cmInstr.h ****     This function reverses the bit order of the given value.
ARM GAS  C:\cygwin\tmp\cc4kSEDe.s 			page 15


 179:../STM32Cube_FW_F4_V1.4.0/Drivers/CMSIS/Include/core_cmInstr.h **** 
 180:../STM32Cube_FW_F4_V1.4.0/Drivers/CMSIS/Include/core_cmInstr.h ****     \param [in]    value  Value to reverse
 181:../STM32Cube_FW_F4_V1.4.0/Drivers/CMSIS/Include/core_cmInstr.h ****     \return               Reversed value
 182:../STM32Cube_FW_F4_V1.4.0/Drivers/CMSIS/Include/core_cmInstr.h ****  */
 183:../STM32Cube_FW_F4_V1.4.0/Drivers/CMSIS/Include/core_cmInstr.h **** #define __RBIT                            __rbit
 184:../STM32Cube_FW_F4_V1.4.0/Drivers/CMSIS/Include/core_cmInstr.h **** 
 185:../STM32Cube_FW_F4_V1.4.0/Drivers/CMSIS/Include/core_cmInstr.h **** 
 186:../STM32Cube_FW_F4_V1.4.0/Drivers/CMSIS/Include/core_cmInstr.h **** /** \brief  LDR Exclusive (8 bit)
 187:../STM32Cube_FW_F4_V1.4.0/Drivers/CMSIS/Include/core_cmInstr.h **** 
 188:../STM32Cube_FW_F4_V1.4.0/Drivers/CMSIS/Include/core_cmInstr.h ****     This function executes a exclusive LDR instruction for 8 bit value.
 189:../STM32Cube_FW_F4_V1.4.0/Drivers/CMSIS/Include/core_cmInstr.h **** 
 190:../STM32Cube_FW_F4_V1.4.0/Drivers/CMSIS/Include/core_cmInstr.h ****     \param [in]    ptr  Pointer to data
 191:../STM32Cube_FW_F4_V1.4.0/Drivers/CMSIS/Include/core_cmInstr.h ****     \return             value of type uint8_t at (*ptr)
 192:../STM32Cube_FW_F4_V1.4.0/Drivers/CMSIS/Include/core_cmInstr.h ****  */
 193:../STM32Cube_FW_F4_V1.4.0/Drivers/CMSIS/Include/core_cmInstr.h **** #define __LDREXB(ptr)                     ((uint8_t ) __ldrex(ptr))
 194:../STM32Cube_FW_F4_V1.4.0/Drivers/CMSIS/Include/core_cmInstr.h **** 
 195:../STM32Cube_FW_F4_V1.4.0/Drivers/CMSIS/Include/core_cmInstr.h **** 
 196:../STM32Cube_FW_F4_V1.4.0/Drivers/CMSIS/Include/core_cmInstr.h **** /** \brief  LDR Exclusive (16 bit)
 197:../STM32Cube_FW_F4_V1.4.0/Drivers/CMSIS/Include/core_cmInstr.h **** 
 198:../STM32Cube_FW_F4_V1.4.0/Drivers/CMSIS/Include/core_cmInstr.h ****     This function executes a exclusive LDR instruction for 16 bit values.
 199:../STM32Cube_FW_F4_V1.4.0/Drivers/CMSIS/Include/core_cmInstr.h **** 
 200:../STM32Cube_FW_F4_V1.4.0/Drivers/CMSIS/Include/core_cmInstr.h ****     \param [in]    ptr  Pointer to data
 201:../STM32Cube_FW_F4_V1.4.0/Drivers/CMSIS/Include/core_cmInstr.h ****     \return        value of type uint16_t at (*ptr)
 202:../STM32Cube_FW_F4_V1.4.0/Drivers/CMSIS/Include/core_cmInstr.h ****  */
 203:../STM32Cube_FW_F4_V1.4.0/Drivers/CMSIS/Include/core_cmInstr.h **** #define __LDREXH(ptr)                     ((uint16_t) __ldrex(ptr))
 204:../STM32Cube_FW_F4_V1.4.0/Drivers/CMSIS/Include/core_cmInstr.h **** 
 205:../STM32Cube_FW_F4_V1.4.0/Drivers/CMSIS/Include/core_cmInstr.h **** 
 206:../STM32Cube_FW_F4_V1.4.0/Drivers/CMSIS/Include/core_cmInstr.h **** /** \brief  LDR Exclusive (32 bit)
 207:../STM32Cube_FW_F4_V1.4.0/Drivers/CMSIS/Include/core_cmInstr.h **** 
 208:../STM32Cube_FW_F4_V1.4.0/Drivers/CMSIS/Include/core_cmInstr.h ****     This function executes a exclusive LDR instruction for 32 bit values.
 209:../STM32Cube_FW_F4_V1.4.0/Drivers/CMSIS/Include/core_cmInstr.h **** 
 210:../STM32Cube_FW_F4_V1.4.0/Drivers/CMSIS/Include/core_cmInstr.h ****     \param [in]    ptr  Pointer to data
 211:../STM32Cube_FW_F4_V1.4.0/Drivers/CMSIS/Include/core_cmInstr.h ****     \return        value of type uint32_t at (*ptr)
 212:../STM32Cube_FW_F4_V1.4.0/Drivers/CMSIS/Include/core_cmInstr.h ****  */
 213:../STM32Cube_FW_F4_V1.4.0/Drivers/CMSIS/Include/core_cmInstr.h **** #define __LDREXW(ptr)                     ((uint32_t ) __ldrex(ptr))
 214:../STM32Cube_FW_F4_V1.4.0/Drivers/CMSIS/Include/core_cmInstr.h **** 
 215:../STM32Cube_FW_F4_V1.4.0/Drivers/CMSIS/Include/core_cmInstr.h **** 
 216:../STM32Cube_FW_F4_V1.4.0/Drivers/CMSIS/Include/core_cmInstr.h **** /** \brief  STR Exclusive (8 bit)
 217:../STM32Cube_FW_F4_V1.4.0/Drivers/CMSIS/Include/core_cmInstr.h **** 
 218:../STM32Cube_FW_F4_V1.4.0/Drivers/CMSIS/Include/core_cmInstr.h ****     This function executes a exclusive STR instruction for 8 bit values.
 219:../STM32Cube_FW_F4_V1.4.0/Drivers/CMSIS/Include/core_cmInstr.h **** 
 220:../STM32Cube_FW_F4_V1.4.0/Drivers/CMSIS/Include/core_cmInstr.h ****     \param [in]  value  Value to store
 221:../STM32Cube_FW_F4_V1.4.0/Drivers/CMSIS/Include/core_cmInstr.h ****     \param [in]    ptr  Pointer to location
 222:../STM32Cube_FW_F4_V1.4.0/Drivers/CMSIS/Include/core_cmInstr.h ****     \return          0  Function succeeded
 223:../STM32Cube_FW_F4_V1.4.0/Drivers/CMSIS/Include/core_cmInstr.h ****     \return          1  Function failed
 224:../STM32Cube_FW_F4_V1.4.0/Drivers/CMSIS/Include/core_cmInstr.h ****  */
 225:../STM32Cube_FW_F4_V1.4.0/Drivers/CMSIS/Include/core_cmInstr.h **** #define __STREXB(value, ptr)              __strex(value, ptr)
 226:../STM32Cube_FW_F4_V1.4.0/Drivers/CMSIS/Include/core_cmInstr.h **** 
 227:../STM32Cube_FW_F4_V1.4.0/Drivers/CMSIS/Include/core_cmInstr.h **** 
 228:../STM32Cube_FW_F4_V1.4.0/Drivers/CMSIS/Include/core_cmInstr.h **** /** \brief  STR Exclusive (16 bit)
 229:../STM32Cube_FW_F4_V1.4.0/Drivers/CMSIS/Include/core_cmInstr.h **** 
 230:../STM32Cube_FW_F4_V1.4.0/Drivers/CMSIS/Include/core_cmInstr.h ****     This function executes a exclusive STR instruction for 16 bit values.
 231:../STM32Cube_FW_F4_V1.4.0/Drivers/CMSIS/Include/core_cmInstr.h **** 
 232:../STM32Cube_FW_F4_V1.4.0/Drivers/CMSIS/Include/core_cmInstr.h ****     \param [in]  value  Value to store
 233:../STM32Cube_FW_F4_V1.4.0/Drivers/CMSIS/Include/core_cmInstr.h ****     \param [in]    ptr  Pointer to location
 234:../STM32Cube_FW_F4_V1.4.0/Drivers/CMSIS/Include/core_cmInstr.h ****     \return          0  Function succeeded
 235:../STM32Cube_FW_F4_V1.4.0/Drivers/CMSIS/Include/core_cmInstr.h ****     \return          1  Function failed
ARM GAS  C:\cygwin\tmp\cc4kSEDe.s 			page 16


 236:../STM32Cube_FW_F4_V1.4.0/Drivers/CMSIS/Include/core_cmInstr.h ****  */
 237:../STM32Cube_FW_F4_V1.4.0/Drivers/CMSIS/Include/core_cmInstr.h **** #define __STREXH(value, ptr)              __strex(value, ptr)
 238:../STM32Cube_FW_F4_V1.4.0/Drivers/CMSIS/Include/core_cmInstr.h **** 
 239:../STM32Cube_FW_F4_V1.4.0/Drivers/CMSIS/Include/core_cmInstr.h **** 
 240:../STM32Cube_FW_F4_V1.4.0/Drivers/CMSIS/Include/core_cmInstr.h **** /** \brief  STR Exclusive (32 bit)
 241:../STM32Cube_FW_F4_V1.4.0/Drivers/CMSIS/Include/core_cmInstr.h **** 
 242:../STM32Cube_FW_F4_V1.4.0/Drivers/CMSIS/Include/core_cmInstr.h ****     This function executes a exclusive STR instruction for 32 bit values.
 243:../STM32Cube_FW_F4_V1.4.0/Drivers/CMSIS/Include/core_cmInstr.h **** 
 244:../STM32Cube_FW_F4_V1.4.0/Drivers/CMSIS/Include/core_cmInstr.h ****     \param [in]  value  Value to store
 245:../STM32Cube_FW_F4_V1.4.0/Drivers/CMSIS/Include/core_cmInstr.h ****     \param [in]    ptr  Pointer to location
 246:../STM32Cube_FW_F4_V1.4.0/Drivers/CMSIS/Include/core_cmInstr.h ****     \return          0  Function succeeded
 247:../STM32Cube_FW_F4_V1.4.0/Drivers/CMSIS/Include/core_cmInstr.h ****     \return          1  Function failed
 248:../STM32Cube_FW_F4_V1.4.0/Drivers/CMSIS/Include/core_cmInstr.h ****  */
 249:../STM32Cube_FW_F4_V1.4.0/Drivers/CMSIS/Include/core_cmInstr.h **** #define __STREXW(value, ptr)              __strex(value, ptr)
 250:../STM32Cube_FW_F4_V1.4.0/Drivers/CMSIS/Include/core_cmInstr.h **** 
 251:../STM32Cube_FW_F4_V1.4.0/Drivers/CMSIS/Include/core_cmInstr.h **** 
 252:../STM32Cube_FW_F4_V1.4.0/Drivers/CMSIS/Include/core_cmInstr.h **** /** \brief  Remove the exclusive lock
 253:../STM32Cube_FW_F4_V1.4.0/Drivers/CMSIS/Include/core_cmInstr.h **** 
 254:../STM32Cube_FW_F4_V1.4.0/Drivers/CMSIS/Include/core_cmInstr.h ****     This function removes the exclusive lock which is created by LDREX.
 255:../STM32Cube_FW_F4_V1.4.0/Drivers/CMSIS/Include/core_cmInstr.h **** 
 256:../STM32Cube_FW_F4_V1.4.0/Drivers/CMSIS/Include/core_cmInstr.h ****  */
 257:../STM32Cube_FW_F4_V1.4.0/Drivers/CMSIS/Include/core_cmInstr.h **** #define __CLREX                           __clrex
 258:../STM32Cube_FW_F4_V1.4.0/Drivers/CMSIS/Include/core_cmInstr.h **** 
 259:../STM32Cube_FW_F4_V1.4.0/Drivers/CMSIS/Include/core_cmInstr.h **** 
 260:../STM32Cube_FW_F4_V1.4.0/Drivers/CMSIS/Include/core_cmInstr.h **** /** \brief  Signed Saturate
 261:../STM32Cube_FW_F4_V1.4.0/Drivers/CMSIS/Include/core_cmInstr.h **** 
 262:../STM32Cube_FW_F4_V1.4.0/Drivers/CMSIS/Include/core_cmInstr.h ****     This function saturates a signed value.
 263:../STM32Cube_FW_F4_V1.4.0/Drivers/CMSIS/Include/core_cmInstr.h **** 
 264:../STM32Cube_FW_F4_V1.4.0/Drivers/CMSIS/Include/core_cmInstr.h ****     \param [in]  value  Value to be saturated
 265:../STM32Cube_FW_F4_V1.4.0/Drivers/CMSIS/Include/core_cmInstr.h ****     \param [in]    sat  Bit position to saturate to (1..32)
 266:../STM32Cube_FW_F4_V1.4.0/Drivers/CMSIS/Include/core_cmInstr.h ****     \return             Saturated value
 267:../STM32Cube_FW_F4_V1.4.0/Drivers/CMSIS/Include/core_cmInstr.h ****  */
 268:../STM32Cube_FW_F4_V1.4.0/Drivers/CMSIS/Include/core_cmInstr.h **** #define __SSAT                            __ssat
 269:../STM32Cube_FW_F4_V1.4.0/Drivers/CMSIS/Include/core_cmInstr.h **** 
 270:../STM32Cube_FW_F4_V1.4.0/Drivers/CMSIS/Include/core_cmInstr.h **** 
 271:../STM32Cube_FW_F4_V1.4.0/Drivers/CMSIS/Include/core_cmInstr.h **** /** \brief  Unsigned Saturate
 272:../STM32Cube_FW_F4_V1.4.0/Drivers/CMSIS/Include/core_cmInstr.h **** 
 273:../STM32Cube_FW_F4_V1.4.0/Drivers/CMSIS/Include/core_cmInstr.h ****     This function saturates an unsigned value.
 274:../STM32Cube_FW_F4_V1.4.0/Drivers/CMSIS/Include/core_cmInstr.h **** 
 275:../STM32Cube_FW_F4_V1.4.0/Drivers/CMSIS/Include/core_cmInstr.h ****     \param [in]  value  Value to be saturated
 276:../STM32Cube_FW_F4_V1.4.0/Drivers/CMSIS/Include/core_cmInstr.h ****     \param [in]    sat  Bit position to saturate to (0..31)
 277:../STM32Cube_FW_F4_V1.4.0/Drivers/CMSIS/Include/core_cmInstr.h ****     \return             Saturated value
 278:../STM32Cube_FW_F4_V1.4.0/Drivers/CMSIS/Include/core_cmInstr.h ****  */
 279:../STM32Cube_FW_F4_V1.4.0/Drivers/CMSIS/Include/core_cmInstr.h **** #define __USAT                            __usat
 280:../STM32Cube_FW_F4_V1.4.0/Drivers/CMSIS/Include/core_cmInstr.h **** 
 281:../STM32Cube_FW_F4_V1.4.0/Drivers/CMSIS/Include/core_cmInstr.h **** 
 282:../STM32Cube_FW_F4_V1.4.0/Drivers/CMSIS/Include/core_cmInstr.h **** /** \brief  Count leading zeros
 283:../STM32Cube_FW_F4_V1.4.0/Drivers/CMSIS/Include/core_cmInstr.h **** 
 284:../STM32Cube_FW_F4_V1.4.0/Drivers/CMSIS/Include/core_cmInstr.h ****     This function counts the number of leading zeros of a data value.
 285:../STM32Cube_FW_F4_V1.4.0/Drivers/CMSIS/Include/core_cmInstr.h **** 
 286:../STM32Cube_FW_F4_V1.4.0/Drivers/CMSIS/Include/core_cmInstr.h ****     \param [in]  value  Value to count the leading zeros
 287:../STM32Cube_FW_F4_V1.4.0/Drivers/CMSIS/Include/core_cmInstr.h ****     \return             number of leading zeros in value
 288:../STM32Cube_FW_F4_V1.4.0/Drivers/CMSIS/Include/core_cmInstr.h ****  */
 289:../STM32Cube_FW_F4_V1.4.0/Drivers/CMSIS/Include/core_cmInstr.h **** #define __CLZ                             __clz
 290:../STM32Cube_FW_F4_V1.4.0/Drivers/CMSIS/Include/core_cmInstr.h **** 
 291:../STM32Cube_FW_F4_V1.4.0/Drivers/CMSIS/Include/core_cmInstr.h **** 
 292:../STM32Cube_FW_F4_V1.4.0/Drivers/CMSIS/Include/core_cmInstr.h **** /** \brief  Rotate Right with Extend (32 bit)
ARM GAS  C:\cygwin\tmp\cc4kSEDe.s 			page 17


 293:../STM32Cube_FW_F4_V1.4.0/Drivers/CMSIS/Include/core_cmInstr.h **** 
 294:../STM32Cube_FW_F4_V1.4.0/Drivers/CMSIS/Include/core_cmInstr.h ****     This function moves each bit of a bitstring right by one bit. The carry input is shifted in at 
 295:../STM32Cube_FW_F4_V1.4.0/Drivers/CMSIS/Include/core_cmInstr.h **** 
 296:../STM32Cube_FW_F4_V1.4.0/Drivers/CMSIS/Include/core_cmInstr.h ****     \param [in]    value  Value to rotate
 297:../STM32Cube_FW_F4_V1.4.0/Drivers/CMSIS/Include/core_cmInstr.h ****     \return               Rotated value
 298:../STM32Cube_FW_F4_V1.4.0/Drivers/CMSIS/Include/core_cmInstr.h ****  */
 299:../STM32Cube_FW_F4_V1.4.0/Drivers/CMSIS/Include/core_cmInstr.h **** #ifndef __NO_EMBEDDED_ASM
 300:../STM32Cube_FW_F4_V1.4.0/Drivers/CMSIS/Include/core_cmInstr.h **** __attribute__((section(".rrx_text"))) __STATIC_INLINE __ASM uint32_t __RRX(uint32_t value)
 301:../STM32Cube_FW_F4_V1.4.0/Drivers/CMSIS/Include/core_cmInstr.h **** {
 302:../STM32Cube_FW_F4_V1.4.0/Drivers/CMSIS/Include/core_cmInstr.h ****   rrx r0, r0
 303:../STM32Cube_FW_F4_V1.4.0/Drivers/CMSIS/Include/core_cmInstr.h ****   bx lr
 304:../STM32Cube_FW_F4_V1.4.0/Drivers/CMSIS/Include/core_cmInstr.h **** }
 305:../STM32Cube_FW_F4_V1.4.0/Drivers/CMSIS/Include/core_cmInstr.h **** #endif
 306:../STM32Cube_FW_F4_V1.4.0/Drivers/CMSIS/Include/core_cmInstr.h **** 
 307:../STM32Cube_FW_F4_V1.4.0/Drivers/CMSIS/Include/core_cmInstr.h **** 
 308:../STM32Cube_FW_F4_V1.4.0/Drivers/CMSIS/Include/core_cmInstr.h **** /** \brief  LDRT Unprivileged (8 bit)
 309:../STM32Cube_FW_F4_V1.4.0/Drivers/CMSIS/Include/core_cmInstr.h **** 
 310:../STM32Cube_FW_F4_V1.4.0/Drivers/CMSIS/Include/core_cmInstr.h ****     This function executes a Unprivileged LDRT instruction for 8 bit value.
 311:../STM32Cube_FW_F4_V1.4.0/Drivers/CMSIS/Include/core_cmInstr.h **** 
 312:../STM32Cube_FW_F4_V1.4.0/Drivers/CMSIS/Include/core_cmInstr.h ****     \param [in]    ptr  Pointer to data
 313:../STM32Cube_FW_F4_V1.4.0/Drivers/CMSIS/Include/core_cmInstr.h ****     \return             value of type uint8_t at (*ptr)
 314:../STM32Cube_FW_F4_V1.4.0/Drivers/CMSIS/Include/core_cmInstr.h ****  */
 315:../STM32Cube_FW_F4_V1.4.0/Drivers/CMSIS/Include/core_cmInstr.h **** #define __LDRBT(ptr)                      ((uint8_t )  __ldrt(ptr))
 316:../STM32Cube_FW_F4_V1.4.0/Drivers/CMSIS/Include/core_cmInstr.h **** 
 317:../STM32Cube_FW_F4_V1.4.0/Drivers/CMSIS/Include/core_cmInstr.h **** 
 318:../STM32Cube_FW_F4_V1.4.0/Drivers/CMSIS/Include/core_cmInstr.h **** /** \brief  LDRT Unprivileged (16 bit)
 319:../STM32Cube_FW_F4_V1.4.0/Drivers/CMSIS/Include/core_cmInstr.h **** 
 320:../STM32Cube_FW_F4_V1.4.0/Drivers/CMSIS/Include/core_cmInstr.h ****     This function executes a Unprivileged LDRT instruction for 16 bit values.
 321:../STM32Cube_FW_F4_V1.4.0/Drivers/CMSIS/Include/core_cmInstr.h **** 
 322:../STM32Cube_FW_F4_V1.4.0/Drivers/CMSIS/Include/core_cmInstr.h ****     \param [in]    ptr  Pointer to data
 323:../STM32Cube_FW_F4_V1.4.0/Drivers/CMSIS/Include/core_cmInstr.h ****     \return        value of type uint16_t at (*ptr)
 324:../STM32Cube_FW_F4_V1.4.0/Drivers/CMSIS/Include/core_cmInstr.h ****  */
 325:../STM32Cube_FW_F4_V1.4.0/Drivers/CMSIS/Include/core_cmInstr.h **** #define __LDRHT(ptr)                      ((uint16_t)  __ldrt(ptr))
 326:../STM32Cube_FW_F4_V1.4.0/Drivers/CMSIS/Include/core_cmInstr.h **** 
 327:../STM32Cube_FW_F4_V1.4.0/Drivers/CMSIS/Include/core_cmInstr.h **** 
 328:../STM32Cube_FW_F4_V1.4.0/Drivers/CMSIS/Include/core_cmInstr.h **** /** \brief  LDRT Unprivileged (32 bit)
 329:../STM32Cube_FW_F4_V1.4.0/Drivers/CMSIS/Include/core_cmInstr.h **** 
 330:../STM32Cube_FW_F4_V1.4.0/Drivers/CMSIS/Include/core_cmInstr.h ****     This function executes a Unprivileged LDRT instruction for 32 bit values.
 331:../STM32Cube_FW_F4_V1.4.0/Drivers/CMSIS/Include/core_cmInstr.h **** 
 332:../STM32Cube_FW_F4_V1.4.0/Drivers/CMSIS/Include/core_cmInstr.h ****     \param [in]    ptr  Pointer to data
 333:../STM32Cube_FW_F4_V1.4.0/Drivers/CMSIS/Include/core_cmInstr.h ****     \return        value of type uint32_t at (*ptr)
 334:../STM32Cube_FW_F4_V1.4.0/Drivers/CMSIS/Include/core_cmInstr.h ****  */
 335:../STM32Cube_FW_F4_V1.4.0/Drivers/CMSIS/Include/core_cmInstr.h **** #define __LDRT(ptr)                       ((uint32_t ) __ldrt(ptr))
 336:../STM32Cube_FW_F4_V1.4.0/Drivers/CMSIS/Include/core_cmInstr.h **** 
 337:../STM32Cube_FW_F4_V1.4.0/Drivers/CMSIS/Include/core_cmInstr.h **** 
 338:../STM32Cube_FW_F4_V1.4.0/Drivers/CMSIS/Include/core_cmInstr.h **** /** \brief  STRT Unprivileged (8 bit)
 339:../STM32Cube_FW_F4_V1.4.0/Drivers/CMSIS/Include/core_cmInstr.h **** 
 340:../STM32Cube_FW_F4_V1.4.0/Drivers/CMSIS/Include/core_cmInstr.h ****     This function executes a Unprivileged STRT instruction for 8 bit values.
 341:../STM32Cube_FW_F4_V1.4.0/Drivers/CMSIS/Include/core_cmInstr.h **** 
 342:../STM32Cube_FW_F4_V1.4.0/Drivers/CMSIS/Include/core_cmInstr.h ****     \param [in]  value  Value to store
 343:../STM32Cube_FW_F4_V1.4.0/Drivers/CMSIS/Include/core_cmInstr.h ****     \param [in]    ptr  Pointer to location
 344:../STM32Cube_FW_F4_V1.4.0/Drivers/CMSIS/Include/core_cmInstr.h ****  */
 345:../STM32Cube_FW_F4_V1.4.0/Drivers/CMSIS/Include/core_cmInstr.h **** #define __STRBT(value, ptr)               __strt(value, ptr)
 346:../STM32Cube_FW_F4_V1.4.0/Drivers/CMSIS/Include/core_cmInstr.h **** 
 347:../STM32Cube_FW_F4_V1.4.0/Drivers/CMSIS/Include/core_cmInstr.h **** 
 348:../STM32Cube_FW_F4_V1.4.0/Drivers/CMSIS/Include/core_cmInstr.h **** /** \brief  STRT Unprivileged (16 bit)
 349:../STM32Cube_FW_F4_V1.4.0/Drivers/CMSIS/Include/core_cmInstr.h **** 
ARM GAS  C:\cygwin\tmp\cc4kSEDe.s 			page 18


 350:../STM32Cube_FW_F4_V1.4.0/Drivers/CMSIS/Include/core_cmInstr.h ****     This function executes a Unprivileged STRT instruction for 16 bit values.
 351:../STM32Cube_FW_F4_V1.4.0/Drivers/CMSIS/Include/core_cmInstr.h **** 
 352:../STM32Cube_FW_F4_V1.4.0/Drivers/CMSIS/Include/core_cmInstr.h ****     \param [in]  value  Value to store
 353:../STM32Cube_FW_F4_V1.4.0/Drivers/CMSIS/Include/core_cmInstr.h ****     \param [in]    ptr  Pointer to location
 354:../STM32Cube_FW_F4_V1.4.0/Drivers/CMSIS/Include/core_cmInstr.h ****  */
 355:../STM32Cube_FW_F4_V1.4.0/Drivers/CMSIS/Include/core_cmInstr.h **** #define __STRHT(value, ptr)               __strt(value, ptr)
 356:../STM32Cube_FW_F4_V1.4.0/Drivers/CMSIS/Include/core_cmInstr.h **** 
 357:../STM32Cube_FW_F4_V1.4.0/Drivers/CMSIS/Include/core_cmInstr.h **** 
 358:../STM32Cube_FW_F4_V1.4.0/Drivers/CMSIS/Include/core_cmInstr.h **** /** \brief  STRT Unprivileged (32 bit)
 359:../STM32Cube_FW_F4_V1.4.0/Drivers/CMSIS/Include/core_cmInstr.h **** 
 360:../STM32Cube_FW_F4_V1.4.0/Drivers/CMSIS/Include/core_cmInstr.h ****     This function executes a Unprivileged STRT instruction for 32 bit values.
 361:../STM32Cube_FW_F4_V1.4.0/Drivers/CMSIS/Include/core_cmInstr.h **** 
 362:../STM32Cube_FW_F4_V1.4.0/Drivers/CMSIS/Include/core_cmInstr.h ****     \param [in]  value  Value to store
 363:../STM32Cube_FW_F4_V1.4.0/Drivers/CMSIS/Include/core_cmInstr.h ****     \param [in]    ptr  Pointer to location
 364:../STM32Cube_FW_F4_V1.4.0/Drivers/CMSIS/Include/core_cmInstr.h ****  */
 365:../STM32Cube_FW_F4_V1.4.0/Drivers/CMSIS/Include/core_cmInstr.h **** #define __STRT(value, ptr)                __strt(value, ptr)
 366:../STM32Cube_FW_F4_V1.4.0/Drivers/CMSIS/Include/core_cmInstr.h **** 
 367:../STM32Cube_FW_F4_V1.4.0/Drivers/CMSIS/Include/core_cmInstr.h **** #endif /* (__CORTEX_M >= 0x03) || (__CORTEX_SC >= 300) */
 368:../STM32Cube_FW_F4_V1.4.0/Drivers/CMSIS/Include/core_cmInstr.h **** 
 369:../STM32Cube_FW_F4_V1.4.0/Drivers/CMSIS/Include/core_cmInstr.h **** 
 370:../STM32Cube_FW_F4_V1.4.0/Drivers/CMSIS/Include/core_cmInstr.h **** #elif defined ( __GNUC__ ) /*------------------ GNU Compiler ---------------------*/
 371:../STM32Cube_FW_F4_V1.4.0/Drivers/CMSIS/Include/core_cmInstr.h **** /* GNU gcc specific functions */
 372:../STM32Cube_FW_F4_V1.4.0/Drivers/CMSIS/Include/core_cmInstr.h **** 
 373:../STM32Cube_FW_F4_V1.4.0/Drivers/CMSIS/Include/core_cmInstr.h **** /* Define macros for porting to both thumb1 and thumb2.
 374:../STM32Cube_FW_F4_V1.4.0/Drivers/CMSIS/Include/core_cmInstr.h ****  * For thumb1, use low register (r0-r7), specified by constrant "l"
 375:../STM32Cube_FW_F4_V1.4.0/Drivers/CMSIS/Include/core_cmInstr.h ****  * Otherwise, use general registers, specified by constrant "r" */
 376:../STM32Cube_FW_F4_V1.4.0/Drivers/CMSIS/Include/core_cmInstr.h **** #if defined (__thumb__) && !defined (__thumb2__)
 377:../STM32Cube_FW_F4_V1.4.0/Drivers/CMSIS/Include/core_cmInstr.h **** #define __CMSIS_GCC_OUT_REG(r) "=l" (r)
 378:../STM32Cube_FW_F4_V1.4.0/Drivers/CMSIS/Include/core_cmInstr.h **** #define __CMSIS_GCC_USE_REG(r) "l" (r)
 379:../STM32Cube_FW_F4_V1.4.0/Drivers/CMSIS/Include/core_cmInstr.h **** #else
 380:../STM32Cube_FW_F4_V1.4.0/Drivers/CMSIS/Include/core_cmInstr.h **** #define __CMSIS_GCC_OUT_REG(r) "=r" (r)
 381:../STM32Cube_FW_F4_V1.4.0/Drivers/CMSIS/Include/core_cmInstr.h **** #define __CMSIS_GCC_USE_REG(r) "r" (r)
 382:../STM32Cube_FW_F4_V1.4.0/Drivers/CMSIS/Include/core_cmInstr.h **** #endif
 383:../STM32Cube_FW_F4_V1.4.0/Drivers/CMSIS/Include/core_cmInstr.h **** 
 384:../STM32Cube_FW_F4_V1.4.0/Drivers/CMSIS/Include/core_cmInstr.h **** /** \brief  No Operation
 385:../STM32Cube_FW_F4_V1.4.0/Drivers/CMSIS/Include/core_cmInstr.h **** 
 386:../STM32Cube_FW_F4_V1.4.0/Drivers/CMSIS/Include/core_cmInstr.h ****     No Operation does nothing. This instruction can be used for code alignment purposes.
 387:../STM32Cube_FW_F4_V1.4.0/Drivers/CMSIS/Include/core_cmInstr.h ****  */
 388:../STM32Cube_FW_F4_V1.4.0/Drivers/CMSIS/Include/core_cmInstr.h **** __attribute__( ( always_inline ) ) __STATIC_INLINE void __NOP(void)
 389:../STM32Cube_FW_F4_V1.4.0/Drivers/CMSIS/Include/core_cmInstr.h **** {
 390:../STM32Cube_FW_F4_V1.4.0/Drivers/CMSIS/Include/core_cmInstr.h ****   __ASM volatile ("nop");
 391:../STM32Cube_FW_F4_V1.4.0/Drivers/CMSIS/Include/core_cmInstr.h **** }
 392:../STM32Cube_FW_F4_V1.4.0/Drivers/CMSIS/Include/core_cmInstr.h **** 
 393:../STM32Cube_FW_F4_V1.4.0/Drivers/CMSIS/Include/core_cmInstr.h **** 
 394:../STM32Cube_FW_F4_V1.4.0/Drivers/CMSIS/Include/core_cmInstr.h **** /** \brief  Wait For Interrupt
 395:../STM32Cube_FW_F4_V1.4.0/Drivers/CMSIS/Include/core_cmInstr.h **** 
 396:../STM32Cube_FW_F4_V1.4.0/Drivers/CMSIS/Include/core_cmInstr.h ****     Wait For Interrupt is a hint instruction that suspends execution
 397:../STM32Cube_FW_F4_V1.4.0/Drivers/CMSIS/Include/core_cmInstr.h ****     until one of a number of events occurs.
 398:../STM32Cube_FW_F4_V1.4.0/Drivers/CMSIS/Include/core_cmInstr.h ****  */
 399:../STM32Cube_FW_F4_V1.4.0/Drivers/CMSIS/Include/core_cmInstr.h **** __attribute__( ( always_inline ) ) __STATIC_INLINE void __WFI(void)
 400:../STM32Cube_FW_F4_V1.4.0/Drivers/CMSIS/Include/core_cmInstr.h **** {
 401:../STM32Cube_FW_F4_V1.4.0/Drivers/CMSIS/Include/core_cmInstr.h ****   __ASM volatile ("wfi");
 402:../STM32Cube_FW_F4_V1.4.0/Drivers/CMSIS/Include/core_cmInstr.h **** }
 403:../STM32Cube_FW_F4_V1.4.0/Drivers/CMSIS/Include/core_cmInstr.h **** 
 404:../STM32Cube_FW_F4_V1.4.0/Drivers/CMSIS/Include/core_cmInstr.h **** 
 405:../STM32Cube_FW_F4_V1.4.0/Drivers/CMSIS/Include/core_cmInstr.h **** /** \brief  Wait For Event
 406:../STM32Cube_FW_F4_V1.4.0/Drivers/CMSIS/Include/core_cmInstr.h **** 
ARM GAS  C:\cygwin\tmp\cc4kSEDe.s 			page 19


 407:../STM32Cube_FW_F4_V1.4.0/Drivers/CMSIS/Include/core_cmInstr.h ****     Wait For Event is a hint instruction that permits the processor to enter
 408:../STM32Cube_FW_F4_V1.4.0/Drivers/CMSIS/Include/core_cmInstr.h ****     a low-power state until one of a number of events occurs.
 409:../STM32Cube_FW_F4_V1.4.0/Drivers/CMSIS/Include/core_cmInstr.h ****  */
 410:../STM32Cube_FW_F4_V1.4.0/Drivers/CMSIS/Include/core_cmInstr.h **** __attribute__( ( always_inline ) ) __STATIC_INLINE void __WFE(void)
 411:../STM32Cube_FW_F4_V1.4.0/Drivers/CMSIS/Include/core_cmInstr.h **** {
 412:../STM32Cube_FW_F4_V1.4.0/Drivers/CMSIS/Include/core_cmInstr.h ****   __ASM volatile ("wfe");
 413:../STM32Cube_FW_F4_V1.4.0/Drivers/CMSIS/Include/core_cmInstr.h **** }
 414:../STM32Cube_FW_F4_V1.4.0/Drivers/CMSIS/Include/core_cmInstr.h **** 
 415:../STM32Cube_FW_F4_V1.4.0/Drivers/CMSIS/Include/core_cmInstr.h **** 
 416:../STM32Cube_FW_F4_V1.4.0/Drivers/CMSIS/Include/core_cmInstr.h **** /** \brief  Send Event
 417:../STM32Cube_FW_F4_V1.4.0/Drivers/CMSIS/Include/core_cmInstr.h **** 
 418:../STM32Cube_FW_F4_V1.4.0/Drivers/CMSIS/Include/core_cmInstr.h ****     Send Event is a hint instruction. It causes an event to be signaled to the CPU.
 419:../STM32Cube_FW_F4_V1.4.0/Drivers/CMSIS/Include/core_cmInstr.h ****  */
 420:../STM32Cube_FW_F4_V1.4.0/Drivers/CMSIS/Include/core_cmInstr.h **** __attribute__( ( always_inline ) ) __STATIC_INLINE void __SEV(void)
 421:../STM32Cube_FW_F4_V1.4.0/Drivers/CMSIS/Include/core_cmInstr.h **** {
 422:../STM32Cube_FW_F4_V1.4.0/Drivers/CMSIS/Include/core_cmInstr.h ****   __ASM volatile ("sev");
 423:../STM32Cube_FW_F4_V1.4.0/Drivers/CMSIS/Include/core_cmInstr.h **** }
 424:../STM32Cube_FW_F4_V1.4.0/Drivers/CMSIS/Include/core_cmInstr.h **** 
 425:../STM32Cube_FW_F4_V1.4.0/Drivers/CMSIS/Include/core_cmInstr.h **** 
 426:../STM32Cube_FW_F4_V1.4.0/Drivers/CMSIS/Include/core_cmInstr.h **** /** \brief  Instruction Synchronization Barrier
 427:../STM32Cube_FW_F4_V1.4.0/Drivers/CMSIS/Include/core_cmInstr.h **** 
 428:../STM32Cube_FW_F4_V1.4.0/Drivers/CMSIS/Include/core_cmInstr.h ****     Instruction Synchronization Barrier flushes the pipeline in the processor,
 429:../STM32Cube_FW_F4_V1.4.0/Drivers/CMSIS/Include/core_cmInstr.h ****     so that all instructions following the ISB are fetched from cache or
 430:../STM32Cube_FW_F4_V1.4.0/Drivers/CMSIS/Include/core_cmInstr.h ****     memory, after the instruction has been completed.
 431:../STM32Cube_FW_F4_V1.4.0/Drivers/CMSIS/Include/core_cmInstr.h ****  */
 432:../STM32Cube_FW_F4_V1.4.0/Drivers/CMSIS/Include/core_cmInstr.h **** __attribute__( ( always_inline ) ) __STATIC_INLINE void __ISB(void)
 433:../STM32Cube_FW_F4_V1.4.0/Drivers/CMSIS/Include/core_cmInstr.h **** {
 434:../STM32Cube_FW_F4_V1.4.0/Drivers/CMSIS/Include/core_cmInstr.h ****   __ASM volatile ("isb");
 435:../STM32Cube_FW_F4_V1.4.0/Drivers/CMSIS/Include/core_cmInstr.h **** }
 436:../STM32Cube_FW_F4_V1.4.0/Drivers/CMSIS/Include/core_cmInstr.h **** 
 437:../STM32Cube_FW_F4_V1.4.0/Drivers/CMSIS/Include/core_cmInstr.h **** 
 438:../STM32Cube_FW_F4_V1.4.0/Drivers/CMSIS/Include/core_cmInstr.h **** /** \brief  Data Synchronization Barrier
 439:../STM32Cube_FW_F4_V1.4.0/Drivers/CMSIS/Include/core_cmInstr.h **** 
 440:../STM32Cube_FW_F4_V1.4.0/Drivers/CMSIS/Include/core_cmInstr.h ****     This function acts as a special kind of Data Memory Barrier.
 441:../STM32Cube_FW_F4_V1.4.0/Drivers/CMSIS/Include/core_cmInstr.h ****     It completes when all explicit memory accesses before this instruction complete.
 442:../STM32Cube_FW_F4_V1.4.0/Drivers/CMSIS/Include/core_cmInstr.h ****  */
 443:../STM32Cube_FW_F4_V1.4.0/Drivers/CMSIS/Include/core_cmInstr.h **** __attribute__( ( always_inline ) ) __STATIC_INLINE void __DSB(void)
 444:../STM32Cube_FW_F4_V1.4.0/Drivers/CMSIS/Include/core_cmInstr.h **** {
 445:../STM32Cube_FW_F4_V1.4.0/Drivers/CMSIS/Include/core_cmInstr.h ****   __ASM volatile ("dsb");
 446:../STM32Cube_FW_F4_V1.4.0/Drivers/CMSIS/Include/core_cmInstr.h **** }
 447:../STM32Cube_FW_F4_V1.4.0/Drivers/CMSIS/Include/core_cmInstr.h **** 
 448:../STM32Cube_FW_F4_V1.4.0/Drivers/CMSIS/Include/core_cmInstr.h **** 
 449:../STM32Cube_FW_F4_V1.4.0/Drivers/CMSIS/Include/core_cmInstr.h **** /** \brief  Data Memory Barrier
 450:../STM32Cube_FW_F4_V1.4.0/Drivers/CMSIS/Include/core_cmInstr.h **** 
 451:../STM32Cube_FW_F4_V1.4.0/Drivers/CMSIS/Include/core_cmInstr.h ****     This function ensures the apparent order of the explicit memory operations before
 452:../STM32Cube_FW_F4_V1.4.0/Drivers/CMSIS/Include/core_cmInstr.h ****     and after the instruction, without ensuring their completion.
 453:../STM32Cube_FW_F4_V1.4.0/Drivers/CMSIS/Include/core_cmInstr.h ****  */
 454:../STM32Cube_FW_F4_V1.4.0/Drivers/CMSIS/Include/core_cmInstr.h **** __attribute__( ( always_inline ) ) __STATIC_INLINE void __DMB(void)
 455:../STM32Cube_FW_F4_V1.4.0/Drivers/CMSIS/Include/core_cmInstr.h **** {
 456:../STM32Cube_FW_F4_V1.4.0/Drivers/CMSIS/Include/core_cmInstr.h ****   __ASM volatile ("dmb");
 457:../STM32Cube_FW_F4_V1.4.0/Drivers/CMSIS/Include/core_cmInstr.h **** }
 458:../STM32Cube_FW_F4_V1.4.0/Drivers/CMSIS/Include/core_cmInstr.h **** 
 459:../STM32Cube_FW_F4_V1.4.0/Drivers/CMSIS/Include/core_cmInstr.h **** 
 460:../STM32Cube_FW_F4_V1.4.0/Drivers/CMSIS/Include/core_cmInstr.h **** /** \brief  Reverse byte order (32 bit)
 461:../STM32Cube_FW_F4_V1.4.0/Drivers/CMSIS/Include/core_cmInstr.h **** 
 462:../STM32Cube_FW_F4_V1.4.0/Drivers/CMSIS/Include/core_cmInstr.h ****     This function reverses the byte order in integer value.
 463:../STM32Cube_FW_F4_V1.4.0/Drivers/CMSIS/Include/core_cmInstr.h **** 
ARM GAS  C:\cygwin\tmp\cc4kSEDe.s 			page 20


 464:../STM32Cube_FW_F4_V1.4.0/Drivers/CMSIS/Include/core_cmInstr.h ****     \param [in]    value  Value to reverse
 465:../STM32Cube_FW_F4_V1.4.0/Drivers/CMSIS/Include/core_cmInstr.h ****     \return               Reversed value
 466:../STM32Cube_FW_F4_V1.4.0/Drivers/CMSIS/Include/core_cmInstr.h ****  */
 467:../STM32Cube_FW_F4_V1.4.0/Drivers/CMSIS/Include/core_cmInstr.h **** __attribute__( ( always_inline ) ) __STATIC_INLINE uint32_t __REV(uint32_t value)
 468:../STM32Cube_FW_F4_V1.4.0/Drivers/CMSIS/Include/core_cmInstr.h **** {
 469:../STM32Cube_FW_F4_V1.4.0/Drivers/CMSIS/Include/core_cmInstr.h **** #if (__GNUC__ > 4) || (__GNUC__ == 4 && __GNUC_MINOR__ >= 5)
 470:../STM32Cube_FW_F4_V1.4.0/Drivers/CMSIS/Include/core_cmInstr.h ****   return __builtin_bswap32(value);
 471:../STM32Cube_FW_F4_V1.4.0/Drivers/CMSIS/Include/core_cmInstr.h **** #else
 472:../STM32Cube_FW_F4_V1.4.0/Drivers/CMSIS/Include/core_cmInstr.h ****   uint32_t result;
 473:../STM32Cube_FW_F4_V1.4.0/Drivers/CMSIS/Include/core_cmInstr.h **** 
 474:../STM32Cube_FW_F4_V1.4.0/Drivers/CMSIS/Include/core_cmInstr.h ****   __ASM volatile ("rev %0, %1" : __CMSIS_GCC_OUT_REG (result) : __CMSIS_GCC_USE_REG (value) );
 475:../STM32Cube_FW_F4_V1.4.0/Drivers/CMSIS/Include/core_cmInstr.h ****   return(result);
 476:../STM32Cube_FW_F4_V1.4.0/Drivers/CMSIS/Include/core_cmInstr.h **** #endif
 477:../STM32Cube_FW_F4_V1.4.0/Drivers/CMSIS/Include/core_cmInstr.h **** }
 478:../STM32Cube_FW_F4_V1.4.0/Drivers/CMSIS/Include/core_cmInstr.h **** 
 479:../STM32Cube_FW_F4_V1.4.0/Drivers/CMSIS/Include/core_cmInstr.h **** 
 480:../STM32Cube_FW_F4_V1.4.0/Drivers/CMSIS/Include/core_cmInstr.h **** /** \brief  Reverse byte order (16 bit)
 481:../STM32Cube_FW_F4_V1.4.0/Drivers/CMSIS/Include/core_cmInstr.h **** 
 482:../STM32Cube_FW_F4_V1.4.0/Drivers/CMSIS/Include/core_cmInstr.h ****     This function reverses the byte order in two unsigned short values.
 483:../STM32Cube_FW_F4_V1.4.0/Drivers/CMSIS/Include/core_cmInstr.h **** 
 484:../STM32Cube_FW_F4_V1.4.0/Drivers/CMSIS/Include/core_cmInstr.h ****     \param [in]    value  Value to reverse
 485:../STM32Cube_FW_F4_V1.4.0/Drivers/CMSIS/Include/core_cmInstr.h ****     \return               Reversed value
 486:../STM32Cube_FW_F4_V1.4.0/Drivers/CMSIS/Include/core_cmInstr.h ****  */
 487:../STM32Cube_FW_F4_V1.4.0/Drivers/CMSIS/Include/core_cmInstr.h **** __attribute__( ( always_inline ) ) __STATIC_INLINE uint32_t __REV16(uint32_t value)
 488:../STM32Cube_FW_F4_V1.4.0/Drivers/CMSIS/Include/core_cmInstr.h **** {
 489:../STM32Cube_FW_F4_V1.4.0/Drivers/CMSIS/Include/core_cmInstr.h ****   uint32_t result;
 490:../STM32Cube_FW_F4_V1.4.0/Drivers/CMSIS/Include/core_cmInstr.h **** 
 491:../STM32Cube_FW_F4_V1.4.0/Drivers/CMSIS/Include/core_cmInstr.h ****   __ASM volatile ("rev16 %0, %1" : __CMSIS_GCC_OUT_REG (result) : __CMSIS_GCC_USE_REG (value) );
 492:../STM32Cube_FW_F4_V1.4.0/Drivers/CMSIS/Include/core_cmInstr.h ****   return(result);
 493:../STM32Cube_FW_F4_V1.4.0/Drivers/CMSIS/Include/core_cmInstr.h **** }
 494:../STM32Cube_FW_F4_V1.4.0/Drivers/CMSIS/Include/core_cmInstr.h **** 
 495:../STM32Cube_FW_F4_V1.4.0/Drivers/CMSIS/Include/core_cmInstr.h **** 
 496:../STM32Cube_FW_F4_V1.4.0/Drivers/CMSIS/Include/core_cmInstr.h **** /** \brief  Reverse byte order in signed short value
 497:../STM32Cube_FW_F4_V1.4.0/Drivers/CMSIS/Include/core_cmInstr.h **** 
 498:../STM32Cube_FW_F4_V1.4.0/Drivers/CMSIS/Include/core_cmInstr.h ****     This function reverses the byte order in a signed short value with sign extension to integer.
 499:../STM32Cube_FW_F4_V1.4.0/Drivers/CMSIS/Include/core_cmInstr.h **** 
 500:../STM32Cube_FW_F4_V1.4.0/Drivers/CMSIS/Include/core_cmInstr.h ****     \param [in]    value  Value to reverse
 501:../STM32Cube_FW_F4_V1.4.0/Drivers/CMSIS/Include/core_cmInstr.h ****     \return               Reversed value
 502:../STM32Cube_FW_F4_V1.4.0/Drivers/CMSIS/Include/core_cmInstr.h ****  */
 503:../STM32Cube_FW_F4_V1.4.0/Drivers/CMSIS/Include/core_cmInstr.h **** __attribute__( ( always_inline ) ) __STATIC_INLINE int32_t __REVSH(int32_t value)
 504:../STM32Cube_FW_F4_V1.4.0/Drivers/CMSIS/Include/core_cmInstr.h **** {
 505:../STM32Cube_FW_F4_V1.4.0/Drivers/CMSIS/Include/core_cmInstr.h **** #if (__GNUC__ > 4) || (__GNUC__ == 4 && __GNUC_MINOR__ >= 8)
 506:../STM32Cube_FW_F4_V1.4.0/Drivers/CMSIS/Include/core_cmInstr.h ****   return (short)__builtin_bswap16(value);
 507:../STM32Cube_FW_F4_V1.4.0/Drivers/CMSIS/Include/core_cmInstr.h **** #else
 508:../STM32Cube_FW_F4_V1.4.0/Drivers/CMSIS/Include/core_cmInstr.h ****   uint32_t result;
 509:../STM32Cube_FW_F4_V1.4.0/Drivers/CMSIS/Include/core_cmInstr.h **** 
 510:../STM32Cube_FW_F4_V1.4.0/Drivers/CMSIS/Include/core_cmInstr.h ****   __ASM volatile ("revsh %0, %1" : __CMSIS_GCC_OUT_REG (result) : __CMSIS_GCC_USE_REG (value) );
 511:../STM32Cube_FW_F4_V1.4.0/Drivers/CMSIS/Include/core_cmInstr.h ****   return(result);
 512:../STM32Cube_FW_F4_V1.4.0/Drivers/CMSIS/Include/core_cmInstr.h **** #endif
 513:../STM32Cube_FW_F4_V1.4.0/Drivers/CMSIS/Include/core_cmInstr.h **** }
 514:../STM32Cube_FW_F4_V1.4.0/Drivers/CMSIS/Include/core_cmInstr.h **** 
 515:../STM32Cube_FW_F4_V1.4.0/Drivers/CMSIS/Include/core_cmInstr.h **** 
 516:../STM32Cube_FW_F4_V1.4.0/Drivers/CMSIS/Include/core_cmInstr.h **** /** \brief  Rotate Right in unsigned value (32 bit)
 517:../STM32Cube_FW_F4_V1.4.0/Drivers/CMSIS/Include/core_cmInstr.h **** 
 518:../STM32Cube_FW_F4_V1.4.0/Drivers/CMSIS/Include/core_cmInstr.h ****     This function Rotate Right (immediate) provides the value of the contents of a register rotated
 519:../STM32Cube_FW_F4_V1.4.0/Drivers/CMSIS/Include/core_cmInstr.h **** 
 520:../STM32Cube_FW_F4_V1.4.0/Drivers/CMSIS/Include/core_cmInstr.h ****     \param [in]    value  Value to rotate
ARM GAS  C:\cygwin\tmp\cc4kSEDe.s 			page 21


 521:../STM32Cube_FW_F4_V1.4.0/Drivers/CMSIS/Include/core_cmInstr.h ****     \param [in]    value  Number of Bits to rotate
 522:../STM32Cube_FW_F4_V1.4.0/Drivers/CMSIS/Include/core_cmInstr.h ****     \return               Rotated value
 523:../STM32Cube_FW_F4_V1.4.0/Drivers/CMSIS/Include/core_cmInstr.h ****  */
 524:../STM32Cube_FW_F4_V1.4.0/Drivers/CMSIS/Include/core_cmInstr.h **** __attribute__( ( always_inline ) ) __STATIC_INLINE uint32_t __ROR(uint32_t op1, uint32_t op2)
 525:../STM32Cube_FW_F4_V1.4.0/Drivers/CMSIS/Include/core_cmInstr.h **** {
 526:../STM32Cube_FW_F4_V1.4.0/Drivers/CMSIS/Include/core_cmInstr.h ****   return (op1 >> op2) | (op1 << (32 - op2)); 
 527:../STM32Cube_FW_F4_V1.4.0/Drivers/CMSIS/Include/core_cmInstr.h **** }
 528:../STM32Cube_FW_F4_V1.4.0/Drivers/CMSIS/Include/core_cmInstr.h **** 
 529:../STM32Cube_FW_F4_V1.4.0/Drivers/CMSIS/Include/core_cmInstr.h **** 
 530:../STM32Cube_FW_F4_V1.4.0/Drivers/CMSIS/Include/core_cmInstr.h **** /** \brief  Breakpoint
 531:../STM32Cube_FW_F4_V1.4.0/Drivers/CMSIS/Include/core_cmInstr.h **** 
 532:../STM32Cube_FW_F4_V1.4.0/Drivers/CMSIS/Include/core_cmInstr.h ****     This function causes the processor to enter Debug state.
 533:../STM32Cube_FW_F4_V1.4.0/Drivers/CMSIS/Include/core_cmInstr.h ****     Debug tools can use this to investigate system state when the instruction at a particular addre
 534:../STM32Cube_FW_F4_V1.4.0/Drivers/CMSIS/Include/core_cmInstr.h **** 
 535:../STM32Cube_FW_F4_V1.4.0/Drivers/CMSIS/Include/core_cmInstr.h ****     \param [in]    value  is ignored by the processor.
 536:../STM32Cube_FW_F4_V1.4.0/Drivers/CMSIS/Include/core_cmInstr.h ****                    If required, a debugger can use it to store additional information about the bre
 537:../STM32Cube_FW_F4_V1.4.0/Drivers/CMSIS/Include/core_cmInstr.h ****  */
 538:../STM32Cube_FW_F4_V1.4.0/Drivers/CMSIS/Include/core_cmInstr.h **** #define __BKPT(value)                       __ASM volatile ("bkpt "#value)
 539:../STM32Cube_FW_F4_V1.4.0/Drivers/CMSIS/Include/core_cmInstr.h **** 
 540:../STM32Cube_FW_F4_V1.4.0/Drivers/CMSIS/Include/core_cmInstr.h **** 
 541:../STM32Cube_FW_F4_V1.4.0/Drivers/CMSIS/Include/core_cmInstr.h **** #if       (__CORTEX_M >= 0x03) || (__CORTEX_SC >= 300)
 542:../STM32Cube_FW_F4_V1.4.0/Drivers/CMSIS/Include/core_cmInstr.h **** 
 543:../STM32Cube_FW_F4_V1.4.0/Drivers/CMSIS/Include/core_cmInstr.h **** /** \brief  Reverse bit order of value
 544:../STM32Cube_FW_F4_V1.4.0/Drivers/CMSIS/Include/core_cmInstr.h **** 
 545:../STM32Cube_FW_F4_V1.4.0/Drivers/CMSIS/Include/core_cmInstr.h ****     This function reverses the bit order of the given value.
 546:../STM32Cube_FW_F4_V1.4.0/Drivers/CMSIS/Include/core_cmInstr.h **** 
 547:../STM32Cube_FW_F4_V1.4.0/Drivers/CMSIS/Include/core_cmInstr.h ****     \param [in]    value  Value to reverse
 548:../STM32Cube_FW_F4_V1.4.0/Drivers/CMSIS/Include/core_cmInstr.h ****     \return               Reversed value
 549:../STM32Cube_FW_F4_V1.4.0/Drivers/CMSIS/Include/core_cmInstr.h ****  */
 550:../STM32Cube_FW_F4_V1.4.0/Drivers/CMSIS/Include/core_cmInstr.h **** __attribute__( ( always_inline ) ) __STATIC_INLINE uint32_t __RBIT(uint32_t value)
 551:../STM32Cube_FW_F4_V1.4.0/Drivers/CMSIS/Include/core_cmInstr.h **** {
 552:../STM32Cube_FW_F4_V1.4.0/Drivers/CMSIS/Include/core_cmInstr.h ****   uint32_t result;
 553:../STM32Cube_FW_F4_V1.4.0/Drivers/CMSIS/Include/core_cmInstr.h **** 
 554:../STM32Cube_FW_F4_V1.4.0/Drivers/CMSIS/Include/core_cmInstr.h ****    __ASM volatile ("rbit %0, %1" : "=r" (result) : "r" (value) );
 175              		.loc 2 554 0
 176 006c 47F6C073 		movw	r3, #32704	@ tmp197,
 177              	@ 554 "../STM32Cube_FW_F4_V1.4.0/Drivers/CMSIS/Include/core_cmInstr.h" 1
 178 0070 93FAA3F3 		rbit r3, r3	@ result, tmp197
 179              	@ 0 "" 2
 180              	.LVL12:
 181              		.thumb
 182              	.LBE19:
 183              	.LBE18:
 184              	.LBB20:
 185              	.LBB21:
 555:../STM32Cube_FW_F4_V1.4.0/Drivers/CMSIS/Include/core_cmInstr.h ****    return(result);
 556:../STM32Cube_FW_F4_V1.4.0/Drivers/CMSIS/Include/core_cmInstr.h **** }
 557:../STM32Cube_FW_F4_V1.4.0/Drivers/CMSIS/Include/core_cmInstr.h **** 
 558:../STM32Cube_FW_F4_V1.4.0/Drivers/CMSIS/Include/core_cmInstr.h **** 
 559:../STM32Cube_FW_F4_V1.4.0/Drivers/CMSIS/Include/core_cmInstr.h **** /** \brief  LDR Exclusive (8 bit)
 560:../STM32Cube_FW_F4_V1.4.0/Drivers/CMSIS/Include/core_cmInstr.h **** 
 561:../STM32Cube_FW_F4_V1.4.0/Drivers/CMSIS/Include/core_cmInstr.h ****     This function executes a exclusive LDR instruction for 8 bit value.
 562:../STM32Cube_FW_F4_V1.4.0/Drivers/CMSIS/Include/core_cmInstr.h **** 
 563:../STM32Cube_FW_F4_V1.4.0/Drivers/CMSIS/Include/core_cmInstr.h ****     \param [in]    ptr  Pointer to data
 564:../STM32Cube_FW_F4_V1.4.0/Drivers/CMSIS/Include/core_cmInstr.h ****     \return             value of type uint8_t at (*ptr)
 565:../STM32Cube_FW_F4_V1.4.0/Drivers/CMSIS/Include/core_cmInstr.h ****  */
 566:../STM32Cube_FW_F4_V1.4.0/Drivers/CMSIS/Include/core_cmInstr.h **** __attribute__( ( always_inline ) ) __STATIC_INLINE uint8_t __LDREXB(volatile uint8_t *addr)
ARM GAS  C:\cygwin\tmp\cc4kSEDe.s 			page 22


 567:../STM32Cube_FW_F4_V1.4.0/Drivers/CMSIS/Include/core_cmInstr.h **** {
 568:../STM32Cube_FW_F4_V1.4.0/Drivers/CMSIS/Include/core_cmInstr.h ****     uint32_t result;
 569:../STM32Cube_FW_F4_V1.4.0/Drivers/CMSIS/Include/core_cmInstr.h **** 
 570:../STM32Cube_FW_F4_V1.4.0/Drivers/CMSIS/Include/core_cmInstr.h **** #if (__GNUC__ > 4) || (__GNUC__ == 4 && __GNUC_MINOR__ >= 8)
 571:../STM32Cube_FW_F4_V1.4.0/Drivers/CMSIS/Include/core_cmInstr.h ****    __ASM volatile ("ldrexb %0, %1" : "=r" (result) : "Q" (*addr) );
 572:../STM32Cube_FW_F4_V1.4.0/Drivers/CMSIS/Include/core_cmInstr.h **** #else
 573:../STM32Cube_FW_F4_V1.4.0/Drivers/CMSIS/Include/core_cmInstr.h ****     /* Prior to GCC 4.8, "Q" will be expanded to [rx, #0] which is not
 574:../STM32Cube_FW_F4_V1.4.0/Drivers/CMSIS/Include/core_cmInstr.h ****        accepted by assembler. So has to use following less efficient pattern.
 575:../STM32Cube_FW_F4_V1.4.0/Drivers/CMSIS/Include/core_cmInstr.h ****     */
 576:../STM32Cube_FW_F4_V1.4.0/Drivers/CMSIS/Include/core_cmInstr.h ****    __ASM volatile ("ldrexb %0, [%1]" : "=r" (result) : "r" (addr) : "memory" );
 577:../STM32Cube_FW_F4_V1.4.0/Drivers/CMSIS/Include/core_cmInstr.h **** #endif
 578:../STM32Cube_FW_F4_V1.4.0/Drivers/CMSIS/Include/core_cmInstr.h ****    return ((uint8_t) result);    /* Add explicit type cast here */
 579:../STM32Cube_FW_F4_V1.4.0/Drivers/CMSIS/Include/core_cmInstr.h **** }
 580:../STM32Cube_FW_F4_V1.4.0/Drivers/CMSIS/Include/core_cmInstr.h **** 
 581:../STM32Cube_FW_F4_V1.4.0/Drivers/CMSIS/Include/core_cmInstr.h **** 
 582:../STM32Cube_FW_F4_V1.4.0/Drivers/CMSIS/Include/core_cmInstr.h **** /** \brief  LDR Exclusive (16 bit)
 583:../STM32Cube_FW_F4_V1.4.0/Drivers/CMSIS/Include/core_cmInstr.h **** 
 584:../STM32Cube_FW_F4_V1.4.0/Drivers/CMSIS/Include/core_cmInstr.h ****     This function executes a exclusive LDR instruction for 16 bit values.
 585:../STM32Cube_FW_F4_V1.4.0/Drivers/CMSIS/Include/core_cmInstr.h **** 
 586:../STM32Cube_FW_F4_V1.4.0/Drivers/CMSIS/Include/core_cmInstr.h ****     \param [in]    ptr  Pointer to data
 587:../STM32Cube_FW_F4_V1.4.0/Drivers/CMSIS/Include/core_cmInstr.h ****     \return        value of type uint16_t at (*ptr)
 588:../STM32Cube_FW_F4_V1.4.0/Drivers/CMSIS/Include/core_cmInstr.h ****  */
 589:../STM32Cube_FW_F4_V1.4.0/Drivers/CMSIS/Include/core_cmInstr.h **** __attribute__( ( always_inline ) ) __STATIC_INLINE uint16_t __LDREXH(volatile uint16_t *addr)
 590:../STM32Cube_FW_F4_V1.4.0/Drivers/CMSIS/Include/core_cmInstr.h **** {
 591:../STM32Cube_FW_F4_V1.4.0/Drivers/CMSIS/Include/core_cmInstr.h ****     uint32_t result;
 592:../STM32Cube_FW_F4_V1.4.0/Drivers/CMSIS/Include/core_cmInstr.h **** 
 593:../STM32Cube_FW_F4_V1.4.0/Drivers/CMSIS/Include/core_cmInstr.h **** #if (__GNUC__ > 4) || (__GNUC__ == 4 && __GNUC_MINOR__ >= 8)
 594:../STM32Cube_FW_F4_V1.4.0/Drivers/CMSIS/Include/core_cmInstr.h ****    __ASM volatile ("ldrexh %0, %1" : "=r" (result) : "Q" (*addr) );
 595:../STM32Cube_FW_F4_V1.4.0/Drivers/CMSIS/Include/core_cmInstr.h **** #else
 596:../STM32Cube_FW_F4_V1.4.0/Drivers/CMSIS/Include/core_cmInstr.h ****     /* Prior to GCC 4.8, "Q" will be expanded to [rx, #0] which is not
 597:../STM32Cube_FW_F4_V1.4.0/Drivers/CMSIS/Include/core_cmInstr.h ****        accepted by assembler. So has to use following less efficient pattern.
 598:../STM32Cube_FW_F4_V1.4.0/Drivers/CMSIS/Include/core_cmInstr.h ****     */
 599:../STM32Cube_FW_F4_V1.4.0/Drivers/CMSIS/Include/core_cmInstr.h ****    __ASM volatile ("ldrexh %0, [%1]" : "=r" (result) : "r" (addr) : "memory" );
 600:../STM32Cube_FW_F4_V1.4.0/Drivers/CMSIS/Include/core_cmInstr.h **** #endif
 601:../STM32Cube_FW_F4_V1.4.0/Drivers/CMSIS/Include/core_cmInstr.h ****    return ((uint16_t) result);    /* Add explicit type cast here */
 602:../STM32Cube_FW_F4_V1.4.0/Drivers/CMSIS/Include/core_cmInstr.h **** }
 603:../STM32Cube_FW_F4_V1.4.0/Drivers/CMSIS/Include/core_cmInstr.h **** 
 604:../STM32Cube_FW_F4_V1.4.0/Drivers/CMSIS/Include/core_cmInstr.h **** 
 605:../STM32Cube_FW_F4_V1.4.0/Drivers/CMSIS/Include/core_cmInstr.h **** /** \brief  LDR Exclusive (32 bit)
 606:../STM32Cube_FW_F4_V1.4.0/Drivers/CMSIS/Include/core_cmInstr.h **** 
 607:../STM32Cube_FW_F4_V1.4.0/Drivers/CMSIS/Include/core_cmInstr.h ****     This function executes a exclusive LDR instruction for 32 bit values.
 608:../STM32Cube_FW_F4_V1.4.0/Drivers/CMSIS/Include/core_cmInstr.h **** 
 609:../STM32Cube_FW_F4_V1.4.0/Drivers/CMSIS/Include/core_cmInstr.h ****     \param [in]    ptr  Pointer to data
 610:../STM32Cube_FW_F4_V1.4.0/Drivers/CMSIS/Include/core_cmInstr.h ****     \return        value of type uint32_t at (*ptr)
 611:../STM32Cube_FW_F4_V1.4.0/Drivers/CMSIS/Include/core_cmInstr.h ****  */
 612:../STM32Cube_FW_F4_V1.4.0/Drivers/CMSIS/Include/core_cmInstr.h **** __attribute__( ( always_inline ) ) __STATIC_INLINE uint32_t __LDREXW(volatile uint32_t *addr)
 613:../STM32Cube_FW_F4_V1.4.0/Drivers/CMSIS/Include/core_cmInstr.h **** {
 614:../STM32Cube_FW_F4_V1.4.0/Drivers/CMSIS/Include/core_cmInstr.h ****     uint32_t result;
 615:../STM32Cube_FW_F4_V1.4.0/Drivers/CMSIS/Include/core_cmInstr.h **** 
 616:../STM32Cube_FW_F4_V1.4.0/Drivers/CMSIS/Include/core_cmInstr.h ****    __ASM volatile ("ldrex %0, %1" : "=r" (result) : "Q" (*addr) );
 617:../STM32Cube_FW_F4_V1.4.0/Drivers/CMSIS/Include/core_cmInstr.h ****    return(result);
 618:../STM32Cube_FW_F4_V1.4.0/Drivers/CMSIS/Include/core_cmInstr.h **** }
 619:../STM32Cube_FW_F4_V1.4.0/Drivers/CMSIS/Include/core_cmInstr.h **** 
 620:../STM32Cube_FW_F4_V1.4.0/Drivers/CMSIS/Include/core_cmInstr.h **** 
 621:../STM32Cube_FW_F4_V1.4.0/Drivers/CMSIS/Include/core_cmInstr.h **** /** \brief  STR Exclusive (8 bit)
 622:../STM32Cube_FW_F4_V1.4.0/Drivers/CMSIS/Include/core_cmInstr.h **** 
 623:../STM32Cube_FW_F4_V1.4.0/Drivers/CMSIS/Include/core_cmInstr.h ****     This function executes a exclusive STR instruction for 8 bit values.
ARM GAS  C:\cygwin\tmp\cc4kSEDe.s 			page 23


 624:../STM32Cube_FW_F4_V1.4.0/Drivers/CMSIS/Include/core_cmInstr.h **** 
 625:../STM32Cube_FW_F4_V1.4.0/Drivers/CMSIS/Include/core_cmInstr.h ****     \param [in]  value  Value to store
 626:../STM32Cube_FW_F4_V1.4.0/Drivers/CMSIS/Include/core_cmInstr.h ****     \param [in]    ptr  Pointer to location
 627:../STM32Cube_FW_F4_V1.4.0/Drivers/CMSIS/Include/core_cmInstr.h ****     \return          0  Function succeeded
 628:../STM32Cube_FW_F4_V1.4.0/Drivers/CMSIS/Include/core_cmInstr.h ****     \return          1  Function failed
 629:../STM32Cube_FW_F4_V1.4.0/Drivers/CMSIS/Include/core_cmInstr.h ****  */
 630:../STM32Cube_FW_F4_V1.4.0/Drivers/CMSIS/Include/core_cmInstr.h **** __attribute__( ( always_inline ) ) __STATIC_INLINE uint32_t __STREXB(uint8_t value, volatile uint8_
 631:../STM32Cube_FW_F4_V1.4.0/Drivers/CMSIS/Include/core_cmInstr.h **** {
 632:../STM32Cube_FW_F4_V1.4.0/Drivers/CMSIS/Include/core_cmInstr.h ****    uint32_t result;
 633:../STM32Cube_FW_F4_V1.4.0/Drivers/CMSIS/Include/core_cmInstr.h **** 
 634:../STM32Cube_FW_F4_V1.4.0/Drivers/CMSIS/Include/core_cmInstr.h ****    __ASM volatile ("strexb %0, %2, %1" : "=&r" (result), "=Q" (*addr) : "r" ((uint32_t)value) );
 635:../STM32Cube_FW_F4_V1.4.0/Drivers/CMSIS/Include/core_cmInstr.h ****    return(result);
 636:../STM32Cube_FW_F4_V1.4.0/Drivers/CMSIS/Include/core_cmInstr.h **** }
 637:../STM32Cube_FW_F4_V1.4.0/Drivers/CMSIS/Include/core_cmInstr.h **** 
 638:../STM32Cube_FW_F4_V1.4.0/Drivers/CMSIS/Include/core_cmInstr.h **** 
 639:../STM32Cube_FW_F4_V1.4.0/Drivers/CMSIS/Include/core_cmInstr.h **** /** \brief  STR Exclusive (16 bit)
 640:../STM32Cube_FW_F4_V1.4.0/Drivers/CMSIS/Include/core_cmInstr.h **** 
 641:../STM32Cube_FW_F4_V1.4.0/Drivers/CMSIS/Include/core_cmInstr.h ****     This function executes a exclusive STR instruction for 16 bit values.
 642:../STM32Cube_FW_F4_V1.4.0/Drivers/CMSIS/Include/core_cmInstr.h **** 
 643:../STM32Cube_FW_F4_V1.4.0/Drivers/CMSIS/Include/core_cmInstr.h ****     \param [in]  value  Value to store
 644:../STM32Cube_FW_F4_V1.4.0/Drivers/CMSIS/Include/core_cmInstr.h ****     \param [in]    ptr  Pointer to location
 645:../STM32Cube_FW_F4_V1.4.0/Drivers/CMSIS/Include/core_cmInstr.h ****     \return          0  Function succeeded
 646:../STM32Cube_FW_F4_V1.4.0/Drivers/CMSIS/Include/core_cmInstr.h ****     \return          1  Function failed
 647:../STM32Cube_FW_F4_V1.4.0/Drivers/CMSIS/Include/core_cmInstr.h ****  */
 648:../STM32Cube_FW_F4_V1.4.0/Drivers/CMSIS/Include/core_cmInstr.h **** __attribute__( ( always_inline ) ) __STATIC_INLINE uint32_t __STREXH(uint16_t value, volatile uint1
 649:../STM32Cube_FW_F4_V1.4.0/Drivers/CMSIS/Include/core_cmInstr.h **** {
 650:../STM32Cube_FW_F4_V1.4.0/Drivers/CMSIS/Include/core_cmInstr.h ****    uint32_t result;
 651:../STM32Cube_FW_F4_V1.4.0/Drivers/CMSIS/Include/core_cmInstr.h **** 
 652:../STM32Cube_FW_F4_V1.4.0/Drivers/CMSIS/Include/core_cmInstr.h ****    __ASM volatile ("strexh %0, %2, %1" : "=&r" (result), "=Q" (*addr) : "r" ((uint32_t)value) );
 653:../STM32Cube_FW_F4_V1.4.0/Drivers/CMSIS/Include/core_cmInstr.h ****    return(result);
 654:../STM32Cube_FW_F4_V1.4.0/Drivers/CMSIS/Include/core_cmInstr.h **** }
 655:../STM32Cube_FW_F4_V1.4.0/Drivers/CMSIS/Include/core_cmInstr.h **** 
 656:../STM32Cube_FW_F4_V1.4.0/Drivers/CMSIS/Include/core_cmInstr.h **** 
 657:../STM32Cube_FW_F4_V1.4.0/Drivers/CMSIS/Include/core_cmInstr.h **** /** \brief  STR Exclusive (32 bit)
 658:../STM32Cube_FW_F4_V1.4.0/Drivers/CMSIS/Include/core_cmInstr.h **** 
 659:../STM32Cube_FW_F4_V1.4.0/Drivers/CMSIS/Include/core_cmInstr.h ****     This function executes a exclusive STR instruction for 32 bit values.
 660:../STM32Cube_FW_F4_V1.4.0/Drivers/CMSIS/Include/core_cmInstr.h **** 
 661:../STM32Cube_FW_F4_V1.4.0/Drivers/CMSIS/Include/core_cmInstr.h ****     \param [in]  value  Value to store
 662:../STM32Cube_FW_F4_V1.4.0/Drivers/CMSIS/Include/core_cmInstr.h ****     \param [in]    ptr  Pointer to location
 663:../STM32Cube_FW_F4_V1.4.0/Drivers/CMSIS/Include/core_cmInstr.h ****     \return          0  Function succeeded
 664:../STM32Cube_FW_F4_V1.4.0/Drivers/CMSIS/Include/core_cmInstr.h ****     \return          1  Function failed
 665:../STM32Cube_FW_F4_V1.4.0/Drivers/CMSIS/Include/core_cmInstr.h ****  */
 666:../STM32Cube_FW_F4_V1.4.0/Drivers/CMSIS/Include/core_cmInstr.h **** __attribute__( ( always_inline ) ) __STATIC_INLINE uint32_t __STREXW(uint32_t value, volatile uint3
 667:../STM32Cube_FW_F4_V1.4.0/Drivers/CMSIS/Include/core_cmInstr.h **** {
 668:../STM32Cube_FW_F4_V1.4.0/Drivers/CMSIS/Include/core_cmInstr.h ****    uint32_t result;
 669:../STM32Cube_FW_F4_V1.4.0/Drivers/CMSIS/Include/core_cmInstr.h **** 
 670:../STM32Cube_FW_F4_V1.4.0/Drivers/CMSIS/Include/core_cmInstr.h ****    __ASM volatile ("strex %0, %2, %1" : "=&r" (result), "=Q" (*addr) : "r" (value) );
 671:../STM32Cube_FW_F4_V1.4.0/Drivers/CMSIS/Include/core_cmInstr.h ****    return(result);
 672:../STM32Cube_FW_F4_V1.4.0/Drivers/CMSIS/Include/core_cmInstr.h **** }
 673:../STM32Cube_FW_F4_V1.4.0/Drivers/CMSIS/Include/core_cmInstr.h **** 
 674:../STM32Cube_FW_F4_V1.4.0/Drivers/CMSIS/Include/core_cmInstr.h **** 
 675:../STM32Cube_FW_F4_V1.4.0/Drivers/CMSIS/Include/core_cmInstr.h **** /** \brief  Remove the exclusive lock
 676:../STM32Cube_FW_F4_V1.4.0/Drivers/CMSIS/Include/core_cmInstr.h **** 
 677:../STM32Cube_FW_F4_V1.4.0/Drivers/CMSIS/Include/core_cmInstr.h ****     This function removes the exclusive lock which is created by LDREX.
 678:../STM32Cube_FW_F4_V1.4.0/Drivers/CMSIS/Include/core_cmInstr.h **** 
 679:../STM32Cube_FW_F4_V1.4.0/Drivers/CMSIS/Include/core_cmInstr.h ****  */
 680:../STM32Cube_FW_F4_V1.4.0/Drivers/CMSIS/Include/core_cmInstr.h **** __attribute__( ( always_inline ) ) __STATIC_INLINE void __CLREX(void)
ARM GAS  C:\cygwin\tmp\cc4kSEDe.s 			page 24


 681:../STM32Cube_FW_F4_V1.4.0/Drivers/CMSIS/Include/core_cmInstr.h **** {
 682:../STM32Cube_FW_F4_V1.4.0/Drivers/CMSIS/Include/core_cmInstr.h ****   __ASM volatile ("clrex" ::: "memory");
 683:../STM32Cube_FW_F4_V1.4.0/Drivers/CMSIS/Include/core_cmInstr.h **** }
 684:../STM32Cube_FW_F4_V1.4.0/Drivers/CMSIS/Include/core_cmInstr.h **** 
 685:../STM32Cube_FW_F4_V1.4.0/Drivers/CMSIS/Include/core_cmInstr.h **** 
 686:../STM32Cube_FW_F4_V1.4.0/Drivers/CMSIS/Include/core_cmInstr.h **** /** \brief  Signed Saturate
 687:../STM32Cube_FW_F4_V1.4.0/Drivers/CMSIS/Include/core_cmInstr.h **** 
 688:../STM32Cube_FW_F4_V1.4.0/Drivers/CMSIS/Include/core_cmInstr.h ****     This function saturates a signed value.
 689:../STM32Cube_FW_F4_V1.4.0/Drivers/CMSIS/Include/core_cmInstr.h **** 
 690:../STM32Cube_FW_F4_V1.4.0/Drivers/CMSIS/Include/core_cmInstr.h ****     \param [in]  value  Value to be saturated
 691:../STM32Cube_FW_F4_V1.4.0/Drivers/CMSIS/Include/core_cmInstr.h ****     \param [in]    sat  Bit position to saturate to (1..32)
 692:../STM32Cube_FW_F4_V1.4.0/Drivers/CMSIS/Include/core_cmInstr.h ****     \return             Saturated value
 693:../STM32Cube_FW_F4_V1.4.0/Drivers/CMSIS/Include/core_cmInstr.h ****  */
 694:../STM32Cube_FW_F4_V1.4.0/Drivers/CMSIS/Include/core_cmInstr.h **** #define __SSAT(ARG1,ARG2) \
 695:../STM32Cube_FW_F4_V1.4.0/Drivers/CMSIS/Include/core_cmInstr.h **** ({                          \
 696:../STM32Cube_FW_F4_V1.4.0/Drivers/CMSIS/Include/core_cmInstr.h ****   uint32_t __RES, __ARG1 = (ARG1); \
 697:../STM32Cube_FW_F4_V1.4.0/Drivers/CMSIS/Include/core_cmInstr.h ****   __ASM ("ssat %0, %1, %2" : "=r" (__RES) :  "I" (ARG2), "r" (__ARG1) ); \
 698:../STM32Cube_FW_F4_V1.4.0/Drivers/CMSIS/Include/core_cmInstr.h ****   __RES; \
 699:../STM32Cube_FW_F4_V1.4.0/Drivers/CMSIS/Include/core_cmInstr.h ****  })
 700:../STM32Cube_FW_F4_V1.4.0/Drivers/CMSIS/Include/core_cmInstr.h **** 
 701:../STM32Cube_FW_F4_V1.4.0/Drivers/CMSIS/Include/core_cmInstr.h **** 
 702:../STM32Cube_FW_F4_V1.4.0/Drivers/CMSIS/Include/core_cmInstr.h **** /** \brief  Unsigned Saturate
 703:../STM32Cube_FW_F4_V1.4.0/Drivers/CMSIS/Include/core_cmInstr.h **** 
 704:../STM32Cube_FW_F4_V1.4.0/Drivers/CMSIS/Include/core_cmInstr.h ****     This function saturates an unsigned value.
 705:../STM32Cube_FW_F4_V1.4.0/Drivers/CMSIS/Include/core_cmInstr.h **** 
 706:../STM32Cube_FW_F4_V1.4.0/Drivers/CMSIS/Include/core_cmInstr.h ****     \param [in]  value  Value to be saturated
 707:../STM32Cube_FW_F4_V1.4.0/Drivers/CMSIS/Include/core_cmInstr.h ****     \param [in]    sat  Bit position to saturate to (0..31)
 708:../STM32Cube_FW_F4_V1.4.0/Drivers/CMSIS/Include/core_cmInstr.h ****     \return             Saturated value
 709:../STM32Cube_FW_F4_V1.4.0/Drivers/CMSIS/Include/core_cmInstr.h ****  */
 710:../STM32Cube_FW_F4_V1.4.0/Drivers/CMSIS/Include/core_cmInstr.h **** #define __USAT(ARG1,ARG2) \
 711:../STM32Cube_FW_F4_V1.4.0/Drivers/CMSIS/Include/core_cmInstr.h **** ({                          \
 712:../STM32Cube_FW_F4_V1.4.0/Drivers/CMSIS/Include/core_cmInstr.h ****   uint32_t __RES, __ARG1 = (ARG1); \
 713:../STM32Cube_FW_F4_V1.4.0/Drivers/CMSIS/Include/core_cmInstr.h ****   __ASM ("usat %0, %1, %2" : "=r" (__RES) :  "I" (ARG2), "r" (__ARG1) ); \
 714:../STM32Cube_FW_F4_V1.4.0/Drivers/CMSIS/Include/core_cmInstr.h ****   __RES; \
 715:../STM32Cube_FW_F4_V1.4.0/Drivers/CMSIS/Include/core_cmInstr.h ****  })
 716:../STM32Cube_FW_F4_V1.4.0/Drivers/CMSIS/Include/core_cmInstr.h **** 
 717:../STM32Cube_FW_F4_V1.4.0/Drivers/CMSIS/Include/core_cmInstr.h **** 
 718:../STM32Cube_FW_F4_V1.4.0/Drivers/CMSIS/Include/core_cmInstr.h **** /** \brief  Count leading zeros
 719:../STM32Cube_FW_F4_V1.4.0/Drivers/CMSIS/Include/core_cmInstr.h **** 
 720:../STM32Cube_FW_F4_V1.4.0/Drivers/CMSIS/Include/core_cmInstr.h ****     This function counts the number of leading zeros of a data value.
 721:../STM32Cube_FW_F4_V1.4.0/Drivers/CMSIS/Include/core_cmInstr.h **** 
 722:../STM32Cube_FW_F4_V1.4.0/Drivers/CMSIS/Include/core_cmInstr.h ****     \param [in]  value  Value to count the leading zeros
 723:../STM32Cube_FW_F4_V1.4.0/Drivers/CMSIS/Include/core_cmInstr.h ****     \return             number of leading zeros in value
 724:../STM32Cube_FW_F4_V1.4.0/Drivers/CMSIS/Include/core_cmInstr.h ****  */
 725:../STM32Cube_FW_F4_V1.4.0/Drivers/CMSIS/Include/core_cmInstr.h **** __attribute__( ( always_inline ) ) __STATIC_INLINE uint8_t __CLZ(uint32_t value)
 726:../STM32Cube_FW_F4_V1.4.0/Drivers/CMSIS/Include/core_cmInstr.h **** {
 727:../STM32Cube_FW_F4_V1.4.0/Drivers/CMSIS/Include/core_cmInstr.h ****   uint32_t result;
 728:../STM32Cube_FW_F4_V1.4.0/Drivers/CMSIS/Include/core_cmInstr.h **** 
 729:../STM32Cube_FW_F4_V1.4.0/Drivers/CMSIS/Include/core_cmInstr.h ****   __ASM volatile ("clz %0, %1" : "=r" (result) : "r" (value) );
 186              		.loc 2 729 0
 187              	@ 729 "../STM32Cube_FW_F4_V1.4.0/Drivers/CMSIS/Include/core_cmInstr.h" 1
 188 0074 B3FA83F3 		clz r3, r3	@ result, result
 189              	@ 0 "" 2
 190              	.LVL13:
 191              		.thumb
 192              	.LBE21:
 193              	.LBE20:
ARM GAS  C:\cygwin\tmp\cc4kSEDe.s 			page 25


 194              	.LBB22:
 195              	.LBB23:
 554:../STM32Cube_FW_F4_V1.4.0/Drivers/CMSIS/Include/core_cmInstr.h ****    return(result);
 196              		.loc 2 554 0
 197 0078 4FF0E042 		mov	r2, #1879048192	@ tmp200,
 198              	@ 554 "../STM32Cube_FW_F4_V1.4.0/Drivers/CMSIS/Include/core_cmInstr.h" 1
 199 007c 92FAA2F2 		rbit r2, r2	@ result, tmp200
 200              	@ 0 "" 2
 201              	.LVL14:
 202              		.thumb
 203              	.LBE23:
 204              	.LBE22:
 205              	.LBB24:
 206              	.LBB25:
 207              		.loc 2 729 0
 208              	@ 729 "../STM32Cube_FW_F4_V1.4.0/Drivers/CMSIS/Include/core_cmInstr.h" 1
 209 0080 B2FA82F2 		clz r2, r2	@ result, result
 210              	@ 0 "" 2
 211              	.LVL15:
 212              		.thumb
 213              	.LBE25:
 214              	.LBE24:
 416:../STM32Cube_FW_F4_V1.4.0/Drivers/STM32F4xx_HAL_Driver/Src/stm32f4xx_hal_rcc_ex.c **** #endif /* STM32F411xE */
 215              		.loc 1 416 0
 216 0084 A068     		ldr	r0, [r4, #8]	@ PeriphClkInit_15(D)->PLLI2S.PLLI2SR, PeriphClkInit_15(D)->PLLI2S.PLLI2SR
 217 0086 D2B2     		uxtb	r2, r2	@ D.7479, result
 218              	.LVL16:
 219 0088 9040     		lsls	r0, r0, r2	@ D.7479, PeriphClkInit_15(D)->PLLI2S.PLLI2SR, D.7479
 220 008a 6268     		ldr	r2, [r4, #4]	@ PeriphClkInit_15(D)->PLLI2S.PLLI2SN, PeriphClkInit_15(D)->PLLI2S.PLLI2SN
 221 008c DBB2     		uxtb	r3, r3	@ D.7479, result
 222              	.LVL17:
 223 008e 9A40     		lsls	r2, r2, r3	@ D.7479, PeriphClkInit_15(D)->PLLI2S.PLLI2SN, D.7479
 224 0090 0243     		orrs	r2, r2, r0	@, D.7479, D.7479, D.7479
 420:../STM32Cube_FW_F4_V1.4.0/Drivers/STM32F4xx_HAL_Driver/Src/stm32f4xx_hal_rcc_ex.c ****     /* Get tick */
 225              		.loc 1 420 0
 226 0092 0123     		movs	r3, #1	@ tmp210,
 416:../STM32Cube_FW_F4_V1.4.0/Drivers/STM32F4xx_HAL_Driver/Src/stm32f4xx_hal_rcc_ex.c **** #endif /* STM32F411xE */
 227              		.loc 1 416 0
 228 0094 C1F88420 		str	r2, [r1, #132]	@ D.7479, MEM[(struct RCC_TypeDef *)1073887232B].PLLI2SCFGR
 420:../STM32Cube_FW_F4_V1.4.0/Drivers/STM32F4xx_HAL_Driver/Src/stm32f4xx_hal_rcc_ex.c ****     /* Get tick */
 229              		.loc 1 420 0
 230 0098 2B60     		str	r3, [r5]	@ tmp210, MEM[(volatile uint32_t *)1111949416B]
 422:../STM32Cube_FW_F4_V1.4.0/Drivers/STM32F4xx_HAL_Driver/Src/stm32f4xx_hal_rcc_ex.c ****     /* Wait till PLLI2S is ready */
 231              		.loc 1 422 0
 232 009a FFF7FEFF 		bl	HAL_GetTick	@
 233              	.LVL18:
 234 009e 0546     		mov	r5, r0	@ tickstart,
 235              	.LVL19:
 236              	.L10:
 424:../STM32Cube_FW_F4_V1.4.0/Drivers/STM32F4xx_HAL_Driver/Src/stm32f4xx_hal_rcc_ex.c ****     {
 237              		.loc 1 424 0
 238 00a0 314B     		ldr	r3, .L33+8	@ tmp212,
 239 00a2 1B68     		ldr	r3, [r3]	@ D.7479, MEM[(struct RCC_TypeDef *)1073887232B].CR
 240 00a4 1901     		lsls	r1, r3, #4	@, D.7479,
 241 00a6 B9D4     		bmi	.L13	@,
 426:../STM32Cube_FW_F4_V1.4.0/Drivers/STM32F4xx_HAL_Driver/Src/stm32f4xx_hal_rcc_ex.c ****       {
 242              		.loc 1 426 0
ARM GAS  C:\cygwin\tmp\cc4kSEDe.s 			page 26


 243 00a8 FFF7FEFF 		bl	HAL_GetTick	@
 244              	.LVL20:
 245 00ac 401B     		subs	r0, r0, r5	@ D.7479,, tickstart
 246 00ae 6428     		cmp	r0, #100	@ D.7479,
 247 00b0 F6D9     		bls	.L10	@,
 248 00b2 D9E7     		b	.L11	@
 249              	.LVL21:
 250              	.L4:
 436:../STM32Cube_FW_F4_V1.4.0/Drivers/STM32F4xx_HAL_Driver/Src/stm32f4xx_hal_rcc_ex.c ****   {
 437:../STM32Cube_FW_F4_V1.4.0/Drivers/STM32F4xx_HAL_Driver/Src/stm32f4xx_hal_rcc_ex.c ****     /* Enable Power Clock*/
 438:../STM32Cube_FW_F4_V1.4.0/Drivers/STM32F4xx_HAL_Driver/Src/stm32f4xx_hal_rcc_ex.c ****     __HAL_RCC_PWR_CLK_ENABLE();
 251              		.loc 1 438 0
 252 00b4 2C4A     		ldr	r2, .L33+8	@ tmp214,
 253 00b6 136C     		ldr	r3, [r2, #64]	@ D.7479, MEM[(struct RCC_TypeDef *)1073887232B].APB1ENR
 254 00b8 43F08053 		orr	r3, r3, #268435456	@ D.7479, D.7479,
 255 00bc 1364     		str	r3, [r2, #64]	@ D.7479, MEM[(struct RCC_TypeDef *)1073887232B].APB1ENR
 439:../STM32Cube_FW_F4_V1.4.0/Drivers/STM32F4xx_HAL_Driver/Src/stm32f4xx_hal_rcc_ex.c ****     
 440:../STM32Cube_FW_F4_V1.4.0/Drivers/STM32F4xx_HAL_Driver/Src/stm32f4xx_hal_rcc_ex.c ****     /* Enable write access to Backup domain */
 441:../STM32Cube_FW_F4_V1.4.0/Drivers/STM32F4xx_HAL_Driver/Src/stm32f4xx_hal_rcc_ex.c ****     PWR->CR |= PWR_CR_DBP;
 256              		.loc 1 441 0
 257 00be A2F5E432 		sub	r2, r2, #116736	@ tmp216, tmp216,
 258 00c2 1368     		ldr	r3, [r2]	@ D.7479, MEM[(struct PWR_TypeDef *)1073770496B].CR
 259 00c4 43F48073 		orr	r3, r3, #256	@ D.7479, D.7479,
 260 00c8 1360     		str	r3, [r2]	@ D.7479, MEM[(struct PWR_TypeDef *)1073770496B].CR
 442:../STM32Cube_FW_F4_V1.4.0/Drivers/STM32F4xx_HAL_Driver/Src/stm32f4xx_hal_rcc_ex.c **** 
 443:../STM32Cube_FW_F4_V1.4.0/Drivers/STM32F4xx_HAL_Driver/Src/stm32f4xx_hal_rcc_ex.c ****     /* Get tick */
 444:../STM32Cube_FW_F4_V1.4.0/Drivers/STM32F4xx_HAL_Driver/Src/stm32f4xx_hal_rcc_ex.c ****     tickstart = HAL_GetTick();
 261              		.loc 1 444 0
 262 00ca FFF7FEFF 		bl	HAL_GetTick	@
 263              	.LVL22:
 264 00ce 0546     		mov	r5, r0	@ tickstart,
 265              	.LVL23:
 266              	.L14:
 445:../STM32Cube_FW_F4_V1.4.0/Drivers/STM32F4xx_HAL_Driver/Src/stm32f4xx_hal_rcc_ex.c **** 
 446:../STM32Cube_FW_F4_V1.4.0/Drivers/STM32F4xx_HAL_Driver/Src/stm32f4xx_hal_rcc_ex.c ****     while((PWR->CR & PWR_CR_DBP) == RESET)
 267              		.loc 1 446 0
 268 00d0 264B     		ldr	r3, .L33+12	@ tmp219,
 269 00d2 1B68     		ldr	r3, [r3]	@ D.7479, MEM[(struct PWR_TypeDef *)1073770496B].CR
 270 00d4 DA05     		lsls	r2, r3, #23	@, D.7479,
 271 00d6 05D4     		bmi	.L32	@,
 447:../STM32Cube_FW_F4_V1.4.0/Drivers/STM32F4xx_HAL_Driver/Src/stm32f4xx_hal_rcc_ex.c ****     {
 448:../STM32Cube_FW_F4_V1.4.0/Drivers/STM32F4xx_HAL_Driver/Src/stm32f4xx_hal_rcc_ex.c ****       if((HAL_GetTick() - tickstart ) > RCC_DBP_TIMEOUT_VALUE)
 272              		.loc 1 448 0
 273 00d8 FFF7FEFF 		bl	HAL_GetTick	@
 274              	.LVL24:
 275 00dc 401B     		subs	r0, r0, r5	@ D.7479,, tickstart
 276 00de 6428     		cmp	r0, #100	@ D.7479,
 277 00e0 F6D9     		bls	.L14	@,
 278 00e2 C1E7     		b	.L11	@
 279              	.L32:
 449:../STM32Cube_FW_F4_V1.4.0/Drivers/STM32F4xx_HAL_Driver/Src/stm32f4xx_hal_rcc_ex.c ****       {
 450:../STM32Cube_FW_F4_V1.4.0/Drivers/STM32F4xx_HAL_Driver/Src/stm32f4xx_hal_rcc_ex.c ****         return HAL_TIMEOUT;
 451:../STM32Cube_FW_F4_V1.4.0/Drivers/STM32F4xx_HAL_Driver/Src/stm32f4xx_hal_rcc_ex.c ****       }      
 452:../STM32Cube_FW_F4_V1.4.0/Drivers/STM32F4xx_HAL_Driver/Src/stm32f4xx_hal_rcc_ex.c ****     }
 453:../STM32Cube_FW_F4_V1.4.0/Drivers/STM32F4xx_HAL_Driver/Src/stm32f4xx_hal_rcc_ex.c ****         
 454:../STM32Cube_FW_F4_V1.4.0/Drivers/STM32F4xx_HAL_Driver/Src/stm32f4xx_hal_rcc_ex.c ****     /* Reset the Backup domain only if the RTC Clock source selection is modified */ 
 455:../STM32Cube_FW_F4_V1.4.0/Drivers/STM32F4xx_HAL_Driver/Src/stm32f4xx_hal_rcc_ex.c ****     if((RCC->BDCR & RCC_BDCR_RTCSEL) != (PeriphClkInit->RTCClockSelection & RCC_BDCR_RTCSEL))
ARM GAS  C:\cygwin\tmp\cc4kSEDe.s 			page 27


 280              		.loc 1 455 0
 281 00e4 204B     		ldr	r3, .L33+8	@ tmp221,
 282 00e6 E268     		ldr	r2, [r4, #12]	@ PeriphClkInit_15(D)->RTCClockSelection, PeriphClkInit_15(D)->RTCClockSelection
 283 00e8 196F     		ldr	r1, [r3, #112]	@ D.7479, MEM[(struct RCC_TypeDef *)1073887232B].BDCR
 284 00ea 4A40     		eors	r2, r2, r1	@, D.7479, PeriphClkInit_15(D)->RTCClockSelection, D.7479
 285 00ec 12F4407F 		tst	r2, #768	@ D.7479,
 286 00f0 08D0     		beq	.L16	@,
 456:../STM32Cube_FW_F4_V1.4.0/Drivers/STM32F4xx_HAL_Driver/Src/stm32f4xx_hal_rcc_ex.c ****     {
 457:../STM32Cube_FW_F4_V1.4.0/Drivers/STM32F4xx_HAL_Driver/Src/stm32f4xx_hal_rcc_ex.c ****       /* Store the content of BDCR register before the reset of Backup Domain */
 458:../STM32Cube_FW_F4_V1.4.0/Drivers/STM32F4xx_HAL_Driver/Src/stm32f4xx_hal_rcc_ex.c ****       tmpreg = (RCC->BDCR & ~(RCC_BDCR_RTCSEL));
 287              		.loc 1 458 0
 288 00f2 1A6F     		ldr	r2, [r3, #112]	@ D.7479, MEM[(struct RCC_TypeDef *)1073887232B].BDCR
 459:../STM32Cube_FW_F4_V1.4.0/Drivers/STM32F4xx_HAL_Driver/Src/stm32f4xx_hal_rcc_ex.c ****       /* RTC Clock selection can be changed only if the Backup Domain is reset */
 460:../STM32Cube_FW_F4_V1.4.0/Drivers/STM32F4xx_HAL_Driver/Src/stm32f4xx_hal_rcc_ex.c ****       __HAL_RCC_BACKUPRESET_FORCE();
 289              		.loc 1 460 0
 290 00f4 1E49     		ldr	r1, .L33+16	@ tmp226,
 291 00f6 0120     		movs	r0, #1	@ tmp227,
 292 00f8 0860     		str	r0, [r1]	@ tmp227, MEM[(volatile uint32_t *)1111952960B]
 458:../STM32Cube_FW_F4_V1.4.0/Drivers/STM32F4xx_HAL_Driver/Src/stm32f4xx_hal_rcc_ex.c ****       /* RTC Clock selection can be changed only if the Backup Domain is reset */
 293              		.loc 1 458 0
 294 00fa 22F44072 		bic	r2, r2, #768	@ tmpreg, D.7479,
 295              	.LVL25:
 461:../STM32Cube_FW_F4_V1.4.0/Drivers/STM32F4xx_HAL_Driver/Src/stm32f4xx_hal_rcc_ex.c ****       __HAL_RCC_BACKUPRESET_RELEASE();
 296              		.loc 1 461 0
 297 00fe 0020     		movs	r0, #0	@ tmp229,
 298 0100 0860     		str	r0, [r1]	@ tmp229, MEM[(volatile uint32_t *)1111952960B]
 462:../STM32Cube_FW_F4_V1.4.0/Drivers/STM32F4xx_HAL_Driver/Src/stm32f4xx_hal_rcc_ex.c ****       /* Restore the Content of BDCR register */
 463:../STM32Cube_FW_F4_V1.4.0/Drivers/STM32F4xx_HAL_Driver/Src/stm32f4xx_hal_rcc_ex.c ****       RCC->BDCR = tmpreg;
 299              		.loc 1 463 0
 300 0102 1A67     		str	r2, [r3, #112]	@ tmpreg, MEM[(struct RCC_TypeDef *)1073887232B].BDCR
 301              	.LVL26:
 302              	.L16:
 464:../STM32Cube_FW_F4_V1.4.0/Drivers/STM32F4xx_HAL_Driver/Src/stm32f4xx_hal_rcc_ex.c ****     }
 465:../STM32Cube_FW_F4_V1.4.0/Drivers/STM32F4xx_HAL_Driver/Src/stm32f4xx_hal_rcc_ex.c ****       
 466:../STM32Cube_FW_F4_V1.4.0/Drivers/STM32F4xx_HAL_Driver/Src/stm32f4xx_hal_rcc_ex.c ****     /* If LSE is selected as RTC clock source, wait for LSE reactivation */
 467:../STM32Cube_FW_F4_V1.4.0/Drivers/STM32F4xx_HAL_Driver/Src/stm32f4xx_hal_rcc_ex.c ****     if(PeriphClkInit->RTCClockSelection == RCC_RTCCLKSOURCE_LSE)
 303              		.loc 1 467 0
 304 0104 E368     		ldr	r3, [r4, #12]	@ PeriphClkInit_15(D)->RTCClockSelection, PeriphClkInit_15(D)->RTCClockSelection
 305 0106 B3F5807F 		cmp	r3, #256	@ PeriphClkInit_15(D)->RTCClockSelection,
 306 010a 0FD0     		beq	.L17	@,
 307              	.L22:
 468:../STM32Cube_FW_F4_V1.4.0/Drivers/STM32F4xx_HAL_Driver/Src/stm32f4xx_hal_rcc_ex.c ****     {
 469:../STM32Cube_FW_F4_V1.4.0/Drivers/STM32F4xx_HAL_Driver/Src/stm32f4xx_hal_rcc_ex.c ****       /* Get tick */
 470:../STM32Cube_FW_F4_V1.4.0/Drivers/STM32F4xx_HAL_Driver/Src/stm32f4xx_hal_rcc_ex.c ****       tickstart = HAL_GetTick();
 471:../STM32Cube_FW_F4_V1.4.0/Drivers/STM32F4xx_HAL_Driver/Src/stm32f4xx_hal_rcc_ex.c **** 
 472:../STM32Cube_FW_F4_V1.4.0/Drivers/STM32F4xx_HAL_Driver/Src/stm32f4xx_hal_rcc_ex.c ****       /* Wait till LSE is ready */  
 473:../STM32Cube_FW_F4_V1.4.0/Drivers/STM32F4xx_HAL_Driver/Src/stm32f4xx_hal_rcc_ex.c ****       while(__HAL_RCC_GET_FLAG(RCC_FLAG_LSERDY) == RESET)
 474:../STM32Cube_FW_F4_V1.4.0/Drivers/STM32F4xx_HAL_Driver/Src/stm32f4xx_hal_rcc_ex.c ****       {
 475:../STM32Cube_FW_F4_V1.4.0/Drivers/STM32F4xx_HAL_Driver/Src/stm32f4xx_hal_rcc_ex.c ****         if((HAL_GetTick() - tickstart ) > RCC_LSE_TIMEOUT_VALUE)
 476:../STM32Cube_FW_F4_V1.4.0/Drivers/STM32F4xx_HAL_Driver/Src/stm32f4xx_hal_rcc_ex.c ****         {
 477:../STM32Cube_FW_F4_V1.4.0/Drivers/STM32F4xx_HAL_Driver/Src/stm32f4xx_hal_rcc_ex.c ****           return HAL_TIMEOUT;
 478:../STM32Cube_FW_F4_V1.4.0/Drivers/STM32F4xx_HAL_Driver/Src/stm32f4xx_hal_rcc_ex.c ****         }
 479:../STM32Cube_FW_F4_V1.4.0/Drivers/STM32F4xx_HAL_Driver/Src/stm32f4xx_hal_rcc_ex.c ****       }  
 480:../STM32Cube_FW_F4_V1.4.0/Drivers/STM32F4xx_HAL_Driver/Src/stm32f4xx_hal_rcc_ex.c ****     }
 481:../STM32Cube_FW_F4_V1.4.0/Drivers/STM32F4xx_HAL_Driver/Src/stm32f4xx_hal_rcc_ex.c ****     __HAL_RCC_RTC_CONFIG(PeriphClkInit->RTCClockSelection); 
 308              		.loc 1 481 0
 309 010c E268     		ldr	r2, [r4, #12]	@ D.7479, PeriphClkInit_15(D)->RTCClockSelection
ARM GAS  C:\cygwin\tmp\cc4kSEDe.s 			page 28


 310 010e 02F44073 		and	r3, r2, #768	@ D.7479, D.7479,
 311 0112 B3F5407F 		cmp	r3, #768	@ D.7479,
 312 0116 144B     		ldr	r3, .L33+8	@ tmp249,
 313 0118 17D1     		bne	.L28	@,
 314              		.loc 1 481 0 is_stmt 0 discriminator 1
 315 011a 9968     		ldr	r1, [r3, #8]	@ D.7479, MEM[(struct RCC_TypeDef *)1073887232B].CFGR
 316 011c 22F07040 		bic	r0, r2, #-268435456	@ D.7479, D.7479,
 317 0120 20F44070 		bic	r0, r0, #768	@ D.7479, D.7479,
 318 0124 21F4F811 		bic	r1, r1, #2031616	@ D.7479, D.7479,
 319 0128 0143     		orrs	r1, r1, r0	@, D.7479, D.7479, D.7479
 320 012a 11E0     		b	.L29	@
 321              	.L17:
 470:../STM32Cube_FW_F4_V1.4.0/Drivers/STM32F4xx_HAL_Driver/Src/stm32f4xx_hal_rcc_ex.c **** 
 322              		.loc 1 470 0 is_stmt 1
 323 012c FFF7FEFF 		bl	HAL_GetTick	@
 324              	.LVL27:
 325 0130 0546     		mov	r5, r0	@ tickstart,
 326              	.LVL28:
 327              	.L20:
 473:../STM32Cube_FW_F4_V1.4.0/Drivers/STM32F4xx_HAL_Driver/Src/stm32f4xx_hal_rcc_ex.c ****       {
 328              		.loc 1 473 0
 329 0132 0D4B     		ldr	r3, .L33+8	@ tmp235,
 330 0134 1B6F     		ldr	r3, [r3, #112]	@ D.7479, MEM[(struct RCC_TypeDef *)1073887232B].BDCR
 331 0136 9B07     		lsls	r3, r3, #30	@, D.7479,
 332 0138 E8D4     		bmi	.L22	@,
 475:../STM32Cube_FW_F4_V1.4.0/Drivers/STM32F4xx_HAL_Driver/Src/stm32f4xx_hal_rcc_ex.c ****         {
 333              		.loc 1 475 0
 334 013a FFF7FEFF 		bl	HAL_GetTick	@
 335              	.LVL29:
 336 013e 41F28833 		movw	r3, #5000	@ tmp234,
 337 0142 401B     		subs	r0, r0, r5	@ D.7479,, tickstart
 338 0144 9842     		cmp	r0, r3	@ D.7479, tmp234
 339 0146 F4D9     		bls	.L20	@,
 340 0148 8EE7     		b	.L11	@
 341              	.L28:
 342              		.loc 1 481 0 discriminator 2
 343 014a 9968     		ldr	r1, [r3, #8]	@ D.7479, MEM[(struct RCC_TypeDef *)1073887232B].CFGR
 344 014c 21F4F811 		bic	r1, r1, #2031616	@ D.7479, D.7479,
 345              	.L29:
 346 0150 9960     		str	r1, [r3, #8]	@ D.7479,
 347 0152 196F     		ldr	r1, [r3, #112]	@ D.7479, MEM[(struct RCC_TypeDef *)1073887232B].BDCR
 348 0154 C2F30B02 		ubfx	r2, r2, #0, #12	@ D.7479, D.7479,,
 349 0158 0A43     		orrs	r2, r2, r1	@, D.7479, D.7479, D.7479
 350 015a 1A67     		str	r2, [r3, #112]	@ D.7479, MEM[(struct RCC_TypeDef *)1073887232B].BDCR
 482:../STM32Cube_FW_F4_V1.4.0/Drivers/STM32F4xx_HAL_Driver/Src/stm32f4xx_hal_rcc_ex.c ****   }
 483:../STM32Cube_FW_F4_V1.4.0/Drivers/STM32F4xx_HAL_Driver/Src/stm32f4xx_hal_rcc_ex.c ****   
 484:../STM32Cube_FW_F4_V1.4.0/Drivers/STM32F4xx_HAL_Driver/Src/stm32f4xx_hal_rcc_ex.c ****   return HAL_OK;
 351              		.loc 1 484 0 discriminator 2
 352 015c 0020     		movs	r0, #0	@ D.7478,
 485:../STM32Cube_FW_F4_V1.4.0/Drivers/STM32F4xx_HAL_Driver/Src/stm32f4xx_hal_rcc_ex.c **** }
 353              		.loc 1 485 0 discriminator 2
 354 015e 70BD     		pop	{r4, r5, r6, pc}	@
 355              	.LVL30:
 356              	.L34:
 357              		.align	2
 358              	.L33:
 359 0160 00000000 		.word	.LC0
ARM GAS  C:\cygwin\tmp\cc4kSEDe.s 			page 29


 360 0164 68004742 		.word	1111949416
 361 0168 00380240 		.word	1073887232
 362 016c 00700040 		.word	1073770496
 363 0170 400E4742 		.word	1111952960
 364              		.cfi_endproc
 365              	.LFE123:
 366              		.size	HAL_RCCEx_PeriphCLKConfig, .-HAL_RCCEx_PeriphCLKConfig
 367              		.section	.text.HAL_RCCEx_GetPeriphCLKConfig,"ax",%progbits
 368              		.align	1
 369              		.global	HAL_RCCEx_GetPeriphCLKConfig
 370              		.thumb
 371              		.thumb_func
 372              		.type	HAL_RCCEx_GetPeriphCLKConfig, %function
 373              	HAL_RCCEx_GetPeriphCLKConfig:
 374              	.LFB124:
 486:../STM32Cube_FW_F4_V1.4.0/Drivers/STM32F4xx_HAL_Driver/Src/stm32f4xx_hal_rcc_ex.c **** 
 487:../STM32Cube_FW_F4_V1.4.0/Drivers/STM32F4xx_HAL_Driver/Src/stm32f4xx_hal_rcc_ex.c **** /**
 488:../STM32Cube_FW_F4_V1.4.0/Drivers/STM32F4xx_HAL_Driver/Src/stm32f4xx_hal_rcc_ex.c ****   * @brief  Configures the RCC_OscInitStruct according to the internal 
 489:../STM32Cube_FW_F4_V1.4.0/Drivers/STM32F4xx_HAL_Driver/Src/stm32f4xx_hal_rcc_ex.c ****   * RCC configuration registers.
 490:../STM32Cube_FW_F4_V1.4.0/Drivers/STM32F4xx_HAL_Driver/Src/stm32f4xx_hal_rcc_ex.c ****   * @param  PeriphClkInit: pointer to an RCC_PeriphCLKInitTypeDef structure that 
 491:../STM32Cube_FW_F4_V1.4.0/Drivers/STM32F4xx_HAL_Driver/Src/stm32f4xx_hal_rcc_ex.c ****   * will be configured.
 492:../STM32Cube_FW_F4_V1.4.0/Drivers/STM32F4xx_HAL_Driver/Src/stm32f4xx_hal_rcc_ex.c ****   * @retval None
 493:../STM32Cube_FW_F4_V1.4.0/Drivers/STM32F4xx_HAL_Driver/Src/stm32f4xx_hal_rcc_ex.c ****   */
 494:../STM32Cube_FW_F4_V1.4.0/Drivers/STM32F4xx_HAL_Driver/Src/stm32f4xx_hal_rcc_ex.c **** void HAL_RCCEx_GetPeriphCLKConfig(RCC_PeriphCLKInitTypeDef  *PeriphClkInit)
 495:../STM32Cube_FW_F4_V1.4.0/Drivers/STM32F4xx_HAL_Driver/Src/stm32f4xx_hal_rcc_ex.c **** {
 375              		.loc 1 495 0
 376              		.cfi_startproc
 377              		@ args = 0, pretend = 0, frame = 0
 378              		@ frame_needed = 0, uses_anonymous_args = 0
 379              	.LVL31:
 496:../STM32Cube_FW_F4_V1.4.0/Drivers/STM32F4xx_HAL_Driver/Src/stm32f4xx_hal_rcc_ex.c ****   uint32_t tempreg;
 497:../STM32Cube_FW_F4_V1.4.0/Drivers/STM32F4xx_HAL_Driver/Src/stm32f4xx_hal_rcc_ex.c ****   
 498:../STM32Cube_FW_F4_V1.4.0/Drivers/STM32F4xx_HAL_Driver/Src/stm32f4xx_hal_rcc_ex.c ****   /* Set all possible values for the extended clock type parameter------------*/
 499:../STM32Cube_FW_F4_V1.4.0/Drivers/STM32F4xx_HAL_Driver/Src/stm32f4xx_hal_rcc_ex.c ****   PeriphClkInit->PeriphClockSelection = RCC_PERIPHCLK_I2S | RCC_PERIPHCLK_RTC;
 380              		.loc 1 499 0
 381 0000 0323     		movs	r3, #3	@ tmp130,
 500:../STM32Cube_FW_F4_V1.4.0/Drivers/STM32F4xx_HAL_Driver/Src/stm32f4xx_hal_rcc_ex.c ****   
 501:../STM32Cube_FW_F4_V1.4.0/Drivers/STM32F4xx_HAL_Driver/Src/stm32f4xx_hal_rcc_ex.c ****   /* Get the PLLI2S Clock configuration -----------------------------------------------*/
 502:../STM32Cube_FW_F4_V1.4.0/Drivers/STM32F4xx_HAL_Driver/Src/stm32f4xx_hal_rcc_ex.c ****   PeriphClkInit->PLLI2S.PLLI2SN = (uint32_t)((RCC->PLLI2SCFGR & RCC_PLLI2SCFGR_PLLI2SN) >> POSITION
 382              		.loc 1 502 0
 383 0002 1349     		ldr	r1, .L36	@ tmp131,
 499:../STM32Cube_FW_F4_V1.4.0/Drivers/STM32F4xx_HAL_Driver/Src/stm32f4xx_hal_rcc_ex.c ****   
 384              		.loc 1 499 0
 385 0004 0360     		str	r3, [r0]	@ tmp130, PeriphClkInit_2(D)->PeriphClockSelection
 495:../STM32Cube_FW_F4_V1.4.0/Drivers/STM32F4xx_HAL_Driver/Src/stm32f4xx_hal_rcc_ex.c ****   uint32_t tempreg;
 386              		.loc 1 495 0
 387 0006 10B5     		push	{r4, lr}	@
 388              		.cfi_def_cfa_offset 8
 389              		.cfi_offset 4, -8
 390              		.cfi_offset 14, -4
 391              	.LBB26:
 392              	.LBB27:
 554:../STM32Cube_FW_F4_V1.4.0/Drivers/CMSIS/Include/core_cmInstr.h ****    return(result);
 393              		.loc 2 554 0
 394 0008 47F6C073 		movw	r3, #32704	@ tmp133,
 395              	.LBE27:
 396              	.LBE26:
ARM GAS  C:\cygwin\tmp\cc4kSEDe.s 			page 30


 397              		.loc 1 502 0
 398 000c D1F88440 		ldr	r4, [r1, #132]	@ D.7488, MEM[(struct RCC_TypeDef *)1073887232B].PLLI2SCFGR
 399              	.LVL32:
 400              	.LBB29:
 401              	.LBB28:
 554:../STM32Cube_FW_F4_V1.4.0/Drivers/CMSIS/Include/core_cmInstr.h ****    return(result);
 402              		.loc 2 554 0
 403              	@ 554 "../STM32Cube_FW_F4_V1.4.0/Drivers/CMSIS/Include/core_cmInstr.h" 1
 404 0010 93FAA3F2 		rbit r2, r3	@ result, tmp133
 405              	@ 0 "" 2
 406              	.LVL33:
 407              		.thumb
 408              	.LBE28:
 409              	.LBE29:
 410              	.LBB30:
 411              	.LBB31:
 412              		.loc 2 729 0
 413              	@ 729 "../STM32Cube_FW_F4_V1.4.0/Drivers/CMSIS/Include/core_cmInstr.h" 1
 414 0014 B2FA82F2 		clz r2, r2	@ result, result
 415              	@ 0 "" 2
 416              	.LVL34:
 417              		.thumb
 418              	.LBE31:
 419              	.LBE30:
 420              		.loc 1 502 0
 421 0018 2340     		ands	r3, r3, r4	@, D.7488, tmp133, D.7488
 422 001a D2B2     		uxtb	r2, r2	@ D.7488, result
 423              	.LVL35:
 424 001c D340     		lsrs	r3, r3, r2	@ D.7488, D.7488, D.7488
 425 001e 4360     		str	r3, [r0, #4]	@ D.7488, PeriphClkInit_2(D)->PLLI2S.PLLI2SN
 503:../STM32Cube_FW_F4_V1.4.0/Drivers/STM32F4xx_HAL_Driver/Src/stm32f4xx_hal_rcc_ex.c ****   PeriphClkInit->PLLI2S.PLLI2SR = (uint32_t)((RCC->PLLI2SCFGR & RCC_PLLI2SCFGR_PLLI2SR) >> POSITION
 426              		.loc 1 503 0
 427 0020 D1F88420 		ldr	r2, [r1, #132]	@ D.7488, MEM[(struct RCC_TypeDef *)1073887232B].PLLI2SCFGR
 428              	.LVL36:
 429              	.LBB32:
 430              	.LBB33:
 554:../STM32Cube_FW_F4_V1.4.0/Drivers/CMSIS/Include/core_cmInstr.h ****    return(result);
 431              		.loc 2 554 0
 432 0024 4FF0E043 		mov	r3, #1879048192	@ tmp141,
 433              	@ 554 "../STM32Cube_FW_F4_V1.4.0/Drivers/CMSIS/Include/core_cmInstr.h" 1
 434 0028 93FAA3F3 		rbit r3, r3	@ result, tmp141
 435              	@ 0 "" 2
 436              	.LVL37:
 437              		.thumb
 438              	.LBE33:
 439              	.LBE32:
 440              	.LBB34:
 441              	.LBB35:
 442              		.loc 2 729 0
 443              	@ 729 "../STM32Cube_FW_F4_V1.4.0/Drivers/CMSIS/Include/core_cmInstr.h" 1
 444 002c B3FA83F3 		clz r3, r3	@ result, result
 445              	@ 0 "" 2
 446              	.LVL38:
 447              		.thumb
 448              	.LBE35:
 449              	.LBE34:
 450              		.loc 1 503 0
ARM GAS  C:\cygwin\tmp\cc4kSEDe.s 			page 31


 451 0030 02F0E042 		and	r2, r2, #1879048192	@ D.7488, D.7488,
 452 0034 DBB2     		uxtb	r3, r3	@ D.7488, result
 453              	.LVL39:
 454 0036 22FA03F3 		lsr	r3, r2, r3	@ D.7488, D.7488, D.7488
 455 003a 8360     		str	r3, [r0, #8]	@ D.7488, PeriphClkInit_2(D)->PLLI2S.PLLI2SR
 504:../STM32Cube_FW_F4_V1.4.0/Drivers/STM32F4xx_HAL_Driver/Src/stm32f4xx_hal_rcc_ex.c **** #if defined(STM32F411xE)
 505:../STM32Cube_FW_F4_V1.4.0/Drivers/STM32F4xx_HAL_Driver/Src/stm32f4xx_hal_rcc_ex.c ****   PeriphClkInit->PLLI2S.PLLI2SM = (uint32_t)(RCC->PLLI2SCFGR & RCC_PLLI2SCFGR_PLLI2SM);
 506:../STM32Cube_FW_F4_V1.4.0/Drivers/STM32F4xx_HAL_Driver/Src/stm32f4xx_hal_rcc_ex.c **** #endif /* STM32F411xE */  
 507:../STM32Cube_FW_F4_V1.4.0/Drivers/STM32F4xx_HAL_Driver/Src/stm32f4xx_hal_rcc_ex.c ****   /* Get the RTC Clock configuration -----------------------------------------------*/
 508:../STM32Cube_FW_F4_V1.4.0/Drivers/STM32F4xx_HAL_Driver/Src/stm32f4xx_hal_rcc_ex.c ****   tempreg = (RCC->CFGR & RCC_CFGR_RTCPRE);
 456              		.loc 1 508 0
 457 003c 8B68     		ldr	r3, [r1, #8]	@ D.7488, MEM[(struct RCC_TypeDef *)1073887232B].CFGR
 458              	.LVL40:
 509:../STM32Cube_FW_F4_V1.4.0/Drivers/STM32F4xx_HAL_Driver/Src/stm32f4xx_hal_rcc_ex.c ****   PeriphClkInit->RTCClockSelection = (uint32_t)((tempreg) | (RCC->BDCR & RCC_BDCR_RTCSEL));
 459              		.loc 1 509 0
 460 003e 0A6F     		ldr	r2, [r1, #112]	@ D.7488, MEM[(struct RCC_TypeDef *)1073887232B].BDCR
 508:../STM32Cube_FW_F4_V1.4.0/Drivers/STM32F4xx_HAL_Driver/Src/stm32f4xx_hal_rcc_ex.c ****   PeriphClkInit->RTCClockSelection = (uint32_t)((tempreg) | (RCC->BDCR & RCC_BDCR_RTCSEL));
 461              		.loc 1 508 0
 462 0040 03F4F813 		and	r3, r3, #2031616	@ tempreg, D.7488,
 463              	.LVL41:
 464              		.loc 1 509 0
 465 0044 02F44072 		and	r2, r2, #768	@ D.7488, D.7488,
 466 0048 1343     		orrs	r3, r3, r2	@, D.7488, tempreg, D.7488
 467              	.LVL42:
 468 004a C360     		str	r3, [r0, #12]	@ D.7488, PeriphClkInit_2(D)->RTCClockSelection
 469 004c 10BD     		pop	{r4, pc}	@
 470              	.L37:
 471 004e 00BF     		.align	2
 472              	.L36:
 473 0050 00380240 		.word	1073887232
 474              		.cfi_endproc
 475              	.LFE124:
 476              		.size	HAL_RCCEx_GetPeriphCLKConfig, .-HAL_RCCEx_GetPeriphCLKConfig
 477              		.section	.rodata.str1.1,"aMS",%progbits,1
 478              	.LC0:
 479 0000 2E2E2F53 		.ascii	"../STM32Cube_FW_F4_V1.4.0/Drivers/STM32F4xx_HAL_Dri"
 479      544D3332 
 479      43756265 
 479      5F46575F 
 479      46345F56 
 480 0033 7665722F 		.ascii	"ver/Src/stm32f4xx_hal_rcc_ex.c\000"
 480      5372632F 
 480      73746D33 
 480      32663478 
 480      785F6861 
 481              		.text
 482              	.Letext0:
 483              		.file 3 "c:\\program files\\gcc-arm-none-eabi-4_9-2014\\arm-none-eabi\\include\\machine\\_default_
 484              		.file 4 "c:\\program files\\gcc-arm-none-eabi-4_9-2014\\arm-none-eabi\\include\\stdint.h"
 485              		.file 5 "../STM32Cube_FW_F4_V1.4.0/Drivers/CMSIS/Device/ST/STM32F4xx/Include/stm32f407xx.h"
 486              		.file 6 "../STM32Cube_FW_F4_V1.4.0/Drivers/CMSIS/Device/ST/STM32F4xx/Include/stm32f4xx.h"
 487              		.file 7 "../STM32Cube_FW_F4_V1.4.0/Drivers/STM32F4xx_HAL_Driver/Inc/stm32f4xx_hal_def.h"
 488              		.file 8 "../STM32Cube_FW_F4_V1.4.0/Drivers/STM32F4xx_HAL_Driver/Inc/stm32f4xx_hal_rcc_ex.h"
 489              		.file 9 "../STM32Cube_FW_F4_V1.4.0/Drivers/CMSIS/Include/core_cm4.h"
 490              		.file 10 "Inc/stm32f4xx_hal_conf.h"
 491              		.file 11 "../STM32Cube_FW_F4_V1.4.0/Drivers/STM32F4xx_HAL_Driver/Inc/stm32f4xx_hal.h"